 PrintingArchiving_ur

 Timestamp is 5a795244 (Tue Feb 06 14:59:16 2018)

 Preferred load address is 00400000

 Start         Length     Name                   Class
 0001:00000000 000b7e5bH .text                   CODE
 0001:000b7e60 0000cacdH .text$x                 CODE
 0001:000c492d 0006a303H .textbss                CODE
 0002:00000000 0000d7daH .rdata                  DATA
 0002:0000d7e0 000027fcH .rdata$r                DATA
 0002:0000ffe0 00010772H .xdata$x                DATA
 0002:00020752 00000000H .edata                  DATA
 0003:00000000 00000104H .CRT$XCA                DATA
 0003:00000104 000001b1H .CRT$XCU                DATA
 0003:000002b8 00000104H .CRT$XCZ                DATA
 0003:000003bc 00000104H .CRT$XIA                DATA
 0003:000004c0 00000104H .CRT$XIZ                DATA
 0003:000005d0 00004769H .data                   DATA
 0003:00004d40 00000468H .bss                    DATA
 0004:00000000 000000c8H .idata$2                DATA
 0004:000000c8 00000014H .idata$3                DATA
 0004:000000dc 00000700H .idata$4                DATA
 0004:000007dc 00000700H .idata$5                DATA
 0004:00000edc 00001af1H .idata$6                DATA
 0005:00000000 00000298H .rsrc$01                DATA
 0005:000002a0 00000ee0H .rsrc$02                DATA

  Address         Publics by Value              Rva+Base     Lib:Object

 0001:00005950       ?GetRecordCount@CADODatabase@@QAEKV?$_com_ptr_t@V?$_com_IIID@U_Recordset@ADOCG@@$1?_GUID_00000556_0000_0010_8000_00aa006d2ea4@@3U__s_GUID@@A@@@@@Z 00406950 f   ado.obj
 0001:00005a90       ?Open@CADODatabase@@QAEHPBG00@Z 00406a90 f   ado.obj
 0001:00005c40       ?dump_com_error@CADODatabase@@IAEXAAV_com_error@@@Z 00406c40 f   ado.obj
 0001:00005e80       ?IsOpen@CADODatabase@@QAEHXZ 00406e80 f   ado.obj
 0001:00005ef0       ?Close@CADODatabase@@QAEXXZ 00406ef0 f   ado.obj
 0001:00005f50       ??0CADORecordset@@QAE@PAVCADODatabase@@@Z 00406f50 f   ado.obj
 0001:00006110       ?Open@CADORecordset@@QAEHV?$_com_ptr_t@V?$_com_IIID@U_Connection@ADOCG@@$1?_GUID_00000550_0000_0010_8000_00aa006d2ea4@@3U__s_GUID@@A@@@@PBGH@Z 00407110 f   ado.obj
 0001:00006720       ?AfxTrace@@YAXPBGZZ        00407720 f i ado.obj
 0001:00006750       ?Open@CADORecordset@@QAEHPBGH@Z 00407750 f   ado.obj
 0001:000067d0       ?GetFieldValue@CADORecordset@@QAEHPBGAAN@Z 004077d0 f   ado.obj
 0001:00006b50       ?GetFieldValue@CADORecordset@@QAEHHAAN@Z 00407b50 f   ado.obj
 0001:00006ee0       ?GetFieldValue@CADORecordset@@QAEHPBGAAJ@Z 00407ee0 f   ado.obj
 0001:00007100       ?GetFieldValue@CADORecordset@@QAEHHAAJ@Z 00408100 f   ado.obj
 0001:00007330       ?GetFieldValue@CADORecordset@@QAEHPBGAAK@Z 00408330 f   ado.obj
 0001:00007550       ?GetFieldValue@CADORecordset@@QAEHHAAK@Z 00408550 f   ado.obj
 0001:00007780       ?GetFieldValue@CADORecordset@@QAEHPBGAAH@Z 00408780 f   ado.obj
 0001:00007a00       ?GetFieldValue@CADORecordset@@QAEHHAAH@Z 00408a00 f   ado.obj
 0001:00007c90       ?GetFieldValue@CADORecordset@@QAEHPBGAAVCString@@V2@@Z 00408c90 f   ado.obj
 0001:00008380       ?GetFieldValue@CADORecordset@@QAEHHAAVCString@@V2@@Z 00409380 f   ado.obj
 0001:00008a90       ?GetFieldValue@CADORecordset@@QAEHPBGAAVCOleDateTime@@@Z 00409a90 f   ado.obj
 0001:00008d10       ?GetFieldValue@CADORecordset@@QAEHHAAVCOleDateTime@@@Z 00409d10 f   ado.obj
 0001:00008fb0       ?GetFieldValue@CADORecordset@@QAEHPBGAA_N@Z 00409fb0 f   ado.obj
 0001:00009200       ?GetFieldValue@CADORecordset@@QAEHHAA_N@Z 0040a200 f   ado.obj
 0001:00009470       ?GetFieldValue@CADORecordset@@QAEHPBGAAVCOleCurrency@@@Z 0040a470 f   ado.obj
 0001:00009720       ?GetFieldValue@CADORecordset@@QAEHHAAVCOleCurrency@@@Z 0040a720 f   ado.obj
 0001:000099f0       ?GetFieldValue@CADORecordset@@QAEHPBGAAV_variant_t@@@Z 0040a9f0 f   ado.obj
 0001:00009b90       ?GetFieldValue@CADORecordset@@QAEHHAAV_variant_t@@@Z 0040ab90 f   ado.obj
 0001:00009d50       ?IsFieldNull@CADORecordset@@QAEHPBG@Z 0040ad50 f   ado.obj
 0001:00009f30       ?IsFieldNull@CADORecordset@@QAEHH@Z 0040af30 f   ado.obj
 0001:0000a130       ?IsFieldEmpty@CADORecordset@@QAEHPBG@Z 0040b130 f   ado.obj
 0001:0000a340       ?IsFieldEmpty@CADORecordset@@QAEHH@Z 0040b340 f   ado.obj
 0001:0000a560       ?SetFieldEmpty@CADORecordset@@QAEHPBG@Z 0040b560 f   ado.obj
 0001:0000a630       ?SetFieldEmpty@CADORecordset@@QAEHH@Z 0040b630 f   ado.obj
 0001:0000a760       ?GetRecordCount@CADORecordset@@QAEKXZ 0040b760 f   ado.obj
 0001:0000a860       ?IsOpen@CADORecordset@@QAEHXZ 0040b860 f   ado.obj
 0001:0000a8d0       ?Close@CADORecordset@@QAEXXZ 0040b8d0 f   ado.obj
 0001:0000a940       ?Execute@CADODatabase@@QAEHPBG@Z 0040b940 f   ado.obj
 0001:0000aa60       ?RecordBinding@CADORecordset@@QAEHAAVCADORecordBinding@@@Z 0040ba60 f   ado.obj
 0001:0000ab50       ?GetFieldInfo@CADORecordset@@QAEHPBGPAUCADOFieldInfo@@@Z 0040bb50 f   ado.obj
 0001:0000ac80       ?GetFieldInfo@CADORecordset@@QAEHHPAUCADOFieldInfo@@@Z 0040bc80 f   ado.obj
 0001:0000adc0       ?GetFieldInfo@CADORecordset@@IAEHV?$_com_ptr_t@V?$_com_IIID@UField@ADOCG@@$1?_GUID_00000569_0000_0010_8000_00aa006d2ea4@@3U__s_GUID@@A@@@@PAUCADOFieldInfo@@@Z 0040bdc0 f   ado.obj
 0001:0000af30       ??H@YG?AVCString@@ABV0@D@Z 0040bf30 f i ado.obj
 0001:0000afa0       ?GetChunk@CADORecordset@@QAEHPBGAAVCString@@@Z 0040bfa0 f   ado.obj
 0001:0000b0d0       ?IsEmpty@CString@@QBEHXZ   0040c0d0 f i ado.obj
 0001:0000b130       ?GetData@CString@@IBEPAUCStringData@@XZ 0040c130 f i ado.obj
 0001:0000b170       ?GetChunk@CADORecordset@@QAEHHAAVCString@@@Z 0040c170 f   ado.obj
 0001:0000b2b0       ??BCString@@QBEPBGXZ       0040c2b0 f i ado.obj
 0001:0000b2f0       ?CompareNoCase@CString@@QBEHPBG@Z 0040c2f0 f i ado.obj
 0001:0000b350       ?GetChunk@CADORecordset@@IAEHV?$_com_ptr_t@V?$_com_IIID@UField@ADOCG@@$1?_GUID_00000569_0000_0010_8000_00aa006d2ea4@@3U__s_GUID@@A@@@@AAVCString@@@Z 0040c350 f   ado.obj
 0001:0000b560       ?GetChunk@CADORecordset@@QAEHPBGPAX@Z 0040c560 f   ado.obj
 0001:0000b690       ?GetChunk@CADORecordset@@QAEHHPAX@Z 0040c690 f   ado.obj
 0001:0000b7d0       ?GetChunk@CADORecordset@@IAEHV?$_com_ptr_t@V?$_com_IIID@UField@ADOCG@@$1?_GUID_00000569_0000_0010_8000_00aa006d2ea4@@3U__s_GUID@@A@@@@PAX@Z 0040c7d0 f   ado.obj
 0001:0000b9f0       ?AppendChunk@CADORecordset@@QAEHPBGPAXI@Z 0040c9f0 f   ado.obj
 0001:0000bb20       ?AppendChunk@CADORecordset@@QAEHHPAXI@Z 0040cb20 f   ado.obj
 0001:0000bc60       ?AppendChunk@CADORecordset@@IAEHV?$_com_ptr_t@V?$_com_IIID@UField@ADOCG@@$1?_GUID_00000569_0000_0010_8000_00aa006d2ea4@@3U__s_GUID@@A@@@@PAXI@Z 0040cc60 f   ado.obj
 0001:0000bec0       ?GetString@CADORecordset@@QAE?AVCString@@PBG00J@Z 0040cec0 f   ado.obj
 0001:0000c150       ?IntToStr@@YA?AVCString@@H@Z 0040d150 f   ado.obj
 0001:0000c230       ?LongToStr@@YA?AVCString@@J@Z 0040d230 f   ado.obj
 0001:0000c310       ?ULongToStr@@YA?AVCString@@K@Z 0040d310 f   ado.obj
 0001:0000c3f0       ?DblToStr@@YA?AVCString@@NH@Z 0040d3f0 f   ado.obj
 0001:0000c4e0       ?DblToStr@@YA?AVCString@@M@Z 0040d4e0 f   ado.obj
 0001:0000c5d0       ?Edit@CADORecordset@@QAEXXZ 0040d5d0 f   ado.obj
 0001:0000c610       ?AddNew@CADORecordset@@QAEHXZ 0040d610 f   ado.obj
 0001:0000c6a0       ?AddNew@CADORecordset@@QAEHAAVCADORecordBinding@@@Z 0040d6a0 f   ado.obj
 0001:0000c7a0       ?Update@CADORecordset@@QAEHXZ 0040d7a0 f   ado.obj
 0001:0000c900       ?CancelUpdate@CADORecordset@@QAEXXZ 0040d900 f   ado.obj
 0001:0000c960       ?SetFieldValue@CADORecordset@@QAEHHVCString@@@Z 0040d960 f   ado.obj
 0001:0000cad0       ?SetFieldValue@CADORecordset@@QAEHPBGVCString@@@Z 0040dad0 f   ado.obj
 0001:0000cbe0       ?SetFieldValue@CADORecordset@@QAEHHH@Z 0040dbe0 f   ado.obj
 0001:0000cd20       ?SetFieldValue@CADORecordset@@QAEHPBGH@Z 0040dd20 f   ado.obj
 0001:0000cdf0       ?SetFieldValue@CADORecordset@@QAEHHJ@Z 0040ddf0 f   ado.obj
 0001:0000cf20       ?SetFieldValue@CADORecordset@@QAEHPBGJ@Z 0040df20 f   ado.obj
 0001:0000cff0       ?SetFieldValue@CADORecordset@@QAEHHK@Z 0040dff0 f   ado.obj
 0001:0000d120       ?SetFieldValue@CADORecordset@@QAEHPBGK@Z 0040e120 f   ado.obj
 0001:0000d1f0       ?SetFieldValue@CADORecordset@@QAEHHN@Z 0040e1f0 f   ado.obj
 0001:0000d330       ?SetFieldValue@CADORecordset@@QAEHPBGN@Z 0040e330 f   ado.obj
 0001:0000d410       ?SetFieldValue@CADORecordset@@QAEHHVCOleDateTime@@@Z 0040e410 f   ado.obj
 0001:0000d550       ?SetFieldValue@CADORecordset@@QAEHPBGVCOleDateTime@@@Z 0040e550 f   ado.obj
 0001:0000d630       ?SetFieldValue@CADORecordset@@QAEHH_N@Z 0040e630 f   ado.obj
 0001:0000d770       ?SetFieldValue@CADORecordset@@QAEHPBG_N@Z 0040e770 f   ado.obj
 0001:0000d850       ?SetFieldValue@CADORecordset@@QAEHHVCOleCurrency@@@Z 0040e850 f   ado.obj
 0001:0000d9a0       ??1CSingleLock@@QAE@XZ     0040e9a0 f i ado.obj
 0001:0000d9f0       ?SetFieldValue@CADORecordset@@QAEHPBGVCOleCurrency@@@Z 0040e9f0 f   ado.obj
 0001:0000dae0       ??0CCriticalSection@@QAE@XZ 0040eae0 f i ado.obj
 0001:0000db50       ?Serialize@CObject@@UAEXAAVCArchive@@@Z 0040eb50 f i ado.obj
 0001:0000db80       ?AssertValid@CObject@@UBEXXZ 0040eb80 f i ado.obj
 0001:0000dbb0       ?Dump@CObject@@UBEXAAVCDumpContext@@@Z 0040ebb0 f i ado.obj
 0001:0000dbe0       ?Unlock@CSyncObject@@UAEHJPAJ@Z 0040ebe0 f i ado.obj
 0001:0000dc20       ??_ECCriticalSection@@UAEPAXI@Z 0040ec20 f i ado.obj
 0001:0000dc20       ??_GCCriticalSection@@UAEPAXI@Z 0040ec20 f i ado.obj
 0001:0000dc90       ??3CObject@@SGXPAX@Z       0040ec90 f i ado.obj
 0001:0000dce0       ?SetFieldValue@CADORecordset@@QAEHHV_variant_t@@@Z 0040ece0 f   ado.obj
 0001:0000ddf0       ??1CCriticalSection@@UAE@XZ 0040edf0 f i ado.obj
 0001:0000de60       ?Lock@CCriticalSection@@UAEHK@Z 0040ee60 f i ado.obj
 0001:0000deb0       ?Lock@CCriticalSection@@QAEHXZ 0040eeb0 f i ado.obj
 0001:0000df10       ?Unlock@CCriticalSection@@UAEHXZ 0040ef10 f i ado.obj
 0001:0000df70       ?SetFieldValue@CADORecordset@@QAEHPBGV_variant_t@@@Z 0040ef70 f   ado.obj
 0001:0000e030       ?SetBookmark@CADORecordset@@QAEHXZ 0040f030 f   ado.obj
 0001:0000e0a0       ?Delete@CADORecordset@@QAEHXZ 0040f0a0 f   ado.obj
 0001:0000e140       ?Find@CADORecordset@@QAEHPBGH@Z 0040f140 f   ado.obj
 0001:0000e400       ?FindFirst@CADORecordset@@QAEHPBG@Z 0040f400 f   ado.obj
 0001:0000e460       ?FindNext@CADORecordset@@QAEHXZ 0040f460 f   ado.obj
 0001:0000e670       ?PutFieldValue@CADORecordset@@IAEHPBGV_variant_t@@@Z 0040f670 f   ado.obj
 0001:0000e840       ?PutFieldValue@CADORecordset@@IAEHV_variant_t@@0@Z 0040f840 f   ado.obj
 0001:0000ea10       ?Clone@CADORecordset@@QAEHAAV1@@Z 0040fa10 f   ado.obj
 0001:0000eaf0       ?SetFilter@CADORecordset@@QAEHPBG@Z 0040faf0 f   ado.obj
 0001:0000ebd0       ?SetSort@CADORecordset@@QAEHPBG@Z 0040fbd0 f   ado.obj
 0001:0000ecb0       ?SaveAsXML@CADORecordset@@QAEHPBG@Z 0040fcb0 f   ado.obj
 0001:0000edb0       ?OpenXML@CADORecordset@@QAEHPBG@Z 0040fdb0 f   ado.obj
 0001:0000ef10       ?Execute@CADORecordset@@QAEHPAVCADOCommand@@@Z 0040ff10 f   ado.obj
 0001:0000f070       ?dump_com_error@CADORecordset@@IAEXAAV_com_error@@@Z 00410070 f   ado.obj
 0001:0000f320       ??0CADOCommand@@QAE@PAVCADODatabase@@VCString@@H@Z 00410320 f   ado.obj
 0001:0000f4d0       ?AddParameter@CADOCommand@@QAEHPAVCADOParameter@@@Z 004104d0 f   ado.obj
 0001:0000f600       ?AddParameter@CADOCommand@@QAEHVCString@@HHJH@Z 00410600 f   ado.obj
 0001:0000f720       ?AddParameter@CADOCommand@@QAEHVCString@@HHJJ@Z 00410720 f   ado.obj
 0001:0000f840       ?AddParameter@CADOCommand@@QAEHVCString@@HHJN@Z 00410840 f   ado.obj
 0001:0000f960       ?AddParameter@CADOCommand@@QAEHVCString@@HHJ0@Z 00410960 f   ado.obj
 0001:0000fa90       ?AddParameter@CADOCommand@@QAEHVCString@@HHJVCOleDateTime@@@Z 00410a90 f   ado.obj
 0001:0000fbb0       ?AddParameter@CADOCommand@@QAEHVCString@@HHJV_variant_t@@@Z 00410bb0 f   ado.obj
 0001:0000fd10       ?SetText@CADOCommand@@QAEXVCString@@@Z 00410d10 f   ado.obj
 0001:0000fdf0       ?SetType@CADOCommand@@QAEXH@Z 00410df0 f   ado.obj
 0001:0000fe60       ?dump_com_error@CADOCommand@@IAEXAAV_com_error@@@Z 00410e60 f   ado.obj
 0001:0000ffd0       ??0CADOParameter@@QAE@HJHVCString@@@Z 00410fd0 f   ado.obj
 0001:00010160       ?SetValue@CADOParameter@@QAEHH@Z 00411160 f   ado.obj
 0001:000102b0       ?SetValue@CADOParameter@@QAEHJ@Z 004112b0 f   ado.obj
 0001:00010400       ?SetValue@CADOParameter@@QAEHN@Z 00411400 f   ado.obj
 0001:00010550       ?SetValue@CADOParameter@@QAEHVCString@@@Z 00411550 f   ado.obj
 0001:000106f0       ?GetLength@CString@@QBEHXZ 004116f0 f i ado.obj
 0001:00010740       ?SetValue@CADOParameter@@QAEHVCOleDateTime@@@Z 00411740 f   ado.obj
 0001:00010890       ?SetValue@CADOParameter@@QAEHV_variant_t@@@Z 00411890 f   ado.obj
 0001:000109c0       ?GetValue@CADOParameter@@QAEHAAH@Z 004119c0 f   ado.obj
 0001:00010b80       ?GetValue@CADOParameter@@QAEHAAJ@Z 00411b80 f   ado.obj
 0001:00010cf0       ?GetValue@CADOParameter@@QAEHAAN@Z 00411cf0 f   ado.obj
 0001:00010f80       ?GetValue@CADOParameter@@QAEHAAVCString@@V2@@Z 00411f80 f   ado.obj
 0001:00011500       ?GetValue@CADOParameter@@QAEHAAVCOleDateTime@@@Z 00412500 f   ado.obj
 0001:000116b0       ?GetValue@CADOParameter@@QAEHAAV_variant_t@@@Z 004126b0 f   ado.obj
 0001:000117a0       ?dump_com_error@CADOParameter@@IAEXAAV_com_error@@@Z 004127a0 f   ado.obj
 0001:00011910       ??0?$_com_ptr_t@V?$_com_IIID@U_Connection@ADOCG@@$1?_GUID_00000550_0000_0010_8000_00aa006d2ea4@@3U__s_GUID@@A@@@@QAE@XZ 00412910 f i ado.obj
 0001:00011950       ??0?$_com_ptr_t@V?$_com_IIID@U_Connection@ADOCG@@$1?_GUID_00000550_0000_0010_8000_00aa006d2ea4@@3U__s_GUID@@A@@@@QAE@ABV0@@Z 00412950 f i ado.obj
 0001:000119b0       ??4?$_com_ptr_t@V?$_com_IIID@U_Connection@ADOCG@@$1?_GUID_00000550_0000_0010_8000_00aa006d2ea4@@3U__s_GUID@@A@@@@QAEAAV0@ABV0@@Z 004129b0 f i ado.obj
 0001:00011a00       ??1?$_com_ptr_t@V?$_com_IIID@U_Connection@ADOCG@@$1?_GUID_00000550_0000_0010_8000_00aa006d2ea4@@3U__s_GUID@@A@@@@QAE@XZ 00412a00 f i ado.obj
 0001:00011a50       ??B?$_com_ptr_t@V?$_com_IIID@U_Connection@ADOCG@@$1?_GUID_00000550_0000_0010_8000_00aa006d2ea4@@3U__s_GUID@@A@@@@QBEPAU_Connection@ADOCG@@XZ 00412a50 f i ado.obj
 0001:00011a90       ??C?$_com_ptr_t@V?$_com_IIID@U_Connection@ADOCG@@$1?_GUID_00000550_0000_0010_8000_00aa006d2ea4@@3U__s_GUID@@A@@@@QBEPAU_Connection@ADOCG@@XZ 00412a90 f i ado.obj
 0001:00011af0       ??B?$_com_ptr_t@V?$_com_IIID@U_Connection@ADOCG@@$1?_GUID_00000550_0000_0010_8000_00aa006d2ea4@@3U__s_GUID@@A@@@@QBE_NXZ 00412af0 f i ado.obj
 0001:00011b30       ??0?$_com_ptr_t@V?$_com_IIID@U_Recordset@ADOCG@@$1?_GUID_00000556_0000_0010_8000_00aa006d2ea4@@3U__s_GUID@@A@@@@QAE@XZ 00412b30 f i ado.obj
 0001:00011b70       ??4?$_com_ptr_t@V?$_com_IIID@U_Recordset@ADOCG@@$1?_GUID_00000556_0000_0010_8000_00aa006d2ea4@@3U__s_GUID@@A@@@@QAEAAV0@ABV0@@Z 00412b70 f i ado.obj
 0001:00011bc0       ??4?$_com_ptr_t@V?$_com_IIID@U_Recordset@ADOCG@@$1?_GUID_00000556_0000_0010_8000_00aa006d2ea4@@3U__s_GUID@@A@@@@QAEAAV0@H@Z 00412bc0 f i ado.obj
 0001:00011c20       ??1?$_com_ptr_t@V?$_com_IIID@U_Recordset@ADOCG@@$1?_GUID_00000556_0000_0010_8000_00aa006d2ea4@@3U__s_GUID@@A@@@@QAE@XZ 00412c20 f i ado.obj
 0001:00011c70       ??C?$_com_ptr_t@V?$_com_IIID@U_Recordset@ADOCG@@$1?_GUID_00000556_0000_0010_8000_00aa006d2ea4@@3U__s_GUID@@A@@@@QBEPAU_Recordset@ADOCG@@XZ 00412c70 f i ado.obj
 0001:00011cd0       ??B?$_com_ptr_t@V?$_com_IIID@U_Recordset@ADOCG@@$1?_GUID_00000556_0000_0010_8000_00aa006d2ea4@@3U__s_GUID@@A@@@@QBE_NXZ 00412cd0 f i ado.obj
 0001:00011d10       ??9?$_com_ptr_t@V?$_com_IIID@U_Recordset@ADOCG@@$1?_GUID_00000556_0000_0010_8000_00aa006d2ea4@@3U__s_GUID@@A@@@@QAE_NH@Z 00412d10 f i ado.obj
 0001:00011d70       ?CreateInstance@?$_com_ptr_t@V?$_com_IIID@U_Recordset@ADOCG@@$1?_GUID_00000556_0000_0010_8000_00aa006d2ea4@@3U__s_GUID@@A@@@@QAEJABU_GUID@@PAUIUnknown@@K@Z 00412d70 f i ado.obj
 0001:00011eb0       ??0?$_com_ptr_t@V?$_com_IIID@U_Parameter@ADOCG@@$1?_GUID_0000050c_0000_0010_8000_00aa006d2ea4@@3U__s_GUID@@A@@@@QAE@XZ 00412eb0 f i ado.obj
 0001:00011ef0       ??4?$_com_ptr_t@V?$_com_IIID@U_Parameter@ADOCG@@$1?_GUID_0000050c_0000_0010_8000_00aa006d2ea4@@3U__s_GUID@@A@@@@QAEAAV0@H@Z 00412ef0 f i ado.obj
 0001:00011f50       ??1?$_com_ptr_t@V?$_com_IIID@U_Parameter@ADOCG@@$1?_GUID_0000050c_0000_0010_8000_00aa006d2ea4@@3U__s_GUID@@A@@@@QAE@XZ 00412f50 f i ado.obj
 0001:00011fa0       ??B?$_com_ptr_t@V?$_com_IIID@U_Parameter@ADOCG@@$1?_GUID_0000050c_0000_0010_8000_00aa006d2ea4@@3U__s_GUID@@A@@@@QBEPAU_Parameter@ADOCG@@XZ 00412fa0 f i ado.obj
 0001:00011fe0       ??C?$_com_ptr_t@V?$_com_IIID@U_Parameter@ADOCG@@$1?_GUID_0000050c_0000_0010_8000_00aa006d2ea4@@3U__s_GUID@@A@@@@QBEPAU_Parameter@ADOCG@@XZ 00412fe0 f i ado.obj
 0001:00012040       ?CreateInstance@?$_com_ptr_t@V?$_com_IIID@U_Parameter@ADOCG@@$1?_GUID_0000050c_0000_0010_8000_00aa006d2ea4@@3U__s_GUID@@A@@@@QAEJABU_GUID@@PAUIUnknown@@K@Z 00413040 f i ado.obj
 0001:00012180       ??1?$_com_ptr_t@V?$_com_IIID@UParameters@ADOCG@@$1?_GUID_0000050d_0000_0010_8000_00aa006d2ea4@@3U__s_GUID@@A@@@@QAE@XZ 00413180 f i ado.obj
 0001:000121d0       ??C?$_com_ptr_t@V?$_com_IIID@UParameters@ADOCG@@$1?_GUID_0000050d_0000_0010_8000_00aa006d2ea4@@3U__s_GUID@@A@@@@QBEPAUParameters@ADOCG@@XZ 004131d0 f i ado.obj
 0001:00012230       ??1?$_com_ptr_t@V?$_com_IIID@UFields@ADOCG@@$1?_GUID_00000564_0000_0010_8000_00aa006d2ea4@@3U__s_GUID@@A@@@@QAE@XZ 00413230 f i ado.obj
 0001:00012280       ??C?$_com_ptr_t@V?$_com_IIID@UFields@ADOCG@@$1?_GUID_00000564_0000_0010_8000_00aa006d2ea4@@3U__s_GUID@@A@@@@QBEPAUFields@ADOCG@@XZ 00413280 f i ado.obj
 0001:000122e0       ??0?$_com_ptr_t@V?$_com_IIID@UField@ADOCG@@$1?_GUID_00000569_0000_0010_8000_00aa006d2ea4@@3U__s_GUID@@A@@@@QAE@ABV0@@Z 004132e0 f i ado.obj
 0001:00012340       ??1?$_com_ptr_t@V?$_com_IIID@UField@ADOCG@@$1?_GUID_00000569_0000_0010_8000_00aa006d2ea4@@3U__s_GUID@@A@@@@QAE@XZ 00413340 f i ado.obj
 0001:00012390       ??C?$_com_ptr_t@V?$_com_IIID@UField@ADOCG@@$1?_GUID_00000569_0000_0010_8000_00aa006d2ea4@@3U__s_GUID@@A@@@@QBEPAUField@ADOCG@@XZ 00413390 f i ado.obj
 0001:000123f0       ??0?$_com_ptr_t@V?$_com_IIID@U_Command@ADOCG@@$1?_GUID_b08400bd_f9d1_4d02_b856_71d5dba123e9@@3U__s_GUID@@A@@@@QAE@XZ 004133f0 f i ado.obj
 0001:00012430       ??4?$_com_ptr_t@V?$_com_IIID@U_Command@ADOCG@@$1?_GUID_b08400bd_f9d1_4d02_b856_71d5dba123e9@@3U__s_GUID@@A@@@@QAEAAV0@H@Z 00413430 f i ado.obj
 0001:00012490       ??1?$_com_ptr_t@V?$_com_IIID@U_Command@ADOCG@@$1?_GUID_b08400bd_f9d1_4d02_b856_71d5dba123e9@@3U__s_GUID@@A@@@@QAE@XZ 00413490 f i ado.obj
 0001:000124e0       ??C?$_com_ptr_t@V?$_com_IIID@U_Command@ADOCG@@$1?_GUID_b08400bd_f9d1_4d02_b856_71d5dba123e9@@3U__s_GUID@@A@@@@QBEPAU_Command@ADOCG@@XZ 004134e0 f i ado.obj
 0001:00012540       ?CreateInstance@?$_com_ptr_t@V?$_com_IIID@U_Command@ADOCG@@$1?_GUID_b08400bd_f9d1_4d02_b856_71d5dba123e9@@3U__s_GUID@@A@@@@QAEJABU_GUID@@PAUIUnknown@@K@Z 00413540 f i ado.obj
 0001:00012680       ??4?$_com_ptr_t@V?$_com_IIID@U_Connection@ADOCG@@$1?_GUID_00000550_0000_0010_8000_00aa006d2ea4@@3U__s_GUID@@A@@@@QAEAAV0@PAU_Connection@ADOCG@@@Z 00413680 f i ado.obj
 0001:00012710       ?_Release@?$_com_ptr_t@V?$_com_IIID@U_Connection@ADOCG@@$1?_GUID_00000550_0000_0010_8000_00aa006d2ea4@@3U__s_GUID@@A@@@@AAEXXZ 00413710 f i ado.obj
 0001:00012780       ?_AddRef@?$_com_ptr_t@V?$_com_IIID@U_Connection@ADOCG@@$1?_GUID_00000550_0000_0010_8000_00aa006d2ea4@@3U__s_GUID@@A@@@@AAEXXZ 00413780 f i ado.obj
 0001:000127f0       ?GetIID@?$_com_ptr_t@V?$_com_IIID@U_Recordset@ADOCG@@$1?_GUID_00000556_0000_0010_8000_00aa006d2ea4@@3U__s_GUID@@A@@@@SAABU_GUID@@XZ 004137f0 f i ado.obj
 0001:00012830       ??4?$_com_ptr_t@V?$_com_IIID@U_Recordset@ADOCG@@$1?_GUID_00000556_0000_0010_8000_00aa006d2ea4@@3U__s_GUID@@A@@@@QAEAAV0@PAU_Recordset@ADOCG@@@Z 00413830 f i ado.obj
 0001:000128c0       ??8?$_com_ptr_t@V?$_com_IIID@U_Recordset@ADOCG@@$1?_GUID_00000556_0000_0010_8000_00aa006d2ea4@@3U__s_GUID@@A@@@@QAE_NH@Z 004138c0 f i ado.obj
 0001:00012920       ?_Release@?$_com_ptr_t@V?$_com_IIID@U_Recordset@ADOCG@@$1?_GUID_00000556_0000_0010_8000_00aa006d2ea4@@3U__s_GUID@@A@@@@AAEXXZ 00413920 f i ado.obj
 0001:00012990       ?_AddRef@?$_com_ptr_t@V?$_com_IIID@U_Recordset@ADOCG@@$1?_GUID_00000556_0000_0010_8000_00aa006d2ea4@@3U__s_GUID@@A@@@@AAEXXZ 00413990 f i ado.obj
 0001:00012a00       ?GetIID@?$_com_ptr_t@V?$_com_IIID@U_Parameter@ADOCG@@$1?_GUID_0000050c_0000_0010_8000_00aa006d2ea4@@3U__s_GUID@@A@@@@SAABU_GUID@@XZ 00413a00 f i ado.obj
 0001:00012a40       ??4?$_com_ptr_t@V?$_com_IIID@U_Parameter@ADOCG@@$1?_GUID_0000050c_0000_0010_8000_00aa006d2ea4@@3U__s_GUID@@A@@@@QAEAAV0@PAU_Parameter@ADOCG@@@Z 00413a40 f i ado.obj
 0001:00012ad0       ?_Release@?$_com_ptr_t@V?$_com_IIID@U_Parameter@ADOCG@@$1?_GUID_0000050c_0000_0010_8000_00aa006d2ea4@@3U__s_GUID@@A@@@@AAEXXZ 00413ad0 f i ado.obj
 0001:00012b40       ?_AddRef@?$_com_ptr_t@V?$_com_IIID@U_Parameter@ADOCG@@$1?_GUID_0000050c_0000_0010_8000_00aa006d2ea4@@3U__s_GUID@@A@@@@AAEXXZ 00413b40 f i ado.obj
 0001:00012bb0       ?_Release@?$_com_ptr_t@V?$_com_IIID@UParameters@ADOCG@@$1?_GUID_0000050d_0000_0010_8000_00aa006d2ea4@@3U__s_GUID@@A@@@@AAEXXZ 00413bb0 f i ado.obj
 0001:00012c20       ?_Release@?$_com_ptr_t@V?$_com_IIID@UFields@ADOCG@@$1?_GUID_00000564_0000_0010_8000_00aa006d2ea4@@3U__s_GUID@@A@@@@AAEXXZ 00413c20 f i ado.obj
 0001:00012c90       ?_Release@?$_com_ptr_t@V?$_com_IIID@UField@ADOCG@@$1?_GUID_00000569_0000_0010_8000_00aa006d2ea4@@3U__s_GUID@@A@@@@AAEXXZ 00413c90 f i ado.obj
 0001:00012d00       ?_AddRef@?$_com_ptr_t@V?$_com_IIID@UField@ADOCG@@$1?_GUID_00000569_0000_0010_8000_00aa006d2ea4@@3U__s_GUID@@A@@@@AAEXXZ 00413d00 f i ado.obj
 0001:00012d70       ?GetIID@?$_com_ptr_t@V?$_com_IIID@U_Command@ADOCG@@$1?_GUID_b08400bd_f9d1_4d02_b856_71d5dba123e9@@3U__s_GUID@@A@@@@SAABU_GUID@@XZ 00413d70 f i ado.obj
 0001:00012db0       ??4?$_com_ptr_t@V?$_com_IIID@U_Command@ADOCG@@$1?_GUID_b08400bd_f9d1_4d02_b856_71d5dba123e9@@3U__s_GUID@@A@@@@QAEAAV0@PAU_Command@ADOCG@@@Z 00413db0 f i ado.obj
 0001:00012e40       ?_Release@?$_com_ptr_t@V?$_com_IIID@U_Command@ADOCG@@$1?_GUID_b08400bd_f9d1_4d02_b856_71d5dba123e9@@3U__s_GUID@@A@@@@AAEXXZ 00413e40 f i ado.obj
 0001:00012eb0       ?_AddRef@?$_com_ptr_t@V?$_com_IIID@U_Command@ADOCG@@$1?_GUID_b08400bd_f9d1_4d02_b856_71d5dba123e9@@3U__s_GUID@@A@@@@AAEXXZ 00413eb0 f i ado.obj
 0001:00012f20       ?GetIID@?$_com_IIID@U_Recordset@ADOCG@@$1?_GUID_00000556_0000_0010_8000_00aa006d2ea4@@3U__s_GUID@@A@@SAABU_GUID@@XZ 00413f20 f i ado.obj
 0001:00012f50       ?GetIID@?$_com_IIID@U_Parameter@ADOCG@@$1?_GUID_0000050c_0000_0010_8000_00aa006d2ea4@@3U__s_GUID@@A@@SAABU_GUID@@XZ 00413f50 f i ado.obj
 0001:00012f80       ?GetIID@?$_com_IIID@U_Command@ADOCG@@$1?_GUID_b08400bd_f9d1_4d02_b856_71d5dba123e9@@3U__s_GUID@@A@@SAABU_GUID@@XZ 00413f80 f i ado.obj
 0001:00012fb0       ??0COleCurrency@@QAE@XZ    00413fb0 f i ado.obj
 0001:00013020       ?SetStatus@COleCurrency@@QAEXW4CurrencyStatus@1@@Z 00414020 f i ado.obj
 0001:00013060       ??0COleDateTime@@QAE@ABUtagVARIANT@@@Z 00414060 f i ado.obj
 0001:000130b0       ??4COleDateTime@@QAEABV0@ABV0@@Z 004140b0 f i ado.obj
 0001:00013110       ?SetStatus@COleDateTime@@QAEXW4DateTimeStatus@1@@Z 00414110 f i ado.obj
 0001:00013150       ??BCOleDateTime@@QBENXZ    00414150 f i ado.obj
 0001:00013190       ??0_bstr_t@@QAE@XZ         00414190 f i ado.obj
 0001:000131d0       ??0_bstr_t@@QAE@ABV0@@Z    004141d0 f i ado.obj
 0001:00013230       ??0_bstr_t@@QAE@PBD@Z      00414230 f i ado.obj
 0001:00013310       ??0_bstr_t@@QAE@PBG@Z      00414310 f i ado.obj
 0001:000133f0       ??1_bstr_t@@QAE@XZ         004143f0 f i ado.obj
 0001:00013440       ??4_bstr_t@@QAEAAV0@ABV0@@Z 00414440 f i ado.obj
 0001:000134a0       ??B_bstr_t@@QBEPBGXZ       004144a0 f i ado.obj
 0001:00013510       ??B_bstr_t@@QBEPAGXZ       00414510 f i ado.obj
 0001:00013580       ??B_bstr_t@@QBEPBDXZ       00414580 f i ado.obj
 0001:000135f0       ?_AddRef@_bstr_t@@AAEXXZ   004145f0 f i ado.obj
 0001:00013640       ?_Free@_bstr_t@@AAEXXZ     00414640 f i ado.obj
 0001:000136a0       ??0Data_t@_bstr_t@@QAE@PBD@Z 004146a0 f i ado.obj
 0001:00013730       ??0Data_t@_bstr_t@@QAE@PBG@Z 00414730 f i ado.obj
 0001:000137d0       ?AddRef@Data_t@_bstr_t@@QAEKXZ 004147d0 f i ado.obj
 0001:00013830       ?Release@Data_t@_bstr_t@@QAEKXZ 00414830 f i ado.obj
 0001:000138d0       ??_GData_t@_bstr_t@@AAEPAXI@Z 004148d0 f i ado.obj
 0001:00013940       ?GetWString@Data_t@_bstr_t@@QBEPBGXZ 00414940 f i ado.obj
 0001:00013980       ?GetString@Data_t@_bstr_t@@QBEPBDXZ 00414980 f i ado.obj
 0001:00013a10       ??1Data_t@_bstr_t@@AAE@XZ  00414a10 f i ado.obj
 0001:00013a60       ?_Free@Data_t@_bstr_t@@AAEXXZ 00414a60 f i ado.obj
 0001:00013af0       ??0_variant_t@@QAE@XZ      00414af0 f i ado.obj
 0001:00013b50       ??0_variant_t@@QAE@ABV0@@Z 00414b50 f i ado.obj
 0001:00013bd0       ?CheckError@_com_util@@YAXJ@Z 00414bd0 f i ado.obj
 0001:00013c20       ??0_variant_t@@QAE@PBG@Z   00414c20 f i ado.obj
 0001:00013cb0       ??0_variant_t@@QAE@PBD@Z   00414cb0 f i ado.obj
 0001:00013d30       ??0_variant_t@@QAE@PAUIDispatch@@_N@Z 00414d30 f i ado.obj
 0001:00013dc0       ??4_variant_t@@QAEAAV0@ABV0@@Z 00414dc0 f i ado.obj
 0001:00013e30       ??1_variant_t@@QAE@XZ      00414e30 f i ado.obj
 0001:00013e90       ?Error@_com_error@@QBEJXZ  00414e90 f i ado.obj
 0001:00013ed0       ?Description@_com_error@@QBE?AV_bstr_t@@XZ 00414ed0 f i ado.obj
 0001:00013f70       ??0_bstr_t@@QAE@PAG_N@Z    00414f70 f i ado.obj
 0001:00014050       ??0Data_t@_bstr_t@@QAE@PAG_N@Z 00415050 f i ado.obj
 0001:00014120       ?Source@_com_error@@QBE?AV_bstr_t@@XZ 00415120 f i ado.obj
 0001:000141c0       ?ErrorMessage@_com_error@@QBEPBGXZ 004151c0 f i ado.obj
 0001:00014390       ?WCode@_com_error@@QBEGXZ  00415390 f i ado.obj
 0001:000143e0       ?HRESULTToWCode@_com_error@@SAGJ@Z 004153e0 f i ado.obj
 0001:00014450       ?Append@_DynaCollection@ADOCG@@QAEJPAUIDispatch@@@Z 00415450 f i ado.obj
 0001:000144d0       ?PutRefActiveConnection@Command15@ADOCG@@QAEXPAU_Connection@2@@Z 004154d0 f i ado.obj
 0001:00014550       ?PutCommandText@Command15@ADOCG@@QAEXV_bstr_t@@@Z 00415550 f i ado.obj
 0001:00014620       ?Execute@Command15@ADOCG@@QAE?AV?$_com_ptr_t@V?$_com_IIID@U_Recordset@ADOCG@@$1?_GUID_00000556_0000_0010_8000_00aa006d2ea4@@3U__s_GUID@@A@@@@PAUtagVARIANT@@0J@Z 00415620 f i ado.obj
 0001:000146e0       ??0?$_com_ptr_t@V?$_com_IIID@U_Recordset@ADOCG@@$1?_GUID_00000556_0000_0010_8000_00aa006d2ea4@@3U__s_GUID@@A@@@@QAE@PAU_Recordset@ADOCG@@_N@Z 004156e0 f i ado.obj
 0001:00014750       ?CreateParameter@Command15@ADOCG@@QAE?AV?$_com_ptr_t@V?$_com_IIID@U_Parameter@ADOCG@@$1?_GUID_0000050c_0000_0010_8000_00aa006d2ea4@@3U__s_GUID@@A@@@@V_bstr_t@@W4DataTypeEnum@2@W4ParameterDirectionEnum@2@JABV_variant_t@@@Z 00415750 f i ado.obj
 0001:000148a0       ??0?$_com_ptr_t@V?$_com_IIID@U_Parameter@ADOCG@@$1?_GUID_0000050c_0000_0010_8000_00aa006d2ea4@@3U__s_GUID@@A@@@@QAE@PAU_Parameter@ADOCG@@_N@Z 004158a0 f i ado.obj
 0001:00014910       ?GetParameters@Command15@ADOCG@@QAE?AV?$_com_ptr_t@V?$_com_IIID@UParameters@ADOCG@@$1?_GUID_0000050d_0000_0010_8000_00aa006d2ea4@@3U__s_GUID@@A@@@@XZ 00415910 f i ado.obj
 0001:000149c0       ??0?$_com_ptr_t@V?$_com_IIID@UParameters@ADOCG@@$1?_GUID_0000050d_0000_0010_8000_00aa006d2ea4@@3U__s_GUID@@A@@@@QAE@PAUParameters@ADOCG@@_N@Z 004159c0 f i ado.obj
 0001:00014a30       ?_AddRef@?$_com_ptr_t@V?$_com_IIID@UParameters@ADOCG@@$1?_GUID_0000050d_0000_0010_8000_00aa006d2ea4@@3U__s_GUID@@A@@@@AAEXXZ 00415a30 f i ado.obj
 0001:00014aa0       ?PutCommandType@Command15@ADOCG@@QAEXW4CommandTypeEnum@2@@Z 00415aa0 f i ado.obj
 0001:00014b20       ?Close@Connection15@ADOCG@@QAEJXZ 00415b20 f i ado.obj
 0001:00014ba0       ?Execute@Connection15@ADOCG@@QAE?AV?$_com_ptr_t@V?$_com_IIID@U_Recordset@ADOCG@@$1?_GUID_00000556_0000_0010_8000_00aa006d2ea4@@3U__s_GUID@@A@@@@V_bstr_t@@PAUtagVARIANT@@J@Z 00415ba0 f i ado.obj
 0001:00014ca0       ?Open@Connection15@ADOCG@@QAEJV_bstr_t@@00J@Z 00415ca0 f i ado.obj
 0001:00014db0       ?PutCursorLocation@Connection15@ADOCG@@QAEXW4CursorLocationEnum@2@@Z 00415db0 f i ado.obj
 0001:00014e30       ?GetState@Connection15@ADOCG@@QAEJXZ 00415e30 f i ado.obj
 0001:00014ec0       ?GetBookmark@Recordset15@ADOCG@@QAE?AV_variant_t@@XZ 00415ec0 f i ado.obj
 0001:00014f80       ??0_variant_t@@QAE@AAUtagVARIANT@@_N@Z 00415f80 f i ado.obj
 0001:00015040       ?PutBookmark@Recordset15@ADOCG@@QAEXABV_variant_t@@@Z 00416040 f i ado.obj
 0001:00015100       ?PutCursorType@Recordset15@ADOCG@@QAEXW4CursorTypeEnum@2@@Z 00416100 f i ado.obj
 0001:00015180       ?GetEndOfFile@Recordset15@ADOCG@@QAEFXZ 00416180 f i ado.obj
 0001:00015200       ?GetFields@Recordset15@ADOCG@@QAE?AV?$_com_ptr_t@V?$_com_IIID@UFields@ADOCG@@$1?_GUID_00000564_0000_0010_8000_00aa006d2ea4@@3U__s_GUID@@A@@@@XZ 00416200 f i ado.obj
 0001:000152b0       ??0?$_com_ptr_t@V?$_com_IIID@UFields@ADOCG@@$1?_GUID_00000564_0000_0010_8000_00aa006d2ea4@@3U__s_GUID@@A@@@@QAE@PAUFields@ADOCG@@_N@Z 004162b0 f i ado.obj
 0001:00015320       ?_AddRef@?$_com_ptr_t@V?$_com_IIID@UFields@ADOCG@@$1?_GUID_00000564_0000_0010_8000_00aa006d2ea4@@3U__s_GUID@@A@@@@AAEXXZ 00416320 f i ado.obj
 0001:00015390       ?GetRecordCount@Recordset15@ADOCG@@QAEJXZ 00416390 f i ado.obj
 0001:00015410       ?AddNew@Recordset15@ADOCG@@QAEJABV_variant_t@@0@Z 00416410 f i ado.obj
 0001:00015520       ?CancelUpdate@Recordset15@ADOCG@@QAEJXZ 00416520 f i ado.obj
 0001:000155a0       ?Close@Recordset15@ADOCG@@QAEJXZ 004165a0 f i ado.obj
 0001:00015620       ?Delete@Recordset15@ADOCG@@QAEJW4AffectEnum@2@@Z 00416620 f i ado.obj
 0001:000156b0       ?MoveNext@Recordset15@ADOCG@@QAEJXZ 004166b0 f i ado.obj
 0001:00015730       ?MoveFirst@Recordset15@ADOCG@@QAEJXZ 00416730 f i ado.obj
 0001:000157b0       ?Open@Recordset15@ADOCG@@QAEJABV_variant_t@@0W4CursorTypeEnum@2@W4LockTypeEnum@2@J@Z 004167b0 f i ado.obj
 0001:000158d0       ?Update@Recordset15@ADOCG@@QAEJABV_variant_t@@0@Z 004168d0 f i ado.obj
 0001:000159e0       ?PutFilter@Recordset15@ADOCG@@QAEXABV_variant_t@@@Z 004169e0 f i ado.obj
 0001:00015aa0       ?PutSort@Recordset15@ADOCG@@QAEXV_bstr_t@@@Z 00416aa0 f i ado.obj
 0001:00015b70       ?GetState@Recordset15@ADOCG@@QAEJXZ 00416b70 f i ado.obj
 0001:00015c00       ?PutCursorLocation@Recordset15@ADOCG@@QAEXW4CursorLocationEnum@2@@Z 00416c00 f i ado.obj
 0001:00015c80       ?Find@Recordset15@ADOCG@@QAEJV_bstr_t@@JW4SearchDirectionEnum@2@ABV_variant_t@@@Z 00416c80 f i ado.obj
 0001:00015db0       ?GetString@Recordset20@ADOCG@@QAE?AV_bstr_t@@W4StringFormatEnum@2@JV3@11@Z 00416db0 f i ado.obj
 0001:00015ef0       ?Clone@Recordset20@ADOCG@@QAE?AV?$_com_ptr_t@V?$_com_IIID@U_Recordset@ADOCG@@$1?_GUID_00000556_0000_0010_8000_00aa006d2ea4@@3U__s_GUID@@A@@@@W4LockTypeEnum@2@@Z 00416ef0 f i ado.obj
 0001:00015fa0       ?Save@_Recordset@ADOCG@@QAEJABV_variant_t@@W4PersistFormatEnum@2@@Z 00416fa0 f i ado.obj
 0001:00016070       ?GetItem@Fields15@ADOCG@@QAE?AV?$_com_ptr_t@V?$_com_IIID@UField@ADOCG@@$1?_GUID_00000569_0000_0010_8000_00aa006d2ea4@@3U__s_GUID@@A@@@@ABV_variant_t@@@Z 00417070 f i ado.obj
 0001:00016160       ??0?$_com_ptr_t@V?$_com_IIID@UField@ADOCG@@$1?_GUID_00000569_0000_0010_8000_00aa006d2ea4@@3U__s_GUID@@A@@@@QAE@PAUField@ADOCG@@_N@Z 00417160 f i ado.obj
 0001:000161d0       ?GetActualSize@Field20@ADOCG@@QAEJXZ 004171d0 f i ado.obj
 0001:00016250       ?GetAttributes@Field20@ADOCG@@QAEJXZ 00417250 f i ado.obj
 0001:000162d0       ?GetDefinedSize@Field20@ADOCG@@QAEJXZ 004172d0 f i ado.obj
 0001:00016350       ?GetName@Field20@ADOCG@@QAE?AV_bstr_t@@XZ 00417350 f i ado.obj
 0001:00016400       ?GetType@Field20@ADOCG@@QAE?AW4DataTypeEnum@2@XZ 00417400 f i ado.obj
 0001:00016480       ?GetValue@Field20@ADOCG@@QAE?AV_variant_t@@XZ 00417480 f i ado.obj
 0001:00016540       ?PutValue@Field20@ADOCG@@QAEXABV_variant_t@@@Z 00417540 f i ado.obj
 0001:00016600       ?AppendChunk@Field20@ADOCG@@QAEJABV_variant_t@@@Z 00417600 f i ado.obj
 0001:000166c0       ?GetChunk@Field20@ADOCG@@QAE?AV_variant_t@@J@Z 004176c0 f i ado.obj
 0001:00016790       ?PutName@_Parameter@ADOCG@@QAEXV_bstr_t@@@Z 00417790 f i ado.obj
 0001:00016860       ?GetValue@_Parameter@ADOCG@@QAE?AV_variant_t@@XZ 00417860 f i ado.obj
 0001:00016920       ?PutValue@_Parameter@ADOCG@@QAEXABV_variant_t@@@Z 00417920 f i ado.obj
 0001:000169e0       ?PutType@_Parameter@ADOCG@@QAEXW4DataTypeEnum@2@@Z 004179e0 f i ado.obj
 0001:00016a60       ?PutDirection@_Parameter@ADOCG@@QAEXW4ParameterDirectionEnum@2@@Z 00417a60 f i ado.obj
 0001:00016ae0       ?PutSize@_Parameter@ADOCG@@QAEXJ@Z 00417ae0 f i ado.obj
 0001:00016b60       ?GetSize@_Parameter@ADOCG@@QAEJXZ 00417b60 f i ado.obj
 0001:00016be0       ?GetActiveConnection@CADODatabase@@QAE?AV?$_com_ptr_t@V?$_com_IIID@U_Connection@ADOCG@@$1?_GUID_00000550_0000_0010_8000_00aa006d2ea4@@3U__s_GUID@@A@@@@XZ 00417be0 f i ado.obj
 0001:00016c50       ?GetConnectionString@CADODatabase@@QAE?AVCString@@XZ 00417c50 f i ado.obj
 0001:00016cc0       ?GetQuery@CADORecordset@@QAE?AVCString@@XZ 00417cc0 f i ado.obj
 0001:00016d30       ?IsEof@CADORecordset@@QAEHXZ 00417d30 f i ado.obj
 0001:00016d90       ?IsBof@CADORecordset@@QAEHXZ 00417d90 f i ado.obj
 0001:00016df0       ?GetBOF@Recordset15@ADOCG@@QAEFXZ 00417df0 f i ado.obj
 0001:00016e70       ?GetParameter@CADOParameter@@QAE?AV?$_com_ptr_t@V?$_com_IIID@U_Parameter@ADOCG@@$1?_GUID_0000050c_0000_0010_8000_00aa006d2ea4@@3U__s_GUID@@A@@@@XZ 00417e70 f i ado.obj
 0001:00016ee0       ??0?$_com_ptr_t@V?$_com_IIID@U_Parameter@ADOCG@@$1?_GUID_0000050c_0000_0010_8000_00aa006d2ea4@@3U__s_GUID@@A@@@@QAE@ABV0@@Z 00417ee0 f i ado.obj
 0001:00016f40       ?GetType@CADOCommand@@QAEHXZ 00417f40 f i ado.obj
 0001:00016f80       ?GetCommand@CADOCommand@@QAE?AV?$_com_ptr_t@V?$_com_IIID@U_Command@ADOCG@@$1?_GUID_b08400bd_f9d1_4d02_b856_71d5dba123e9@@3U__s_GUID@@A@@@@XZ 00417f80 f i ado.obj
 0001:00016ff0       ??0?$_com_ptr_t@V?$_com_IIID@U_Command@ADOCG@@$1?_GUID_b08400bd_f9d1_4d02_b856_71d5dba123e9@@3U__s_GUID@@A@@@@QAE@ABV0@@Z 00417ff0 f i ado.obj
 0001:00017050       ??0CBSTROpt@@QAE@XZ        00418050 f   BSTROpt.obj
 0001:00017090       ??_GCBSTROpt@@UAEPAXI@Z    00418090 f i BSTROpt.obj
 0001:00017090       ??_ECBSTROpt@@UAEPAXI@Z    00418090 f i BSTROpt.obj
 0001:00017100       ??1CBSTROpt@@UAE@XZ        00418100 f   BSTROpt.obj
 0001:00017140       ?BSTRToCString@CBSTROpt@@SA?AVCString@@AAPAG@Z 00418140 f   BSTROpt.obj
 0001:00017210       ?FreeBSTR@CBSTROpt@@SAXAAPAG@Z 00418210 f   BSTROpt.obj
 0001:00017270       ?FreeJobProgressStruct@CBSTROpt@@SAXPAU_tagJobProgressStruct@@@Z 00418270 f   BSTROpt.obj
 0001:000172c0       ?FreeJobDetailStruct@CBSTROpt@@SAXPAU_tagJobDetailStruct@@@Z 004182c0 f   BSTROpt.obj
 0001:00017330       ?FreeBurnPatientInfoStructList@CBSTROpt@@SAXPAU_tagBurnPatientInfoStruct@@H@Z 00418330 f   BSTROpt.obj
 0001:000173a0       ?FreeBurnStudyInfoStructList@CBSTROpt@@SAXPAU_tagBurnStudyInfoStruct@@H@Z 004183a0 f   BSTROpt.obj
 0001:00017410       ?FreeBurnSeriesInfoStructList@CBSTROpt@@SAXPAU_tagBurnSeriesInfoStruct@@H@Z 00418410 f   BSTROpt.obj
 0001:00017480       ?FreeBurnImageInfoStructList@CBSTROpt@@SAXPAU_tagBurnImageInfoStruct@@H@Z 00418480 f   BSTROpt.obj
 0001:000174f0       ?FreeBurnSpeedInfoList@CBSTROpt@@SAXPAU_tagBurnSpeedInfo@@H@Z 004184f0 f   BSTROpt.obj
 0001:00017560       ?FreeBurnPatientInfoStruct@CBSTROpt@@SAXPAU_tagBurnPatientInfoStruct@@@Z 00418560 f   BSTROpt.obj
 0001:000175c0       ?FreeBurnStudyInfoStruct@CBSTROpt@@SAXPAU_tagBurnStudyInfoStruct@@@Z 004185c0 f   BSTROpt.obj
 0001:00017620       ?FreeBurnSeriesInfoStruct@CBSTROpt@@SAXPAU_tagBurnSeriesInfoStruct@@@Z 00418620 f   BSTROpt.obj
 0001:00017680       ?FreeBurnImageInfoStruct@CBSTROpt@@SAXPAU_tagBurnImageInfoStruct@@@Z 00418680 f   BSTROpt.obj
 0001:000176e0       ?FreeBurnSpeedInfo@CBSTROpt@@SAXPAU_tagBurnSpeedInfo@@@Z 004186e0 f   BSTROpt.obj
 0001:00017730       ?FreeBurnMediaInfo@CBSTROpt@@SAXPAU_tagBurnMediaInfo@@@Z 00418730 f   BSTROpt.obj
 0001:00017790       ?FreeDiscImport_SeriesStateStruct@CBSTROpt@@SAXPAU_tagDiscImport_SeriesStateStruct@@@Z 00418790 f   BSTROpt.obj
 0001:00017800       ?FreeDiscImport_SeriesProgressStruct@CBSTROpt@@SAXPAU_tagDiscImport_SeriesProgressStruct@@@Z 00418800 f   BSTROpt.obj
 0001:00017870       ?FreeDiscImport_SeriesDetailStruct@CBSTROpt@@SAXPAU_tagDiscImport_SeriesDetailStruct@@@Z 00418870 f   BSTROpt.obj
 0001:000178e0       ?FreeWorkListStruct@CBSTROpt@@SAXPAU_tagWorkListStruct@@@Z 004188e0 f   BSTROpt.obj
 0001:00017aa0       ?FreeWorkListStructList@CBSTROpt@@SAXPAU_tagWorkListStruct@@H@Z 00418aa0 f   BSTROpt.obj
 0001:00017b10       ?FreeMppsSetResultStruct@CBSTROpt@@SAXPAU_MppsSetResult@@@Z 00418b10 f   BSTROpt.obj
 0001:00017b60       ?FreeConfigInfoStruct@CBSTROpt@@SAXPAUConfigInfoStruct@@@Z 00418b60 f   BSTROpt.obj
 0001:00017c80       ?FreePatientInfoStruct@CBSTROpt@@SAXPAUPatientInfoStruct@@@Z 00418c80 f   BSTROpt.obj
 0001:00017d70       ?FreeStudyInfoStruct@CBSTROpt@@SAXPAUStudyInfoStruct@@@Z 00418d70 f   BSTROpt.obj
 0001:00017e60       ?FreeSeriesInfoStruct@CBSTROpt@@SAXPAUSeriesInfoStruct@@@Z 00418e60 f   BSTROpt.obj
 0001:00017ef0       ?FreeImageInfoStruct@CBSTROpt@@SAXPAUImageInfoStruct@@@Z 00418ef0 f   BSTROpt.obj
 0001:00017fa0       ?FreePostProcessingInfo@CBSTROpt@@SAXPAUPostProcessingInfo@@@Z 00418fa0 f   BSTROpt.obj
 0001:00018010       ?FreePSSIStructList@CBSTROpt@@SAXPAU_tagPSSIInfo@@J@Z 00419010 f   BSTROpt.obj
 0001:00018080       ?FreePSSIStruct@CBSTROpt@@SAXPAU_tagPSSIInfo@@@Z 00419080 f   BSTROpt.obj
 0001:00018110       ?FreePAJob@CBSTROpt@@SAXPAVPAJob@@@Z 00419110 f   BSTROpt.obj
 0001:000182d0       ?size@?$vector@UPatientInfoStruct@@V?$allocator@UPatientInfoStruct@@@std@@@std@@QBEIXZ 004192d0 f i BSTROpt.obj
 0001:00018340       ??A?$vector@UPatientInfoStruct@@V?$allocator@UPatientInfoStruct@@@std@@@std@@QAEAAUPatientInfoStruct@@I@Z 00419340 f i BSTROpt.obj
 0001:00018390       ?size@?$vector@UStudyInfoStruct@@V?$allocator@UStudyInfoStruct@@@std@@@std@@QBEIXZ 00419390 f i BSTROpt.obj
 0001:00018400       ??A?$vector@UStudyInfoStruct@@V?$allocator@UStudyInfoStruct@@@std@@@std@@QAEAAUStudyInfoStruct@@I@Z 00419400 f i BSTROpt.obj
 0001:00018450       ?size@?$vector@USeriesInfoStruct@@V?$allocator@USeriesInfoStruct@@@std@@@std@@QBEIXZ 00419450 f i BSTROpt.obj
 0001:000184c0       ??A?$vector@USeriesInfoStruct@@V?$allocator@USeriesInfoStruct@@@std@@@std@@QAEAAUSeriesInfoStruct@@I@Z 004194c0 f i BSTROpt.obj
 0001:00018510       ?size@?$vector@UImageInfoStruct@@V?$allocator@UImageInfoStruct@@@std@@@std@@QBEIXZ 00419510 f i BSTROpt.obj
 0001:00018580       ??A?$vector@UImageInfoStruct@@V?$allocator@UImageInfoStruct@@@std@@@std@@QAEAAUImageInfoStruct@@I@Z 00419580 f i BSTROpt.obj
 0001:000185e0       ?size@?$vector@UPostProcessingInfo@@V?$allocator@UPostProcessingInfo@@@std@@@std@@QBEIXZ 004195e0 f i BSTROpt.obj
 0001:00018650       ??A?$vector@UPostProcessingInfo@@V?$allocator@UPostProcessingInfo@@@std@@@std@@QAEAAUPostProcessingInfo@@I@Z 00419650 f i BSTROpt.obj
 0001:000186b0       ?begin@?$vector@UPatientInfoStruct@@V?$allocator@UPatientInfoStruct@@@std@@@std@@QAEPAUPatientInfoStruct@@XZ 004196b0 f i BSTROpt.obj
 0001:000186f0       ?begin@?$vector@UStudyInfoStruct@@V?$allocator@UStudyInfoStruct@@@std@@@std@@QAEPAUStudyInfoStruct@@XZ 004196f0 f i BSTROpt.obj
 0001:00018730       ?begin@?$vector@USeriesInfoStruct@@V?$allocator@USeriesInfoStruct@@@std@@@std@@QAEPAUSeriesInfoStruct@@XZ 00419730 f i BSTROpt.obj
 0001:00018770       ?begin@?$vector@UImageInfoStruct@@V?$allocator@UImageInfoStruct@@@std@@@std@@QAEPAUImageInfoStruct@@XZ 00419770 f i BSTROpt.obj
 0001:000187b0       ?begin@?$vector@UPostProcessingInfo@@V?$allocator@UPostProcessingInfo@@@std@@@std@@QAEPAUPostProcessingInfo@@XZ 004197b0 f i BSTROpt.obj
 0001:000187f0       ??0CBuffer@@QAE@XZ         004197f0 f   Buffer.obj
 0001:00018860       ??_GCBuffer@@UAEPAXI@Z     00419860 f i Buffer.obj
 0001:00018860       ??_ECBuffer@@UAEPAXI@Z     00419860 f i Buffer.obj
 0001:000188d0       ??1CBuffer@@UAE@XZ         004198d0 f   Buffer.obj
 0001:00018920       ??0CBuffer@@QAE@K@Z        00419920 f   Buffer.obj
 0001:000189a0       ?SetSize@CBuffer@@QAEHK@Z  004199a0 f   Buffer.obj
 0001:00018a30       ?ReleaseBuffer@CBuffer@@QAEHXZ 00419a30 f   Buffer.obj
 0001:00018ac0       ?GetBuffer@CBuffer@@QAEPAEXZ 00419ac0 f   Buffer.obj
 0001:00018b00       ?GetSize@CBuffer@@QAEKXZ   00419b00 f   Buffer.obj
 0001:00018b40       ?GetValidSize@CBuffer@@QAEKXZ 00419b40 f   Buffer.obj
 0001:00018c10       ?GetInstance@CSystemEventProxy@@SAPAV1@XZ 00419c10 f i Burner.obj
 0001:00018c90       ?_inst@?1??GetInstance@CSystemEventProxy@@SAPAV1@XZ@$AV1@A 00419c90 f i Burner.obj
 0001:00018cd0       ??0CExpPatientOK@@QAE@PAVCSystemEventProxy@@I@Z 00419cd0 f i Burner.obj
 0001:00018db0       ??0CExpImageOK@@QAE@PAVCSystemEventProxy@@I@Z 00419db0 f i Burner.obj
 0001:00018e90       ??0CSendPatientOK@@QAE@PAVCSystemEventProxy@@I@Z 00419e90 f i Burner.obj
 0001:00018f70       ??0CSendPatientFailed@@QAE@PAVCSystemEventProxy@@I@Z 00419f70 f i Burner.obj
 0001:00019050       ??0CSendImageSCOK@@QAE@PAVCSystemEventProxy@@I@Z 0041a050 f i Burner.obj
 0001:00019130       ??0CSendImageSCFailed@@QAE@PAVCSystemEventProxy@@I@Z 0041a130 f i Burner.obj
 0001:00019210       ??0CSendImageOLOK@@QAE@PAVCSystemEventProxy@@I@Z 0041a210 f i Burner.obj
 0001:000192f0       ??0CSendImageOLFailed@@QAE@PAVCSystemEventProxy@@I@Z 0041a2f0 f i Burner.obj
 0001:000193d0       ??0CSendImageProOK@@QAE@PAVCSystemEventProxy@@I@Z 0041a3d0 f i Burner.obj
 0001:000194b0       ??0CSendImageProFailed@@QAE@PAVCSystemEventProxy@@I@Z 0041a4b0 f i Burner.obj
 0001:00019590       ??0CSendImageRawOK@@QAE@PAVCSystemEventProxy@@I@Z 0041a590 f i Burner.obj
 0001:00019670       ??0CSendImageRawFailed@@QAE@PAVCSystemEventProxy@@I@Z 0041a670 f i Burner.obj
 0001:000196c0       ?MessageHandler@@YGXIJI@Z  0041a6c0 f   Burner.obj
 0001:000197a0       ?GetPreBurnJobThreadProc@@YGKPAX@Z 0041a7a0 f   Burner.obj
 0001:000198d0       ??0CBurner@@AAE@XZ         0041a8d0 f   Burner.obj
 0001:00019a70       ??_ECBurner@@UAEPAXI@Z     0041aa70 f i Burner.obj
 0001:00019a70       ??_GCBurner@@UAEPAXI@Z     0041aa70 f i Burner.obj
 0001:00019ae0       ??1CBurner@@UAE@XZ         0041aae0 f   Burner.obj
 0001:00019c30       ?GetInstance@CBurner@@SAPAV1@XZ 0041ac30 f   Burner.obj
 0001:00019d00       ?ReleaseInstance@CBurner@@QAEXXZ 0041ad00 f   Burner.obj
 0001:00019da0       ?Init@CBurner@@QAEHXZ      0041ada0 f   Burner.obj
 0001:0001a110       ?SetSubModuleState@CBurner@@QAEXW4_SubModuleState@@@Z 0041b110 f   Burner.obj
 0001:0001a3c0       ?GetSubModuleState@CBurner@@QAE?AW4_SubModuleState@@XZ 0041b3c0 f   Burner.obj
 0001:0001a400       ?CreateJob@CBurner@@QAEHPAU_tagBurnJobSettingsByPA@@@Z 0041b400 f   Burner.obj
 0001:0001a8c0       ??_GPAJob@@QAEPAXI@Z       0041b8c0 f i Burner.obj
 0001:0001a930       ??0_TagJobDetail@@QAE@XZ   0041b930 f i Burner.obj
 0001:0001a980       ??1_TagJobDetail@@QAE@XZ   0041b980 f i Burner.obj
 0001:0001a9d0       ?HandleMessage@CBurner@@MAEJPAVNSubject@@IJI@Z 0041b9d0 f   Burner.obj
 0001:0001aab0       ?HandleMessageFromDVDBurner@CBurner@@QAEXIJI@Z 0041bab0 f   Burner.obj
 0001:0001bad0       ?BurnPrepare@CBurner@@QAEHPAV?$vector@VCString@@V?$allocator@VCString@@@std@@@std@@W4_PatientAdminUIDType@@@Z 0041cad0 f   Burner.obj
 0001:0001bc00       ?CancelBurnPrepare@CBurner@@QAEHXZ 0041cc00 f   Burner.obj
 0001:0001bc60       ?GetPreBurnJob@CBurner@@QAEHXZ 0041cc60 f   Burner.obj
 0001:0001d1e0       ?Compare@CString@@QBEHPBG@Z 0041e1e0 f i Burner.obj
 0001:0001d240       ?GetAt@CString@@QBEGH@Z    0041e240 f i Burner.obj
 0001:0001d280       ?AttachDcmPartner@CBurner@@QAEXPAVCDcmPartner@@@Z 0041e280 f   Burner.obj
 0001:0001d2f0       ?DetachDcmPartner@CBurner@@QAEXPAVCDcmPartner@@@Z 0041e2f0 f   Burner.obj
 0001:0001d350       ?HandleJob@CBurner@@QAEHPAVPAJob@@@Z 0041e350 f   Burner.obj
 0001:0001ded0       ??ECExpPatientOK@@QAEAAU0@H@Z 0041eed0 f i Burner.obj
 0001:0001dff0       ?postug@CExpPatientOK@@QAEXXZ 0041eff0 f i Burner.obj
 0001:0001e020       ?GetName@ASBasisGetFunctionName@?1??HandleJob@CBurner@@QAEHPAVPAJob@@@Z@QAEXXZ 0041f020 f   Burner.obj
 0001:0001e050       ?AbortBurnWork@CBurner@@QAEHXZ 0041f050 f   Burner.obj
 0001:0001e120       ?GetEstimatedSize@CBurner@@QAEHHHPAK@Z 0041f120 f   Burner.obj
 0001:0001e280       ?EnableCheckDevice@CBurner@@QAEXH@Z 0041f280 f   Burner.obj
 0001:0001e2b0       ?SetBurnMediaCheckRetry@CBurner@@QAEXH@Z 0041f2b0 f   Burner.obj
 0001:0001e2e0       ?GetDevices@CBurner@@QAEHPAPAPAGPAJ@Z 0041f2e0 f   Burner.obj
 0001:0001e4c0       ?GetDeviceDiscInfo@CBurner@@QAEHXZ 0041f4c0 f   Burner.obj
 0001:0001e580       ?SetDevice@CBurner@@QAEHPBG@Z 0041f580 f   Burner.obj
 0001:0001e620       ?UnInit@CBurner@@QAEHXZ    0041f620 f   Burner.obj
 0001:0001e700       ?NotifyUG@CBurner@@QAEXJW4UserGuidanceType@@W4UserGuidancePriority@@H@Z 0041f700 f   Burner.obj
 0001:0001e7b0       ?SetCurrentJobProgress@CBurner@@AAEXW4_JobProgressUsing@@II@Z 0041f7b0 f   Burner.obj
 0001:0001e820       ?SetCurrentJobDetail@CBurner@@AAEXW4_JobDetailUsing@@JPBG@Z 0041f820 f   Burner.obj
 0001:0001e920       ?SetCurrentJobDetailOriginal@CBurner@@AAEXPBG@Z 0041f920 f   Burner.obj
 0001:0001e980       ?SetBurnContent@CBurner@@AAEHXZ 0041f980 f   Burner.obj
 0001:0001f0c0       ?GetVolumeLabel@CBurner@@AAE?AVCString@@PBG@Z 004200c0 f   Burner.obj
 0001:0001f180       ?push_back@?$vector@U_TagJobDetail@@V?$allocator@U_TagJobDetail@@@std@@@std@@QAEXABU_TagJobDetail@@@Z 00420180 f i Burner.obj
 0001:0001f1e0       ?clear@?$vector@U_TagJobDetail@@V?$allocator@U_TagJobDetail@@@std@@@std@@QAEXXZ 004201e0 f i Burner.obj
 0001:0001f240       ??0?$vector@VCString@@V?$allocator@VCString@@@std@@@std@@QAE@ABV?$allocator@VCString@@@1@@Z 00420240 f i Burner.obj
 0001:0001f2b0       ??1?$vector@VCString@@V?$allocator@VCString@@@std@@@std@@QAE@XZ 004202b0 f i Burner.obj
 0001:0001f360       ??4?$vector@VCString@@V?$allocator@VCString@@@std@@@std@@QAEAAV01@ABV01@@Z 00420360 f i Burner.obj
 0001:0001f580       ?size@?$vector@VCString@@V?$allocator@VCString@@@std@@@std@@QBEIXZ 00420580 f i Burner.obj
 0001:0001f5e0       ??0?$vector@PAGV?$allocator@PAG@std@@@std@@QAE@ABV?$allocator@PAG@1@@Z 004205e0 f i Burner.obj
 0001:0001f650       ??1?$vector@PAGV?$allocator@PAG@std@@@std@@QAE@XZ 00420650 f i Burner.obj
 0001:0001f700       ?size@?$vector@PAGV?$allocator@PAG@std@@@std@@QBEIXZ 00420700 f i Burner.obj
 0001:0001f760       ??A?$vector@PAGV?$allocator@PAG@std@@@std@@QAEAAPAGI@Z 00420760 f i Burner.obj
 0001:0001f7b0       ?allocate@?$allocator@VCString@@@std@@QAEPAVCString@@IPBX@Z 004207b0 f i Burner.obj
 0001:0001f800       ?deallocate@?$allocator@VCString@@@std@@QAEXPAXI@Z 00420800 f i Burner.obj
 0001:0001f850       ?begin@?$vector@U_TagJobDetail@@V?$allocator@U_TagJobDetail@@@std@@@std@@QAEPAU_TagJobDetail@@XZ 00420850 f i Burner.obj
 0001:0001f890       ?end@?$vector@U_TagJobDetail@@V?$allocator@U_TagJobDetail@@@std@@@std@@QAEPAU_TagJobDetail@@XZ 00420890 f i Burner.obj
 0001:0001f8d0       ?insert@?$vector@U_TagJobDetail@@V?$allocator@U_TagJobDetail@@@std@@@std@@QAEPAU_TagJobDetail@@PAU3@ABU3@@Z 004208d0 f i Burner.obj
 0001:0001f960       ?erase@?$vector@U_TagJobDetail@@V?$allocator@U_TagJobDetail@@@std@@@std@@QAEPAU_TagJobDetail@@PAU3@0@Z 00420960 f i Burner.obj
 0001:0001f9f0       ?capacity@?$vector@VCString@@V?$allocator@VCString@@@std@@@std@@QBEIXZ 004209f0 f i Burner.obj
 0001:0001fa50       ?begin@?$vector@VCString@@V?$allocator@VCString@@@std@@@std@@QBEPBVCString@@XZ 00420a50 f i Burner.obj
 0001:0001fa90       ?end@?$vector@VCString@@V?$allocator@VCString@@@std@@@std@@QBEPBVCString@@XZ 00420a90 f i Burner.obj
 0001:0001fad0       ?_Destroy@?$vector@VCString@@V?$allocator@VCString@@@std@@@std@@IAEXPAVCString@@0@Z 00420ad0 f i Burner.obj
 0001:0001fb40       ?_Ucopy@?$vector@VCString@@V?$allocator@VCString@@@std@@@std@@IAEPAVCString@@PBV3@0PAV3@@Z 00420b40 f i Burner.obj
 0001:0001fbc0       ?begin@?$vector@PAGV?$allocator@PAG@std@@@std@@QAEPAPAGXZ 00420bc0 f i Burner.obj
 0001:0001fc00       ?_Destroy@?$vector@PAGV?$allocator@PAG@std@@@std@@IAEXPAPAG0@Z 00420c00 f i Burner.obj
 0001:0001fc70       ?deallocate@?$allocator@PAG@std@@QAEXPAXI@Z 00420c70 f i Burner.obj
 0001:0001fcc0       ?construct@?$allocator@VCString@@@std@@QAEXPAVCString@@ABV3@@Z 00420cc0 f i Burner.obj
 0001:0001fd10       ?destroy@?$allocator@VCString@@@std@@QAEXPAVCString@@@Z 00420d10 f i Burner.obj
 0001:0001fd60       ?insert@?$vector@U_TagJobDetail@@V?$allocator@U_TagJobDetail@@@std@@@std@@QAEXPAU_TagJobDetail@@IABU3@@Z 00420d60 f i Burner.obj
 0001:00020060       ?_Destroy@?$vector@U_TagJobDetail@@V?$allocator@U_TagJobDetail@@@std@@@std@@IAEXPAU_TagJobDetail@@0@Z 00421060 f i Burner.obj
 0001:000200d0       ?destroy@?$allocator@PAG@std@@QAEXPAPAG@Z 004210d0 f i Burner.obj
 0001:00020120       ?size@?$vector@U_TagJobDetail@@V?$allocator@U_TagJobDetail@@@std@@@std@@QBEIXZ 00421120 f i Burner.obj
 0001:00020190       ?_Ucopy@?$vector@U_TagJobDetail@@V?$allocator@U_TagJobDetail@@@std@@@std@@IAEPAU_TagJobDetail@@PBU3@0PAU3@@Z 00421190 f i Burner.obj
 0001:00020210       ?_Ufill@?$vector@U_TagJobDetail@@V?$allocator@U_TagJobDetail@@@std@@@std@@IAEXPAU_TagJobDetail@@IABU3@@Z 00421210 f i Burner.obj
 0001:00020290       ?allocate@?$allocator@U_TagJobDetail@@@std@@QAEPAU_TagJobDetail@@IPBX@Z 00421290 f i Burner.obj
 0001:000202e0       ?deallocate@?$allocator@U_TagJobDetail@@@std@@QAEXPAXI@Z 004212e0 f i Burner.obj
 0001:00020330       ?destroy@?$allocator@U_TagJobDetail@@@std@@QAEXPAU_TagJobDetail@@@Z 00421330 f i Burner.obj
 0001:00020380       ?construct@?$allocator@U_TagJobDetail@@@std@@QAEXPAU_TagJobDetail@@ABU3@@Z 00421380 f i Burner.obj
 0001:000203d0       ?copy@std@@YAPAVCString@@PBV2@0PAV2@@Z 004213d0 f i Burner.obj
 0001:00020440       ?_Allocate@std@@YAPAVCString@@HPAV2@@Z 00421440 f i Burner.obj
 0001:000204a0       ?copy@std@@YAPAU_TagJobDetail@@PAU2@00@Z 004214a0 f i Burner.obj
 0001:00020510       ?_Construct@std@@YAXPAVCString@@ABV2@@Z 00421510 f i Burner.obj
 0001:000205c0       ??2@YAPAXIPAX@Z            004215c0 f i Burner.obj
 0001:000205f0       ??3@YAXPAX0@Z              004215f0 f i Burner.obj
 0001:00020620       ?_Destroy@std@@YAXPAVCString@@@Z 00421620 f i Burner.obj
 0001:00020660       ?fill@std@@YAXPAU_TagJobDetail@@0ABU2@@Z 00421660 f i Burner.obj
 0001:000206c0       ?copy_backward@std@@YAPAU_TagJobDetail@@PAU2@00@Z 004216c0 f i Burner.obj
 0001:00020730       ?_Destroy@std@@YAXPAPAG@Z  00421730 f i Burner.obj
 0001:00020760       ?_Allocate@std@@YAPAU_TagJobDetail@@HPAU2@@Z 00421760 f i Burner.obj
 0001:000207c0       ?_Destroy@std@@YAXPAU_TagJobDetail@@@Z 004217c0 f i Burner.obj
 0001:00020800       ?_Construct@std@@YAXPAU_TagJobDetail@@ABU2@@Z 00421800 f i Burner.obj
 0001:000208b0       ??4_TagJobDetail@@QAEAAU0@ABU0@@Z 004218b0 f i Burner.obj
 0001:00020930       ??_GCString@@QAEPAXI@Z     00421930 f i Burner.obj
 0001:000209a0       ??_G_TagJobDetail@@QAEPAXI@Z 004219a0 f i Burner.obj
 0001:00020a10       ??0_TagJobDetail@@QAE@ABU0@@Z 00421a10 f i Burner.obj
 0001:00020a90       ??0CDBController@@AAE@XZ   00421a90 f   DBController.obj
 0001:00020b90       ??_ECDBController@@UAEPAXI@Z 00421b90 f i DBController.obj
 0001:00020b90       ??_GCDBController@@UAEPAXI@Z 00421b90 f i DBController.obj
 0001:00020c00       ??1CDBController@@UAE@XZ   00421c00 f   DBController.obj
 0001:00020ca0       ?GetInstance@CDBController@@SAPAV1@XZ 00421ca0 f   DBController.obj
 0001:00020d60       ?ReleaseInstance@CDBController@@QAEXXZ 00421d60 f   DBController.obj
 0001:00020e00       ?Init@CDBController@@QAEHXZ 00421e00 f   DBController.obj
 0001:00021370       ?GetName@ASBasisGetFunctionName@?1??Init@CDBController@@QAEHXZ@QAEXXZ 00422370 f   DBController.obj
 0001:000213a0       ?UnInit@CDBController@@QAEHXZ 004223a0 f   DBController.obj
 0001:00021550       ?DisableGetJobInfo@CDBController@@QAEXXZ 00422550 f   DBController.obj
 0001:00021590       ?GetConfigInfo@CDBController@@QAEPAUConfigInfoStruct@@XZ 00422590 f   DBController.obj
 0001:00021790       ?IsPatientUIDExistsInDB@CDBController@@QAEHPBGPAH@Z 00422790 f   DBController.obj
 0001:000218a0       ?IsPatientIDExistsInDB@CDBController@@QAEHPBGPAH@Z 004228a0 f   DBController.obj
 0001:000219b0       ?IsStudyUIDExistsInDB@CDBController@@QAEHPBGPAH@Z 004229b0 f   DBController.obj
 0001:00021ac0       ?IsSeriesUIDExistsInDB@CDBController@@QAEHPBGPAH@Z 00422ac0 f   DBController.obj
 0001:00021bd0       ?IsImageUIDExistsInDB@CDBController@@QAEHPBGPAH@Z 00422bd0 f   DBController.obj
 0001:00021ce0       ?SetDBWorkState@CDBController@@QAEXW4_WORKSTATE@@@Z 00422ce0 f   DBController.obj
 0001:00021d20       ?GetJobImageInfoByUIDs@CDBController@@QAEHPAV?$vector@VCString@@V?$allocator@VCString@@@std@@@std@@W4_PatientAdminUIDType@@PAVPAJob@@@Z 00422d20 f   DBController.obj
 0001:00023450       ?AddJobImageInfoByPatientUID@CDBController@@AAEHPBG@Z 00424450 f   DBController.obj
 0001:000237c0       ?AddJobImageInfoByStudyUID@CDBController@@AAEHPBG@Z 004247c0 f   DBController.obj
 0001:00023b30       ?AddJobImageInfoBySeriesUID@CDBController@@AAEHPBG@Z 00424b30 f   DBController.obj
 0001:00023e80       ?AddJobImageInfoByImageUID@CDBController@@AAEHPBG@Z 00424e80 f   DBController.obj
 0001:00024020       ?GetSereisInfoStruct@CDBController@@AAEPAUSeriesInfoStruct@@PBGPAV?$vector@USeriesInfoStruct@@V?$allocator@USeriesInfoStruct@@@std@@@std@@@Z 00425020 f   DBController.obj
 0001:00024130       ?IsImageUIDExisted@CDBController@@AAEHPAV?$vector@UImageInfoStruct@@V?$allocator@UImageInfoStruct@@@std@@@std@@PBG@Z 00425130 f   DBController.obj
 0001:00024170       ?IsSeriesUIDExisted@CDBController@@AAEHPAV?$vector@USeriesInfoStruct@@V?$allocator@USeriesInfoStruct@@@std@@@std@@PBG@Z 00425170 f   DBController.obj
 0001:00024310       ?IsStudyUIDExisted@CDBController@@AAEHPAV?$vector@UStudyInfoStruct@@V?$allocator@UStudyInfoStruct@@@std@@@std@@PBG@Z 00425310 f   DBController.obj
 0001:000244b0       ?IsPatientUIDExisted@CDBController@@AAEHPAV?$vector@UPatientInfoStruct@@V?$allocator@UPatientInfoStruct@@@std@@@std@@PBG@Z 004254b0 f   DBController.obj
 0001:00024650       ?IsGetJobInfoEnabled@CDBController@@AAEHXZ 00425650 f   DBController.obj
 0001:000246d0       ?GetPatientInfo@CDBController@@QAEHPBGPAUPatientInfoStruct@@@Z 004256d0 f   DBController.obj
 0001:000247e0       ?GetPatientInfoByID@CDBController@@QAEHPBGPAUPatientInfoStruct@@@Z 004257e0 f   DBController.obj
 0001:000248f0       ?GetStudyInfo@CDBController@@QAEHPBGPAUStudyInfoStruct@@@Z 004258f0 f   DBController.obj
 0001:00024a00       ?GetSeriesInfo@CDBController@@QAEHPBGPAUSeriesInfoStruct@@@Z 00425a00 f   DBController.obj
 0001:00024b10       ?GetPostProcessInfo@CDBController@@QAEHPBGPAUPostProcessingInfo@@@Z 00425b10 f   DBController.obj
 0001:00024c20       ?IsStudyInstanceUIDExists@CDBController@@QAEHPBGPAH@Z 00425c20 f   DBController.obj
 0001:00024d30       ?GetStudyUIDByInstanceUID@CDBController@@QAEHPBGAAVCString@@@Z 00425d30 f   DBController.obj
 0001:00024e90       ?GetMPPSStatusByStudyInstanceUID@CDBController@@QAEHPBGPAW4_WorkListStatus@@@Z 00425e90 f   DBController.obj
 0001:00025180       ?AddPatientRecordToDB@CDBController@@QAEHPAUPatientInfoStruct@@@Z 00426180 f   DBController.obj
 0001:00025220       ?AddStudyRecordToDB@CDBController@@QAEHPAUStudyInfoStruct@@@Z 00426220 f   DBController.obj
 0001:000252c0       ?AddSeriesRecordToDB@CDBController@@QAEHPAUSeriesInfoStruct@@@Z 004262c0 f   DBController.obj
 0001:00025360       ?AddImageRecordToDB@CDBController@@QAEHPAUImageInfoStruct@@@Z 00426360 f   DBController.obj
 0001:00025400       ?SetPostProcessingInfo@CDBController@@QAEHPAUPostProcessingInfo@@@Z 00426400 f   DBController.obj
 0001:000254a0       ?DeletePatientRecordFromDB@CDBController@@QAEHPBG@Z 004264a0 f   DBController.obj
 0001:000255a0       ?DeleteStudyRecordFromDB@CDBController@@QAEHPBG@Z 004265a0 f   DBController.obj
 0001:000256a0       ?DeleteSeriesRecordFromDB@CDBController@@QAEHPBG@Z 004266a0 f   DBController.obj
 0001:000257b0       ?DeleteImageRecordFromDB@CDBController@@QAEHPBG@Z 004267b0 f   DBController.obj
 0001:000258c0       ?ModifyStudyInfo@CDBController@@QAEHPAUStudyInfoStruct@@@Z 004268c0 f   DBController.obj
 0001:00025a50       ?ModifyPatientInfo@CDBController@@QAEHPAUPatientInfoStruct@@@Z 00426a50 f   DBController.obj
 0001:00025be0       ?GetCurrentStudyUID@CDBController@@QAEHAAVCString@@@Z 00426be0 f   DBController.obj
 0001:00025d70       ?GetNextSeriesIDInStudy@CDBController@@QAEHPBGPAH@Z 00426d70 f   DBController.obj
 0001:00025e80       ?UpdatePatientID@CDBController@@QAEHAAVCString@@@Z 00426e80 f   DBController.obj
 0001:00026050       ?SetStudyMPPSStatus@CDBController@@QAEHPBGW4_MPPS_STATE@@@Z 00427050 f   DBController.obj
 0001:000261e0       ?push_back@?$vector@UPatientInfoStruct@@V?$allocator@UPatientInfoStruct@@@std@@@std@@QAEXABUPatientInfoStruct@@@Z 004271e0 f i DBController.obj
 0001:00026240       ?push_back@?$vector@UStudyInfoStruct@@V?$allocator@UStudyInfoStruct@@@std@@@std@@QAEXABUStudyInfoStruct@@@Z 00427240 f i DBController.obj
 0001:000262a0       ?push_back@?$vector@USeriesInfoStruct@@V?$allocator@USeriesInfoStruct@@@std@@@std@@QAEXABUSeriesInfoStruct@@@Z 004272a0 f i DBController.obj
 0001:00026300       ?push_back@?$vector@UImageInfoStruct@@V?$allocator@UImageInfoStruct@@@std@@@std@@QAEXABUImageInfoStruct@@@Z 00427300 f i DBController.obj
 0001:00026360       ?push_back@?$vector@UPostProcessingInfo@@V?$allocator@UPostProcessingInfo@@@std@@@std@@QAEXABUPostProcessingInfo@@@Z 00427360 f i DBController.obj
 0001:000263c0       ??A?$vector@VCString@@V?$allocator@VCString@@@std@@@std@@QAEAAVCString@@I@Z 004273c0 f i DBController.obj
 0001:00026410       ?end@?$vector@UPatientInfoStruct@@V?$allocator@UPatientInfoStruct@@@std@@@std@@QAEPAUPatientInfoStruct@@XZ 00427410 f i DBController.obj
 0001:00026450       ?insert@?$vector@UPatientInfoStruct@@V?$allocator@UPatientInfoStruct@@@std@@@std@@QAEPAUPatientInfoStruct@@PAU3@ABU3@@Z 00427450 f i DBController.obj
 0001:000264e0       ?end@?$vector@UStudyInfoStruct@@V?$allocator@UStudyInfoStruct@@@std@@@std@@QAEPAUStudyInfoStruct@@XZ 004274e0 f i DBController.obj
 0001:00026520       ?insert@?$vector@UStudyInfoStruct@@V?$allocator@UStudyInfoStruct@@@std@@@std@@QAEPAUStudyInfoStruct@@PAU3@ABU3@@Z 00427520 f i DBController.obj
 0001:000265b0       ?end@?$vector@USeriesInfoStruct@@V?$allocator@USeriesInfoStruct@@@std@@@std@@QAEPAUSeriesInfoStruct@@XZ 004275b0 f i DBController.obj
 0001:000265f0       ?insert@?$vector@USeriesInfoStruct@@V?$allocator@USeriesInfoStruct@@@std@@@std@@QAEPAUSeriesInfoStruct@@PAU3@ABU3@@Z 004275f0 f i DBController.obj
 0001:00026680       ?end@?$vector@UImageInfoStruct@@V?$allocator@UImageInfoStruct@@@std@@@std@@QAEPAUImageInfoStruct@@XZ 00427680 f i DBController.obj
 0001:000266c0       ?insert@?$vector@UImageInfoStruct@@V?$allocator@UImageInfoStruct@@@std@@@std@@QAEPAUImageInfoStruct@@PAU3@ABU3@@Z 004276c0 f i DBController.obj
 0001:00026750       ?end@?$vector@UPostProcessingInfo@@V?$allocator@UPostProcessingInfo@@@std@@@std@@QAEPAUPostProcessingInfo@@XZ 00427750 f i DBController.obj
 0001:00026790       ?insert@?$vector@UPostProcessingInfo@@V?$allocator@UPostProcessingInfo@@@std@@@std@@QAEPAUPostProcessingInfo@@PAU3@ABU3@@Z 00427790 f i DBController.obj
 0001:00026820       ?begin@?$vector@VCString@@V?$allocator@VCString@@@std@@@std@@QAEPAVCString@@XZ 00427820 f i DBController.obj
 0001:00026860       ?insert@?$vector@UPatientInfoStruct@@V?$allocator@UPatientInfoStruct@@@std@@@std@@QAEXPAUPatientInfoStruct@@IABU3@@Z 00427860 f i DBController.obj
 0001:00026b60       ?insert@?$vector@UStudyInfoStruct@@V?$allocator@UStudyInfoStruct@@@std@@@std@@QAEXPAUStudyInfoStruct@@IABU3@@Z 00427b60 f i DBController.obj
 0001:00026e60       ?insert@?$vector@USeriesInfoStruct@@V?$allocator@USeriesInfoStruct@@@std@@@std@@QAEXPAUSeriesInfoStruct@@IABU3@@Z 00427e60 f i DBController.obj
 0001:00027160       ?insert@?$vector@UImageInfoStruct@@V?$allocator@UImageInfoStruct@@@std@@@std@@QAEXPAUImageInfoStruct@@IABU3@@Z 00428160 f i DBController.obj
 0001:00027480       ?insert@?$vector@UPostProcessingInfo@@V?$allocator@UPostProcessingInfo@@@std@@@std@@QAEXPAUPostProcessingInfo@@IABU3@@Z 00428480 f i DBController.obj
 0001:000277a0       ?_Destroy@?$vector@UPatientInfoStruct@@V?$allocator@UPatientInfoStruct@@@std@@@std@@IAEXPAUPatientInfoStruct@@0@Z 004287a0 f i DBController.obj
 0001:00027810       ?_Ucopy@?$vector@UPatientInfoStruct@@V?$allocator@UPatientInfoStruct@@@std@@@std@@IAEPAUPatientInfoStruct@@PBU3@0PAU3@@Z 00428810 f i DBController.obj
 0001:00027890       ?_Ufill@?$vector@UPatientInfoStruct@@V?$allocator@UPatientInfoStruct@@@std@@@std@@IAEXPAUPatientInfoStruct@@IABU3@@Z 00428890 f i DBController.obj
 0001:00027910       ?allocate@?$allocator@UPatientInfoStruct@@@std@@QAEPAUPatientInfoStruct@@IPBX@Z 00428910 f i DBController.obj
 0001:00027960       ?deallocate@?$allocator@UPatientInfoStruct@@@std@@QAEXPAXI@Z 00428960 f i DBController.obj
 0001:000279b0       ?_Destroy@?$vector@UStudyInfoStruct@@V?$allocator@UStudyInfoStruct@@@std@@@std@@IAEXPAUStudyInfoStruct@@0@Z 004289b0 f i DBController.obj
 0001:00027a20       ?_Ucopy@?$vector@UStudyInfoStruct@@V?$allocator@UStudyInfoStruct@@@std@@@std@@IAEPAUStudyInfoStruct@@PBU3@0PAU3@@Z 00428a20 f i DBController.obj
 0001:00027aa0       ?_Ufill@?$vector@UStudyInfoStruct@@V?$allocator@UStudyInfoStruct@@@std@@@std@@IAEXPAUStudyInfoStruct@@IABU3@@Z 00428aa0 f i DBController.obj
 0001:00027b20       ?allocate@?$allocator@UStudyInfoStruct@@@std@@QAEPAUStudyInfoStruct@@IPBX@Z 00428b20 f i DBController.obj
 0001:00027b70       ?deallocate@?$allocator@UStudyInfoStruct@@@std@@QAEXPAXI@Z 00428b70 f i DBController.obj
 0001:00027bc0       ?_Destroy@?$vector@USeriesInfoStruct@@V?$allocator@USeriesInfoStruct@@@std@@@std@@IAEXPAUSeriesInfoStruct@@0@Z 00428bc0 f i DBController.obj
 0001:00027c30       ?_Ucopy@?$vector@USeriesInfoStruct@@V?$allocator@USeriesInfoStruct@@@std@@@std@@IAEPAUSeriesInfoStruct@@PBU3@0PAU3@@Z 00428c30 f i DBController.obj
 0001:00027cb0       ?_Ufill@?$vector@USeriesInfoStruct@@V?$allocator@USeriesInfoStruct@@@std@@@std@@IAEXPAUSeriesInfoStruct@@IABU3@@Z 00428cb0 f i DBController.obj
 0001:00027d30       ?allocate@?$allocator@USeriesInfoStruct@@@std@@QAEPAUSeriesInfoStruct@@IPBX@Z 00428d30 f i DBController.obj
 0001:00027d80       ?deallocate@?$allocator@USeriesInfoStruct@@@std@@QAEXPAXI@Z 00428d80 f i DBController.obj
 0001:00027dd0       ?_Destroy@?$vector@UImageInfoStruct@@V?$allocator@UImageInfoStruct@@@std@@@std@@IAEXPAUImageInfoStruct@@0@Z 00428dd0 f i DBController.obj
 0001:00027e40       ?_Ucopy@?$vector@UImageInfoStruct@@V?$allocator@UImageInfoStruct@@@std@@@std@@IAEPAUImageInfoStruct@@PBU3@0PAU3@@Z 00428e40 f i DBController.obj
 0001:00027ec0       ?_Ufill@?$vector@UImageInfoStruct@@V?$allocator@UImageInfoStruct@@@std@@@std@@IAEXPAUImageInfoStruct@@IABU3@@Z 00428ec0 f i DBController.obj
 0001:00027f40       ?allocate@?$allocator@UImageInfoStruct@@@std@@QAEPAUImageInfoStruct@@IPBX@Z 00428f40 f i DBController.obj
 0001:00027f90       ?deallocate@?$allocator@UImageInfoStruct@@@std@@QAEXPAXI@Z 00428f90 f i DBController.obj
 0001:00027fe0       ?_Destroy@?$vector@UPostProcessingInfo@@V?$allocator@UPostProcessingInfo@@@std@@@std@@IAEXPAUPostProcessingInfo@@0@Z 00428fe0 f i DBController.obj
 0001:00028050       ?_Ucopy@?$vector@UPostProcessingInfo@@V?$allocator@UPostProcessingInfo@@@std@@@std@@IAEPAUPostProcessingInfo@@PBU3@0PAU3@@Z 00429050 f i DBController.obj
 0001:000280d0       ?_Ufill@?$vector@UPostProcessingInfo@@V?$allocator@UPostProcessingInfo@@@std@@@std@@IAEXPAUPostProcessingInfo@@IABU3@@Z 004290d0 f i DBController.obj
 0001:00028150       ?allocate@?$allocator@UPostProcessingInfo@@@std@@QAEPAUPostProcessingInfo@@IPBX@Z 00429150 f i DBController.obj
 0001:000281a0       ?deallocate@?$allocator@UPostProcessingInfo@@@std@@QAEXPAXI@Z 004291a0 f i DBController.obj
 0001:000281f0       ?construct@?$allocator@UPatientInfoStruct@@@std@@QAEXPAUPatientInfoStruct@@ABU3@@Z 004291f0 f i DBController.obj
 0001:00028240       ?destroy@?$allocator@UPatientInfoStruct@@@std@@QAEXPAUPatientInfoStruct@@@Z 00429240 f i DBController.obj
 0001:00028290       ?construct@?$allocator@UStudyInfoStruct@@@std@@QAEXPAUStudyInfoStruct@@ABU3@@Z 00429290 f i DBController.obj
 0001:000282e0       ?destroy@?$allocator@UStudyInfoStruct@@@std@@QAEXPAUStudyInfoStruct@@@Z 004292e0 f i DBController.obj
 0001:00028330       ?construct@?$allocator@USeriesInfoStruct@@@std@@QAEXPAUSeriesInfoStruct@@ABU3@@Z 00429330 f i DBController.obj
 0001:00028380       ?destroy@?$allocator@USeriesInfoStruct@@@std@@QAEXPAUSeriesInfoStruct@@@Z 00429380 f i DBController.obj
 0001:000283d0       ?construct@?$allocator@UImageInfoStruct@@@std@@QAEXPAUImageInfoStruct@@ABU3@@Z 004293d0 f i DBController.obj
 0001:00028420       ?destroy@?$allocator@UImageInfoStruct@@@std@@QAEXPAUImageInfoStruct@@@Z 00429420 f i DBController.obj
 0001:00028470       ?construct@?$allocator@UPostProcessingInfo@@@std@@QAEXPAUPostProcessingInfo@@ABU3@@Z 00429470 f i DBController.obj
 0001:000284c0       ?destroy@?$allocator@UPostProcessingInfo@@@std@@QAEXPAUPostProcessingInfo@@@Z 004294c0 f i DBController.obj
 0001:00028510       ?fill@std@@YAXPAUPatientInfoStruct@@0ABU2@@Z 00429510 f i DBController.obj
 0001:00028570       ?copy_backward@std@@YAPAUPatientInfoStruct@@PAU2@00@Z 00429570 f i DBController.obj
 0001:000285d0       ?fill@std@@YAXPAUStudyInfoStruct@@0ABU2@@Z 004295d0 f i DBController.obj
 0001:00028630       ?copy_backward@std@@YAPAUStudyInfoStruct@@PAU2@00@Z 00429630 f i DBController.obj
 0001:00028690       ?fill@std@@YAXPAUSeriesInfoStruct@@0ABU2@@Z 00429690 f i DBController.obj
 0001:000286f0       ?copy_backward@std@@YAPAUSeriesInfoStruct@@PAU2@00@Z 004296f0 f i DBController.obj
 0001:00028750       ?fill@std@@YAXPAUImageInfoStruct@@0ABU2@@Z 00429750 f i DBController.obj
 0001:000287b0       ?copy_backward@std@@YAPAUImageInfoStruct@@PAU2@00@Z 004297b0 f i DBController.obj
 0001:00028820       ?fill@std@@YAXPAUPostProcessingInfo@@0ABU2@@Z 00429820 f i DBController.obj
 0001:00028880       ?copy_backward@std@@YAPAUPostProcessingInfo@@PAU2@00@Z 00429880 f i DBController.obj
 0001:000288f0       ?_Allocate@std@@YAPAUPatientInfoStruct@@HPAU2@@Z 004298f0 f i DBController.obj
 0001:00028950       ?_Allocate@std@@YAPAUStudyInfoStruct@@HPAU2@@Z 00429950 f i DBController.obj
 0001:000289b0       ?_Allocate@std@@YAPAUSeriesInfoStruct@@HPAU2@@Z 004299b0 f i DBController.obj
 0001:00028a10       ?_Allocate@std@@YAPAUImageInfoStruct@@HPAU2@@Z 00429a10 f i DBController.obj
 0001:00028a70       ?_Allocate@std@@YAPAUPostProcessingInfo@@HPAU2@@Z 00429a70 f i DBController.obj
 0001:00028ad0       ?_Construct@std@@YAXPAUPatientInfoStruct@@ABU2@@Z 00429ad0 f i DBController.obj
 0001:00028b50       ?_Destroy@std@@YAXPAUPatientInfoStruct@@@Z 00429b50 f i DBController.obj
 0001:00028b80       ?_Construct@std@@YAXPAUStudyInfoStruct@@ABU2@@Z 00429b80 f i DBController.obj
 0001:00028c00       ?_Destroy@std@@YAXPAUStudyInfoStruct@@@Z 00429c00 f i DBController.obj
 0001:00028c30       ?_Construct@std@@YAXPAUSeriesInfoStruct@@ABU2@@Z 00429c30 f i DBController.obj
 0001:00028cb0       ?_Destroy@std@@YAXPAUSeriesInfoStruct@@@Z 00429cb0 f i DBController.obj
 0001:00028ce0       ?_Construct@std@@YAXPAUImageInfoStruct@@ABU2@@Z 00429ce0 f i DBController.obj
 0001:00028d60       ?_Destroy@std@@YAXPAUImageInfoStruct@@@Z 00429d60 f i DBController.obj
 0001:00028d90       ?_Construct@std@@YAXPAUPostProcessingInfo@@ABU2@@Z 00429d90 f i DBController.obj
 0001:00028e10       ?_Destroy@std@@YAXPAUPostProcessingInfo@@@Z 00429e10 f i DBController.obj
 0001:00028e40       ??0DBDatabaseBasisOpt@@QAE@XZ 00429e40 f   DBDatabaseBasisOpt.obj
 0001:00028f10       ??_GDBDatabaseBasisOpt@@UAEPAXI@Z 00429f10 f i DBDatabaseBasisOpt.obj
 0001:00028f10       ??_EDBDatabaseBasisOpt@@UAEPAXI@Z 00429f10 f i DBDatabaseBasisOpt.obj
 0001:00028f80       ??1DBDatabaseBasisOpt@@UAE@XZ 00429f80 f   DBDatabaseBasisOpt.obj
 0001:00029030       ?OpenDB@DBDatabaseBasisOpt@@QAEHPAVCADODatabase@@VCString@@1H@Z 0042a030 f   DBDatabaseBasisOpt.obj
 0001:00029340       ?CloseDB@DBDatabaseBasisOpt@@QAEXPAVCADODatabase@@@Z 0042a340 f   DBDatabaseBasisOpt.obj
 0001:000293a0       ?QueryLoadRecord@DBDatabaseBasisOpt@@QAEHPAVCADODatabase@@ABV?$vector@VCString@@V?$allocator@VCString@@@std@@@std@@VCString@@AAV?$vector@PAV?$vector@V_variant_t@@V?$allocator@V_variant_t@@@std@@@std@@V?$allocator@PAV?$vector@V_variant_t@@V?$allocator@V_variant_t@@@std@@@std@@@2@@4@@Z 0042a3a0 f   DBDatabaseBasisOpt.obj
 0001:00029bb0       ??_GCADORecordset@@QAEPAXI@Z 0042abb0 f i DBDatabaseBasisOpt.obj
 0001:00029c20       ?QueryTableRecord@DBDatabaseBasisOpt@@QAEHPAVCADODatabase@@ABV?$vector@VCString@@V?$allocator@VCString@@@std@@@std@@1VCString@@AAV?$vector@PAV?$vector@V_variant_t@@V?$allocator@V_variant_t@@@std@@@std@@V?$allocator@PAV?$vector@V_variant_t@@V?$allocator@V_variant_t@@@std@@@std@@@2@@4@@Z 0042ac20 f   DBDatabaseBasisOpt.obj
 0001:0002a420       ?HandleError@DBDatabaseBasisOpt@@QAEXAAVCDBException@@@Z 0042b420 f   DBDatabaseBasisOpt.obj
 0001:0002a520       ?AddRecord@DBDatabaseBasisOpt@@QAEHPAVCADODatabase@@ABV?$vector@VCString@@V?$allocator@VCString@@@std@@@std@@VCString@@AAV?$vector@V_variant_t@@V?$allocator@V_variant_t@@@std@@@4@@Z 0042b520 f   DBDatabaseBasisOpt.obj
 0001:0002aba0       ?ModifyRecord@DBDatabaseBasisOpt@@QAEHPAVCADODatabase@@ABV?$vector@VCString@@V?$allocator@VCString@@@std@@@std@@VCString@@AAV?$vector@V_variant_t@@V?$allocator@V_variant_t@@@std@@@4@@Z 0042bba0 f   DBDatabaseBasisOpt.obj
 0001:0002b270       ?DeleteRecord@DBDatabaseBasisOpt@@QAEHPAVCADODatabase@@VCString@@@Z 0042c270 f   DBDatabaseBasisOpt.obj
 0001:0002b370       ?AddAutoIDRecord@DBDatabaseBasisOpt@@QAE?AV_variant_t@@PAVCADODatabase@@ABV?$vector@VCString@@V?$allocator@VCString@@@std@@@std@@VCString@@2AAV?$vector@V_variant_t@@V?$allocator@V_variant_t@@@std@@@5@@Z 0042c370 f   DBDatabaseBasisOpt.obj
 0001:0002bb70       ?GetRecordCount@DBDatabaseBasisOpt@@QAEHPAVCADODatabase@@VCString@@@Z 0042cb70 f   DBDatabaseBasisOpt.obj
 0001:0002bd70       ?GetFieldValue@DBDatabaseBasisOpt@@QAE?AV_variant_t@@PAVCADODatabase@@VCString@@1@Z 0042cd70 f   DBDatabaseBasisOpt.obj
 0001:0002c060       ?ReleaseResult@DBDatabaseBasisOpt@@QAEXAAV?$vector@PAV?$vector@V_variant_t@@V?$allocator@V_variant_t@@@std@@@std@@V?$allocator@PAV?$vector@V_variant_t@@V?$allocator@V_variant_t@@@std@@@std@@@2@@std@@@Z 0042d060 f   DBDatabaseBasisOpt.obj
 0001:0002c140       ??_G?$vector@V_variant_t@@V?$allocator@V_variant_t@@@std@@@std@@QAEPAXI@Z 0042d140 f i DBDatabaseBasisOpt.obj
 0001:0002c1b0       ?QueryLoadRecordByFieldIndex@DBDatabaseBasisOpt@@QAEHPAVCADODatabase@@ABV?$vector@VCString@@V?$allocator@VCString@@@std@@@std@@VCString@@AAV?$vector@PAV?$vector@V_variant_t@@V?$allocator@V_variant_t@@@std@@@std@@V?$allocator@PAV?$vector@V_variant_t@@V?$allocator@V_variant_t@@@std@@@std@@@2@@4@@Z 0042d1b0 f   DBDatabaseBasisOpt.obj
 0001:0002c7b0       ?QueryLoadRecordBySQL@DBDatabaseBasisOpt@@QAEHPAVCADODatabase@@IABVCString@@AAV?$vector@PAV?$vector@V_variant_t@@V?$allocator@V_variant_t@@@std@@@std@@V?$allocator@PAV?$vector@V_variant_t@@V?$allocator@V_variant_t@@@std@@@std@@@2@@std@@@Z 0042d7b0 f   DBDatabaseBasisOpt.obj
 0001:0002cb30       ??0CObject@@IAE@XZ         0042db30 f i DBDatabaseBasisOpt.obj
 0001:0002cb70       ??_ECObject@@UAEPAXI@Z     0042db70 f i DBDatabaseBasisOpt.obj
 0001:0002cb70       ??_GCObject@@UAEPAXI@Z     0042db70 f i DBDatabaseBasisOpt.obj
 0001:0002cbe0       ??1CObject@@UAE@XZ         0042dbe0 f i DBDatabaseBasisOpt.obj
 0001:0002cc20       ??A?$vector@VCString@@V?$allocator@VCString@@@std@@@std@@QBEABVCString@@I@Z 0042dc20 f i DBDatabaseBasisOpt.obj
 0001:0002cc70       ??0?$vector@V_variant_t@@V?$allocator@V_variant_t@@@std@@@std@@QAE@ABV?$allocator@V_variant_t@@@1@@Z 0042dc70 f i DBDatabaseBasisOpt.obj
 0001:0002cce0       ??1?$vector@V_variant_t@@V?$allocator@V_variant_t@@@std@@@std@@QAE@XZ 0042dce0 f i DBDatabaseBasisOpt.obj
 0001:0002cd90       ??A?$vector@V_variant_t@@V?$allocator@V_variant_t@@@std@@@std@@QAEAAV_variant_t@@I@Z 0042dd90 f i DBDatabaseBasisOpt.obj
 0001:0002cde0       ?push_back@?$vector@V_variant_t@@V?$allocator@V_variant_t@@@std@@@std@@QAEXABV_variant_t@@@Z 0042dde0 f i DBDatabaseBasisOpt.obj
 0001:0002ce40       ?size@?$vector@PAV?$vector@V_variant_t@@V?$allocator@V_variant_t@@@std@@@std@@V?$allocator@PAV?$vector@V_variant_t@@V?$allocator@V_variant_t@@@std@@@std@@@2@@std@@QBEIXZ 0042de40 f i DBDatabaseBasisOpt.obj
 0001:0002cea0       ??A?$vector@PAV?$vector@V_variant_t@@V?$allocator@V_variant_t@@@std@@@std@@V?$allocator@PAV?$vector@V_variant_t@@V?$allocator@V_variant_t@@@std@@@std@@@2@@std@@QAEAAPAV?$vector@V_variant_t@@V?$allocator@V_variant_t@@@std@@@1@I@Z 0042dea0 f i DBDatabaseBasisOpt.obj
 0001:0002cef0       ?push_back@?$vector@PAV?$vector@V_variant_t@@V?$allocator@V_variant_t@@@std@@@std@@V?$allocator@PAV?$vector@V_variant_t@@V?$allocator@V_variant_t@@@std@@@std@@@2@@std@@QAEXABQAV?$vector@V_variant_t@@V?$allocator@V_variant_t@@@std@@@2@@Z 0042def0 f i DBDatabaseBasisOpt.obj
 0001:0002cf50       ?clear@?$vector@PAV?$vector@V_variant_t@@V?$allocator@V_variant_t@@@std@@@std@@V?$allocator@PAV?$vector@V_variant_t@@V?$allocator@V_variant_t@@@std@@@std@@@2@@std@@QAEXXZ 0042df50 f i DBDatabaseBasisOpt.obj
 0001:0002cfb0       ?begin@?$vector@V_variant_t@@V?$allocator@V_variant_t@@@std@@@std@@QAEPAV_variant_t@@XZ 0042dfb0 f i DBDatabaseBasisOpt.obj
 0001:0002cff0       ?end@?$vector@V_variant_t@@V?$allocator@V_variant_t@@@std@@@std@@QAEPAV_variant_t@@XZ 0042dff0 f i DBDatabaseBasisOpt.obj
 0001:0002d030       ?insert@?$vector@V_variant_t@@V?$allocator@V_variant_t@@@std@@@std@@QAEPAV_variant_t@@PAV3@ABV3@@Z 0042e030 f i DBDatabaseBasisOpt.obj
 0001:0002d0b0       ?_Destroy@?$vector@V_variant_t@@V?$allocator@V_variant_t@@@std@@@std@@IAEXPAV_variant_t@@0@Z 0042e0b0 f i DBDatabaseBasisOpt.obj
 0001:0002d120       ?deallocate@?$allocator@V_variant_t@@@std@@QAEXPAXI@Z 0042e120 f i DBDatabaseBasisOpt.obj
 0001:0002d170       ?begin@?$vector@PAV?$vector@V_variant_t@@V?$allocator@V_variant_t@@@std@@@std@@V?$allocator@PAV?$vector@V_variant_t@@V?$allocator@V_variant_t@@@std@@@std@@@2@@std@@QAEPAPAV?$vector@V_variant_t@@V?$allocator@V_variant_t@@@std@@@2@XZ 0042e170 f i DBDatabaseBasisOpt.obj
 0001:0002d1b0       ?end@?$vector@PAV?$vector@V_variant_t@@V?$allocator@V_variant_t@@@std@@@std@@V?$allocator@PAV?$vector@V_variant_t@@V?$allocator@V_variant_t@@@std@@@std@@@2@@std@@QAEPAPAV?$vector@V_variant_t@@V?$allocator@V_variant_t@@@std@@@2@XZ 0042e1b0 f i DBDatabaseBasisOpt.obj
 0001:0002d1f0       ?insert@?$vector@PAV?$vector@V_variant_t@@V?$allocator@V_variant_t@@@std@@@std@@V?$allocator@PAV?$vector@V_variant_t@@V?$allocator@V_variant_t@@@std@@@std@@@2@@std@@QAEPAPAV?$vector@V_variant_t@@V?$allocator@V_variant_t@@@std@@@2@PAPAV32@ABQAV32@@Z 0042e1f0 f i DBDatabaseBasisOpt.obj
 0001:0002d270       ?erase@?$vector@PAV?$vector@V_variant_t@@V?$allocator@V_variant_t@@@std@@@std@@V?$allocator@PAV?$vector@V_variant_t@@V?$allocator@V_variant_t@@@std@@@std@@@2@@std@@QAEPAPAV?$vector@V_variant_t@@V?$allocator@V_variant_t@@@std@@@2@PAPAV32@0@Z 0042e270 f i DBDatabaseBasisOpt.obj
 0001:0002d300       ?insert@?$vector@V_variant_t@@V?$allocator@V_variant_t@@@std@@@std@@QAEXPAV_variant_t@@IABV3@@Z 0042e300 f i DBDatabaseBasisOpt.obj
 0001:0002d5e0       ?destroy@?$allocator@V_variant_t@@@std@@QAEXPAV_variant_t@@@Z 0042e5e0 f i DBDatabaseBasisOpt.obj
 0001:0002d630       ?insert@?$vector@PAV?$vector@V_variant_t@@V?$allocator@V_variant_t@@@std@@@std@@V?$allocator@PAV?$vector@V_variant_t@@V?$allocator@V_variant_t@@@std@@@std@@@2@@std@@QAEXPAPAV?$vector@V_variant_t@@V?$allocator@V_variant_t@@@std@@@2@IABQAV32@@Z 0042e630 f i DBDatabaseBasisOpt.obj
 0001:0002d900       ?_Destroy@?$vector@PAV?$vector@V_variant_t@@V?$allocator@V_variant_t@@@std@@@std@@V?$allocator@PAV?$vector@V_variant_t@@V?$allocator@V_variant_t@@@std@@@std@@@2@@std@@IAEXPAPAV?$vector@V_variant_t@@V?$allocator@V_variant_t@@@std@@@2@0@Z 0042e900 f i DBDatabaseBasisOpt.obj
 0001:0002d970       ?size@?$vector@V_variant_t@@V?$allocator@V_variant_t@@@std@@@std@@QBEIXZ 0042e970 f i DBDatabaseBasisOpt.obj
 0001:0002d9d0       ?_Ucopy@?$vector@V_variant_t@@V?$allocator@V_variant_t@@@std@@@std@@IAEPAV_variant_t@@PBV3@0PAV3@@Z 0042e9d0 f i DBDatabaseBasisOpt.obj
 0001:0002da50       ?_Ufill@?$vector@V_variant_t@@V?$allocator@V_variant_t@@@std@@@std@@IAEXPAV_variant_t@@IABV3@@Z 0042ea50 f i DBDatabaseBasisOpt.obj
 0001:0002dad0       ?allocate@?$allocator@V_variant_t@@@std@@QAEPAV_variant_t@@IPBX@Z 0042ead0 f i DBDatabaseBasisOpt.obj
 0001:0002db20       ?_Ucopy@?$vector@PAV?$vector@V_variant_t@@V?$allocator@V_variant_t@@@std@@@std@@V?$allocator@PAV?$vector@V_variant_t@@V?$allocator@V_variant_t@@@std@@@std@@@2@@std@@IAEPAPAV?$vector@V_variant_t@@V?$allocator@V_variant_t@@@std@@@2@PBQAV32@0PAPAV32@@Z 0042eb20 f i DBDatabaseBasisOpt.obj
 0001:0002dba0       ?_Ufill@?$vector@PAV?$vector@V_variant_t@@V?$allocator@V_variant_t@@@std@@@std@@V?$allocator@PAV?$vector@V_variant_t@@V?$allocator@V_variant_t@@@std@@@std@@@2@@std@@IAEXPAPAV?$vector@V_variant_t@@V?$allocator@V_variant_t@@@std@@@2@IABQAV32@@Z 0042eba0 f i DBDatabaseBasisOpt.obj
 0001:0002dc20       ?allocate@?$allocator@PAV?$vector@V_variant_t@@V?$allocator@V_variant_t@@@std@@@std@@@std@@QAEPAPAV?$vector@V_variant_t@@V?$allocator@V_variant_t@@@std@@@2@IPBX@Z 0042ec20 f i DBDatabaseBasisOpt.obj
 0001:0002dc70       ?deallocate@?$allocator@PAV?$vector@V_variant_t@@V?$allocator@V_variant_t@@@std@@@std@@@std@@QAEXPAXI@Z 0042ec70 f i DBDatabaseBasisOpt.obj
 0001:0002dcc0       ?destroy@?$allocator@PAV?$vector@V_variant_t@@V?$allocator@V_variant_t@@@std@@@std@@@std@@QAEXPAPAV?$vector@V_variant_t@@V?$allocator@V_variant_t@@@std@@@2@@Z 0042ecc0 f i DBDatabaseBasisOpt.obj
 0001:0002dd10       ?construct@?$allocator@V_variant_t@@@std@@QAEXPAV_variant_t@@ABV3@@Z 0042ed10 f i DBDatabaseBasisOpt.obj
 0001:0002dd60       ?construct@?$allocator@PAV?$vector@V_variant_t@@V?$allocator@V_variant_t@@@std@@@std@@@std@@QAEXPAPAV?$vector@V_variant_t@@V?$allocator@V_variant_t@@@std@@@2@ABQAV32@@Z 0042ed60 f i DBDatabaseBasisOpt.obj
 0001:0002ddb0       ?copy@std@@YAPAPAV?$vector@V_variant_t@@V?$allocator@V_variant_t@@@std@@@1@PAPAV21@00@Z 0042edb0 f i DBDatabaseBasisOpt.obj
 0001:0002de10       ?fill@std@@YAXPAV_variant_t@@0ABV2@@Z 0042ee10 f i DBDatabaseBasisOpt.obj
 0001:0002de70       ?copy_backward@std@@YAPAV_variant_t@@PAV2@00@Z 0042ee70 f i DBDatabaseBasisOpt.obj
 0001:0002dee0       ?_Destroy@std@@YAXPAV_variant_t@@@Z 0042eee0 f i DBDatabaseBasisOpt.obj
 0001:0002df20       ?fill@std@@YAXPAPAV?$vector@V_variant_t@@V?$allocator@V_variant_t@@@std@@@1@0ABQAV21@@Z 0042ef20 f i DBDatabaseBasisOpt.obj
 0001:0002df70       ?copy_backward@std@@YAPAPAV?$vector@V_variant_t@@V?$allocator@V_variant_t@@@std@@@1@PAPAV21@00@Z 0042ef70 f i DBDatabaseBasisOpt.obj
 0001:0002dfd0       ?_Allocate@std@@YAPAV_variant_t@@HPAV2@@Z 0042efd0 f i DBDatabaseBasisOpt.obj
 0001:0002e030       ?_Allocate@std@@YAPAPAV?$vector@V_variant_t@@V?$allocator@V_variant_t@@@std@@@1@HPAPAV21@@Z 0042f030 f i DBDatabaseBasisOpt.obj
 0001:0002e090       ?_Destroy@std@@YAXPAPAV?$vector@V_variant_t@@V?$allocator@V_variant_t@@@std@@@1@@Z 0042f090 f i DBDatabaseBasisOpt.obj
 0001:0002e0c0       ?_Construct@std@@YAXPAV_variant_t@@ABV2@@Z 0042f0c0 f i DBDatabaseBasisOpt.obj
 0001:0002e170       ?_Construct@std@@YAXPAPAV?$vector@V_variant_t@@V?$allocator@V_variant_t@@@std@@@1@ABQAV21@@Z 0042f170 f i DBDatabaseBasisOpt.obj
 0001:0002e1e0       ??_G_variant_t@@QAEPAXI@Z  0042f1e0 f i DBDatabaseBasisOpt.obj
 0001:0002e250       ??4_variant_t@@QAEAAV0@ABV_bstr_t@@@Z 0042f250 f i DBDatabaseBasisOpt.obj
 0001:0002e330       ??7_bstr_t@@QBE_NXZ        0042f330 f i DBDatabaseBasisOpt.obj
 0001:0002e3a0       ?Clear@_variant_t@@QAEXXZ  0042f3a0 f i DBDatabaseBasisOpt.obj
 0001:0002e400       ?GetLastErrorString@CADODatabase@@QAE?AVCString@@XZ 0042f400 f i DBDatabaseBasisOpt.obj
 0001:0002e470       ?GetLastError@CADODatabase@@QAEKXZ 0042f470 f i DBDatabaseBasisOpt.obj
 0001:0002e4b0       ??1CADORecordset@@QAE@XZ   0042f4b0 f i DBDatabaseBasisOpt.obj
 0001:0002e680       ?Release@?$_com_ptr_t@V?$_com_IIID@U_Recordset@ADOCG@@$1?_GUID_00000556_0000_0010_8000_00aa006d2ea4@@3U__s_GUID@@A@@@@QAEXXZ 0042f680 f i DBDatabaseBasisOpt.obj
 0001:0002e700       ??B?$_com_ptr_t@V?$_com_IIID@U_Command@ADOCG@@$1?_GUID_b08400bd_f9d1_4d02_b856_71d5dba123e9@@3U__s_GUID@@A@@@@QBE_NXZ 0042f700 f i DBDatabaseBasisOpt.obj
 0001:0002e740       ?Release@?$_com_ptr_t@V?$_com_IIID@U_Command@ADOCG@@$1?_GUID_b08400bd_f9d1_4d02_b856_71d5dba123e9@@3U__s_GUID@@A@@@@QAEXXZ 0042f740 f i DBDatabaseBasisOpt.obj
 0001:0002e7c0       ?IsEOF@CADORecordset@@QAEHXZ 0042f7c0 f i DBDatabaseBasisOpt.obj
 0001:0002e820       ?MoveFirst@CADORecordset@@QAEXXZ 0042f820 f i DBDatabaseBasisOpt.obj
 0001:0002e870       ?MoveNext@CADORecordset@@QAEXXZ 0042f870 f i DBDatabaseBasisOpt.obj
 0001:0002e8c0       ??0DBDatabaseOpt@@IAE@XZ   0042f8c0 f   DBDatabaseOpt.obj
 0001:0002e990       ??_EDBDatabaseOpt@@UAEPAXI@Z 0042f990 f i DBDatabaseOpt.obj
 0001:0002e990       ??_GDBDatabaseOpt@@UAEPAXI@Z 0042f990 f i DBDatabaseOpt.obj
 0001:0002ea00       ??1DBDatabaseOpt@@UAE@XZ   0042fa00 f   DBDatabaseOpt.obj
 0001:0002eaa0       ?GetInstance@DBDatabaseOpt@@SAPAV1@XZ 0042faa0 f   DBDatabaseOpt.obj
 0001:0002eba0       ?GetDBObject@DBDatabaseOpt@@QAEPAVCADODatabase@@XZ 0042fba0 f   DBDatabaseOpt.obj
 0001:0002ebe0       ?GetDBPath@DBDatabaseOpt@@QAE?AVCString@@XZ 0042fbe0 f   DBDatabaseOpt.obj
 0001:0002ec50       ?OpenDB@DBDatabaseOpt@@QAEHQAG0@Z 0042fc50 f   DBDatabaseOpt.obj
 0001:0002eff0       ?CloseDB@DBDatabaseOpt@@QAEHXZ 0042fff0 f   DBDatabaseOpt.obj
 0001:0002f0a0       ??0CADODatabase@@QAE@XZ    004300a0 f i DBDatabaseOpt.obj
 0001:0002f1c0       ??4?$_com_ptr_t@V?$_com_IIID@U_Connection@ADOCG@@$1?_GUID_00000550_0000_0010_8000_00aa006d2ea4@@3U__s_GUID@@A@@@@QAEAAV0@H@Z 004301c0 f i DBDatabaseOpt.obj
 0001:0002f220       ?CreateInstance@?$_com_ptr_t@V?$_com_IIID@U_Connection@ADOCG@@$1?_GUID_00000550_0000_0010_8000_00aa006d2ea4@@3U__s_GUID@@A@@@@QAEJABU_GUID@@PAUIUnknown@@K@Z 00430220 f i DBDatabaseOpt.obj
 0001:0002f360       ?GetIID@?$_com_ptr_t@V?$_com_IIID@U_Connection@ADOCG@@$1?_GUID_00000550_0000_0010_8000_00aa006d2ea4@@3U__s_GUID@@A@@@@SAABU_GUID@@XZ 00430360 f i DBDatabaseOpt.obj
 0001:0002f3a0       ?GetIID@?$_com_IIID@U_Connection@ADOCG@@$1?_GUID_00000550_0000_0010_8000_00aa006d2ea4@@3U__s_GUID@@A@@SAABU_GUID@@XZ 004303a0 f i DBDatabaseOpt.obj
 0001:0002f3d0       ??0CDBSink@@QAE@XZ         004303d0 f   DBSink.obj
 0001:0002f450       ??_ECDBSink@@UAEPAXI@Z     00430450 f i DBSink.obj
 0001:0002f450       ??_GCDBSink@@UAEPAXI@Z     00430450 f i DBSink.obj
 0001:0002f4c0       ??0IGeneralEvent@@QAE@XZ   004304c0 f i DBSink.obj
 0001:0002f510       ??0IUnknown@@QAE@XZ        00430510 f i DBSink.obj
 0001:0002f540       ??1CDBSink@@UAE@XZ         00430540 f   DBSink.obj
 0001:0002f580       ?AddRef@CDBSink@@UAGKXZ    00430580 f   DBSink.obj
 0001:0002f5b0       ?Release@CDBSink@@UAGKXZ   004305b0 f   DBSink.obj
 0001:0002f5e0       ?QueryInterface@CDBSink@@UAGJABU_GUID@@PAPAX@Z 004305e0 f   DBSink.obj
 0001:0002f680       ?SetConnection@CDBSink@@QAEHABU_GUID@@0@Z 00430680 f   DBSink.obj
 0001:0002f7d0       ?ReleaseConnection@CDBSink@@QAEHXZ 004307d0 f   DBSink.obj
 0001:0002f880       ?ReportStartupResult@CDBSink@@UAGJW4_STARTUPRESULT@@@Z 00430880 f   DBSink.obj
 0001:0002f8b0       ?ReportWorkState@CDBSink@@UAGJW4_WORKSTATE@@@Z 004308b0 f   DBSink.obj
 0001:0002f900       ?ReportError@CDBSink@@UAGJH@Z 00430900 f   DBSink.obj
 0001:0002f930       ??8@YAHABU_GUID@@0@Z       00430930 f i DBSink.obj
 0001:0002f980       ??0CDBStructInitor@@QAE@XZ 00430980 f   DBStructInitor.obj
 0001:0002f9c0       ??_ECDBStructInitor@@UAEPAXI@Z 004309c0 f i DBStructInitor.obj
 0001:0002f9c0       ??_GCDBStructInitor@@UAEPAXI@Z 004309c0 f i DBStructInitor.obj
 0001:0002fa30       ??1CDBStructInitor@@UAE@XZ 00430a30 f   DBStructInitor.obj
 0001:0002fa70       ?InitPatientInfoStruct@CDBStructInitor@@SAXPAUPatientInfoStruct@@@Z 00430a70 f   DBStructInitor.obj
 0001:0002fb20       ?InitStudyInfoStruct@CDBStructInitor@@SAXPAUStudyInfoStruct@@@Z 00430b20 f   DBStructInitor.obj
 0001:0002fbd0       ?InitSeriesInfoStruct@CDBStructInitor@@SAXPAUSeriesInfoStruct@@@Z 00430bd0 f   DBStructInitor.obj
 0001:0002fc40       ?InitImageInfoStruct@CDBStructInitor@@SAXPAUImageInfoStruct@@@Z 00430c40 f   DBStructInitor.obj
 0001:0002fcc0       ?InitPostProcessInfoStruct@CDBStructInitor@@SAXPAUPostProcessingInfo@@@Z 00430cc0 f   DBStructInitor.obj
 0001:0002fd10       ??0CDcmPartner@@QAE@XZ     00430d10 f   DcmPartner.obj
 0001:0002fee0       ??_GCDcmPartner@@UAEPAXI@Z 00430ee0 f i DcmPartner.obj
 0001:0002fee0       ??_ECDcmPartner@@UAEPAXI@Z 00430ee0 f i DcmPartner.obj
 0001:0002ff50       ??1CDcmPartner@@UAE@XZ     00430f50 f   DcmPartner.obj
 0001:00030040       ?Init@CDcmPartner@@QAEHXZ  00431040 f   DcmPartner.obj
 0001:000301c0       ?GetName@ASBasisGetFunctionName@?1??Init@CDcmPartner@@QAEHXZ@QAEXXZ 004311c0 f   DcmPartner.obj
 0001:000301f0       ?UnInit@CDcmPartner@@QAEXXZ 004311f0 f   DcmPartner.obj
 0001:00030480       ?GetName@ASBasisGetFunctionName@?1??UnInit@CDcmPartner@@QAEXXZ@QAEXXZ 00431480 f   DcmPartner.obj
 0001:000304b0       ?GetPatientInfoStruct@CDcmPartner@@AAEHPAV?$vector@UPatientInfoStruct@@V?$allocator@UPatientInfoStruct@@@std@@@std@@PBGPAPAUPatientInfoStruct@@@Z 004314b0 f   DcmPartner.obj
 0001:00030610       ?GetStudyInfoStruct@CDcmPartner@@AAEHPAV?$vector@UStudyInfoStruct@@V?$allocator@UStudyInfoStruct@@@std@@@std@@PBGPAPAUStudyInfoStruct@@@Z 00431610 f   DcmPartner.obj
 0001:00030770       ?GetSeriesInfoStruct@CDcmPartner@@AAEHPAV?$vector@USeriesInfoStruct@@V?$allocator@USeriesInfoStruct@@@std@@@std@@PBGPAPAUSeriesInfoStruct@@@Z 00431770 f   DcmPartner.obj
 0001:000308d0       ?GetPostProcessInfoStruct@CDcmPartner@@AAEHPAV?$vector@UPostProcessingInfo@@V?$allocator@UPostProcessingInfo@@@std@@@std@@PBGPAPAUPostProcessingInfo@@@Z 004318d0 f   DcmPartner.obj
 0001:00030a90       ?SetImageType@CDcmPartner@@QAEXHH@Z 00431a90 f   DcmPartner.obj
 0001:00030ae0       ?SetPSFile@CDcmPartner@@QAEXH@Z 00431ae0 f   DcmPartner.obj
 0001:00030b20       ?SetDcmDir@CDcmPartner@@QAEXH@Z 00431b20 f   DcmPartner.obj
 0001:00030b60       ?ConvertBFS@CDcmPartner@@QAEHPAVPAJob@@PBGPAV?$vector@VCString@@V?$allocator@VCString@@@std@@@std@@2@Z 00431b60 f   DcmPartner.obj
 0001:00031100       ?GetName@ASBasisGetFunctionName@?1??ConvertBFS@CDcmPartner@@QAEHPAVPAJob@@PBGPAV?$vector@VCString@@V?$allocator@VCString@@@std@@@std@@2@Z@QAEXXZ 00432100 f   DcmPartner.obj
 0001:00031130       ?ConvertImages@CDcmPartner@@AAEHXZ 00432130 f   DcmPartner.obj
 0001:00031e50       ?GetName@ASBasisGetFunctionName@?1??ConvertImages@CDcmPartner@@AAEHXZ@QAEXXZ 00432e50 f   DcmPartner.obj
 0001:00031e80       ?ConvertOneImageToDXImage@CDcmPartner@@AAEHH@Z 00432e80 f   DcmPartner.obj
 0001:00032330       ?GetOriginalPSFileName@CDcmPartner@@AAEXAAVCString@@@Z 00433330 f   DcmPartner.obj
 0001:00032430       ?CheckTaskDir@CDcmPartner@@QAEHPBGH@Z 00433430 f   DcmPartner.obj
 0001:00032ab0       ?ClearTaskDir@CDcmPartner@@QAEHPBGH@Z 00433ab0 f   DcmPartner.obj
 0001:000334e0       ?GetEstimatedContentSize@CDcmPartner@@QAEKKHW4_tagDownscaleCriterion@@HHH_J@Z 004344e0 f   DcmPartner.obj
 0001:000336b0       ?CheckDiskSpace@CDcmPartner@@AAEHXZ 004346b0 f   DcmPartner.obj
 0001:000336f0       ?GetEstimatedDiskSpaceNeeded@CDcmPartner@@AAEKKHW4_tagDownscaleCriterion@@HHH_J@Z 004346f0 f   DcmPartner.obj
 0001:000337c0       ?GetDcmImageDir@CDcmPartner@@AAEXAAVCString@@@Z 004347c0 f   DcmPartner.obj
 0001:00033950       ?GetPatientDir@CDcmPartner@@AAE?AVCString@@XZ 00434950 f   DcmPartner.obj
 0001:00033b30       ??0_tagPatientDirStruct@@QAE@XZ 00434b30 f i DcmPartner.obj
 0001:00033bc0       ??1_tagPatientDirStruct@@QAE@XZ 00434bc0 f i DcmPartner.obj
 0001:00033c50       ?GetBMPDir@CDcmPartner@@AAEXAAVCString@@@Z 00434c50 f   DcmPartner.obj
 0001:00033d30       ?GetJPEGDir@CDcmPartner@@AAEXAAVCString@@@Z 00434d30 f   DcmPartner.obj
 0001:00033e10       ?GetBMPFullName@CDcmPartner@@AAEXPBGAAVCString@@@Z 00434e10 f   DcmPartner.obj
 0001:00034020       ?GetJPEGFullName@CDcmPartner@@AAEXPBGAAVCString@@@Z 00435020 f   DcmPartner.obj
 0001:00034230       ?GetDcmImageFullName@CDcmPartner@@AAEXPBGHAAVCString@@@Z 00435230 f   DcmPartner.obj
 0001:000343b0       ?GetDcmPSFullName@CDcmPartner@@AAEXPBGAAVCString@@@Z 004353b0 f   DcmPartner.obj
 0001:00034410       ?ReadImageData@CDcmPartner@@AAEHH@Z 00435410 f   DcmPartner.obj
 0001:00034820       ?GetImageFileName@CDcmPartner@@AAEHHAAVCString@@@Z 00435820 f   DcmPartner.obj
 0001:00034950       ?NotifyProgress@CDcmPartner@@AAEXXZ 00435950 f   DcmPartner.obj
 0001:000349f0       ?GetLanguageSetting@CDcmPartner@@AAEXXZ 004359f0 f   DcmPartner.obj
 0001:00034ba0       ?IsFileExist@CDcmPartner@@AAEHPBG@Z 00435ba0 f   DcmPartner.obj
 0001:00034d10       ??0?$vector@U_tagPatientDirStruct@@V?$allocator@U_tagPatientDirStruct@@@std@@@std@@QAE@ABV?$allocator@U_tagPatientDirStruct@@@1@@Z 00435d10 f i DcmPartner.obj
 0001:00034d80       ??1?$vector@U_tagPatientDirStruct@@V?$allocator@U_tagPatientDirStruct@@@std@@@std@@QAE@XZ 00435d80 f i DcmPartner.obj
 0001:00034e30       ?size@?$vector@U_tagPatientDirStruct@@V?$allocator@U_tagPatientDirStruct@@@std@@@std@@QBEIXZ 00435e30 f i DcmPartner.obj
 0001:00034e90       ??A?$vector@U_tagPatientDirStruct@@V?$allocator@U_tagPatientDirStruct@@@std@@@std@@QAEAAU_tagPatientDirStruct@@I@Z 00435e90 f i DcmPartner.obj
 0001:00034ee0       ?push_back@?$vector@U_tagPatientDirStruct@@V?$allocator@U_tagPatientDirStruct@@@std@@@std@@QAEXABU_tagPatientDirStruct@@@Z 00435ee0 f i DcmPartner.obj
 0001:00034f40       ?clear@?$vector@U_tagPatientDirStruct@@V?$allocator@U_tagPatientDirStruct@@@std@@@std@@QAEXXZ 00435f40 f i DcmPartner.obj
 0001:00034fa0       ?begin@?$vector@U_tagPatientDirStruct@@V?$allocator@U_tagPatientDirStruct@@@std@@@std@@QAEPAU_tagPatientDirStruct@@XZ 00435fa0 f i DcmPartner.obj
 0001:00034fe0       ?end@?$vector@U_tagPatientDirStruct@@V?$allocator@U_tagPatientDirStruct@@@std@@@std@@QAEPAU_tagPatientDirStruct@@XZ 00435fe0 f i DcmPartner.obj
 0001:00035020       ?insert@?$vector@U_tagPatientDirStruct@@V?$allocator@U_tagPatientDirStruct@@@std@@@std@@QAEPAU_tagPatientDirStruct@@PAU3@ABU3@@Z 00436020 f i DcmPartner.obj
 0001:000350a0       ?erase@?$vector@U_tagPatientDirStruct@@V?$allocator@U_tagPatientDirStruct@@@std@@@std@@QAEPAU_tagPatientDirStruct@@PAU3@0@Z 004360a0 f i DcmPartner.obj
 0001:00035130       ?_Destroy@?$vector@U_tagPatientDirStruct@@V?$allocator@U_tagPatientDirStruct@@@std@@@std@@IAEXPAU_tagPatientDirStruct@@0@Z 00436130 f i DcmPartner.obj
 0001:000351a0       ?deallocate@?$allocator@U_tagPatientDirStruct@@@std@@QAEXPAXI@Z 004361a0 f i DcmPartner.obj
 0001:000351f0       ?insert@?$vector@U_tagPatientDirStruct@@V?$allocator@U_tagPatientDirStruct@@@std@@@std@@QAEXPAU_tagPatientDirStruct@@IABU3@@Z 004361f0 f i DcmPartner.obj
 0001:000354c0       ?destroy@?$allocator@U_tagPatientDirStruct@@@std@@QAEXPAU_tagPatientDirStruct@@@Z 004364c0 f i DcmPartner.obj
 0001:00035510       ?_Ucopy@?$vector@U_tagPatientDirStruct@@V?$allocator@U_tagPatientDirStruct@@@std@@@std@@IAEPAU_tagPatientDirStruct@@PBU3@0PAU3@@Z 00436510 f i DcmPartner.obj
 0001:00035590       ?_Ufill@?$vector@U_tagPatientDirStruct@@V?$allocator@U_tagPatientDirStruct@@@std@@@std@@IAEXPAU_tagPatientDirStruct@@IABU3@@Z 00436590 f i DcmPartner.obj
 0001:00035610       ?allocate@?$allocator@U_tagPatientDirStruct@@@std@@QAEPAU_tagPatientDirStruct@@IPBX@Z 00436610 f i DcmPartner.obj
 0001:00035660       ?construct@?$allocator@U_tagPatientDirStruct@@@std@@QAEXPAU_tagPatientDirStruct@@ABU3@@Z 00436660 f i DcmPartner.obj
 0001:000356b0       ?copy@std@@YAPAU_tagPatientDirStruct@@PAU2@00@Z 004366b0 f i DcmPartner.obj
 0001:00035720       ?fill@std@@YAXPAU_tagPatientDirStruct@@0ABU2@@Z 00436720 f i DcmPartner.obj
 0001:00035780       ?copy_backward@std@@YAPAU_tagPatientDirStruct@@PAU2@00@Z 00436780 f i DcmPartner.obj
 0001:000357f0       ?_Destroy@std@@YAXPAU_tagPatientDirStruct@@@Z 004367f0 f i DcmPartner.obj
 0001:00035830       ?_Allocate@std@@YAPAU_tagPatientDirStruct@@HPAU2@@Z 00436830 f i DcmPartner.obj
 0001:00035890       ?_Construct@std@@YAXPAU_tagPatientDirStruct@@ABU2@@Z 00436890 f i DcmPartner.obj
 0001:00035940       ??4_tagPatientDirStruct@@QAEAAU0@ABU0@@Z 00436940 f i DcmPartner.obj
 0001:000359b0       ??_G_tagPatientDirStruct@@QAEPAXI@Z 004369b0 f i DcmPartner.obj
 0001:00035a20       ??0_tagPatientDirStruct@@QAE@ABU0@@Z 00436a20 f i DcmPartner.obj
 0001:00035ac0       ??0CDirHandler@@QAE@XZ     00436ac0 f   DirHandler.obj
 0001:00035b00       ??_GCDirHandler@@UAEPAXI@Z 00436b00 f i DirHandler.obj
 0001:00035b00       ??_ECDirHandler@@UAEPAXI@Z 00436b00 f i DirHandler.obj
 0001:00035b70       ??1CDirHandler@@UAE@XZ     00436b70 f   DirHandler.obj
 0001:00035bb0       ?CreateDir@CDirHandler@@SAHPBG@Z 00436bb0 f   DirHandler.obj
 0001:000361c0       ?ClearDir@CDirHandler@@SAHPBG@Z 004371c0 f   DirHandler.obj
 0001:00036aa0       ?CheckDir@CDirHandler@@SAHPBGH@Z 00437aa0 f   DirHandler.obj
 0001:00036c60       ?DeleteDir@CDirHandler@@SAHPBG@Z 00437c60 f   DirHandler.obj
 0001:00037800       ?DeleteFileW@CDirHandler@@SAHPBG@Z 00438800 f   DirHandler.obj
 0001:00037b30       ?IsFileExist@CDirHandler@@SAHPBG@Z 00438b30 f   DirHandler.obj
 0001:00037c90       ?DeleteExistedFile@CDirHandler@@CAHPBG@Z 00438c90 f   DirHandler.obj
 0001:00037e10       ?GetImportDiscInfoThreadProc@@YGKPAX@Z 00438e10 f   DiscImport.obj
 0001:00037ef0       ??0CDiscImport@@AAE@XZ     00438ef0 f   DiscImport.obj
 0001:000381b0       ??_ECDiscImport@@UAEPAXI@Z 004391b0 f i DiscImport.obj
 0001:000381b0       ??_GCDiscImport@@UAEPAXI@Z 004391b0 f i DiscImport.obj
 0001:00038220       ??0DICOMDIRPatientsTotalInfo@@QAE@XZ 00439220 f i DiscImport.obj
 0001:000382f0       ??1DICOMDIRPatientsTotalInfo@@QAE@XZ 004392f0 f i DiscImport.obj
 0001:000383a0       ??1CDiscImport@@UAE@XZ     004393a0 f   DiscImport.obj
 0001:000385a0       ?GetInstance@CDiscImport@@SAPAV1@XZ 004395a0 f   DiscImport.obj
 0001:00038670       ?ReleaseInstance@CDiscImport@@QAEXXZ 00439670 f   DiscImport.obj
 0001:00038710       ?Init@CDiscImport@@QAEHXZ  00439710 f   DiscImport.obj
 0001:00038a60       ?wcschr@@YAPAGPAGG@Z       00439a60 f i DiscImport.obj
 0001:00038ac0       ?GetName@ASBasisGetFunctionName@?1??Init@CDiscImport@@QAEHXZ@QAEXXZ 00439ac0 f   DiscImport.obj
 0001:00038af0       ??0_tagGetImportDiscInfoStruct@@QAE@XZ 00439af0 f i DiscImport.obj
 0001:00038b40       ??1_tagGetImportDiscInfoStruct@@QAE@XZ 00439b40 f i DiscImport.obj
 0001:00038b90       ?UnInit@CDiscImport@@QAEHXZ 00439b90 f   DiscImport.obj
 0001:00038f60       ?HandleJob@CDiscImport@@QAEHPAVPAJob@@@Z 00439f60 f   DiscImport.obj
 0001:0003b540       ?GetImportDevices@CDiscImport@@QAEHPAPAPAGPAJ@Z 0043c540 f   DiscImport.obj
 0001:0003b660       ?GetImportDiscInfoNotify@CDiscImport@@QAEHPBG@Z 0043c660 f   DiscImport.obj
 0001:0003bad0       ?GetImportDiscInfoProc@CDiscImport@@QAEHPAU_tagGetImportDiscInfoStruct@@@Z 0043cad0 f   DiscImport.obj
 0001:0003cec0       ??_GCDcmDirParser@@UAEPAXI@Z 0043dec0 f i DiscImport.obj
 0001:0003cec0       ??_ECDcmDirParser@@UAEPAXI@Z 0043dec0 f i DiscImport.obj
 0001:0003cf40       ??0DICOMDIRPatientInfo@@QAE@XZ 0043df40 f i DiscImport.obj
 0001:0003d000       ??1DICOMDIRPatientInfo@@QAE@XZ 0043e000 f i DiscImport.obj
 0001:0003d0b0       ??0DICOMDIRStudyInfo@@QAE@XZ 0043e0b0 f i DiscImport.obj
 0001:0003d180       ??1DICOMDIRStudyInfo@@QAE@XZ 0043e180 f i DiscImport.obj
 0001:0003d250       ??0DICOMDIRSeriesInfo@@QAE@XZ 0043e250 f i DiscImport.obj
 0001:0003d310       ??1DICOMDIRSeriesInfo@@QAE@XZ 0043e310 f i DiscImport.obj
 0001:0003d3c0       ??0DICOMDIRImageInfo@@QAE@XZ 0043e3c0 f i DiscImport.obj
 0001:0003d490       ??1DICOMDIRImageInfo@@QAE@XZ 0043e490 f i DiscImport.obj
 0001:0003d560       ?GetImportDiscInfo@CDiscImport@@QAEHPAPAU_tagDiscImportPatientInfo@@PAJPAPAU_tagDiscImportStudyInfo@@1PAPAU_tagDiscImportSeriesInfo@@1PAPAU_tagDiscImporImageInfo@@1@Z 0043e560 f   DiscImport.obj
 0001:0003dc90       ?CancelGetImportDiscInfo@CDiscImport@@QAEHXZ 0043ec90 f   DiscImport.obj
 0001:0003dda0       ?CreateJob@CDiscImport@@QAEHPAV?$vector@VCString@@V?$allocator@VCString@@@std@@@std@@W4_PatientAdminUIDType@@@Z 0043eda0 f   DiscImport.obj
 0001:0003e8e0       ??0_TagDiscImportJobSettingsStruct@@QAE@XZ 0043f8e0 f i DiscImport.obj
 0001:0003e980       ??0_tagDiscImport_Image@@QAE@XZ 0043f980 f i DiscImport.obj
 0001:0003eae0       ??1_tagDiscImport_Image@@QAE@XZ 0043fae0 f i DiscImport.obj
 0001:0003ec40       ?GetPatientInfoInDcm@CDiscImport@@AAEHXZ 0043fc40 f   DiscImport.obj
 0001:0003f350       ??_GCDcmParser@@UAEPAXI@Z  00440350 f i DiscImport.obj
 0001:0003f350       ??_ECDcmParser@@UAEPAXI@Z  00440350 f i DiscImport.obj
 0001:0003f3d0       ?ImportImageToDisk@CDiscImport@@AAEHXZ 004403d0 f   DiscImport.obj
 0001:0003fde0       ?IsFileExistInMedia@CDiscImport@@AAEHPBG@Z 00440de0 f   DiscImport.obj
 0001:00040180       ?GetRawDcmFileNameByProcessedDcmFileNameInMedia@CDiscImport@@AAEXAAVCString@@0@Z 00441180 f   DiscImport.obj
 0001:00040210       ?GetPSFileNameByProcessedDcmFileNameInMedia@CDiscImport@@AAEXAAVCString@@0@Z 00441210 f   DiscImport.obj
 0001:000402c0       ?GetJobInfo@CDiscImport@@QAEHPBGPAPAU_tagDiscImport_SeriesStruct@@PAJ@Z 004412c0 f   DiscImport.obj
 0001:00040390       ?GetSubModuleState@CDiscImport@@QAE?AW4_SubModuleState@@XZ 00441390 f   DiscImport.obj
 0001:000403d0       ?HandleWorkBeforeAcq@CDiscImport@@QAEHXZ 004413d0 f   DiscImport.obj
 0001:00040460       ?CancelDiscImportJob@CDiscImport@@QAEHPAVPAJob@@@Z 00441460 f   DiscImport.obj
 0001:000408d0       ?NotifyUG@CDiscImport@@QAEXJW4UserGuidanceType@@W4UserGuidancePriority@@H@Z 004418d0 f   DiscImport.obj
 0001:00040980       ?HandleMessage@CDiscImport@@MAEJPAVNSubject@@IJI@Z 00441980 f   DiscImport.obj
 0001:000409c0       ?SetSubModuleState@CDiscImport@@QAEXW4_SubModuleState@@@Z 004419c0 f   DiscImport.obj
 0001:00040c50       ?ReportGetImportDiscInfoStateAndResult@CDiscImport@@AAEXPBGH@Z 00441c50 f   DiscImport.obj
 0001:00040d70       ?ValidatePatientTotalInfo@CDiscImport@@AAEXPAUDRDcmSysPatientTotalInfoStruct@@@Z 00441d70 f   DiscImport.obj
 0001:00040da0       ?SetImportedSeriesState@CDiscImport@@AAEXIW4_DiscImport_ImageState@@@Z 00441da0 f   DiscImport.obj
 0001:00040fe0       ?SetImportedSeriesProgress@CDiscImport@@AAEXIW4_DiscImport_SeriesProgress@@K@Z 00441fe0 f   DiscImport.obj
 0001:000411f0       ?SetImportedSeriesDetailByDetailInfo@CDiscImport@@AAEXIPBG@Z 004421f0 f   DiscImport.obj
 0001:000413b0       ?SetImportedSeriesDetailByCompletedInfo@CDiscImport@@AAEXIPBG00000@Z 004423b0 f   DiscImport.obj
 0001:00041570       ?ClearCurrentImportedImageInfo@CDiscImport@@AAEXXZ 00442570 f   DiscImport.obj
 0001:000417f0       ?RemoveInfoOfUnproperlyImportedImage@CDiscImport@@AAEHXZ 004427f0 f   DiscImport.obj
 0001:000421a0       ??0?$vector@UDICOMDIRPatientInfo@@V?$allocator@UDICOMDIRPatientInfo@@@std@@@std@@QAE@ABV?$allocator@UDICOMDIRPatientInfo@@@1@@Z 004431a0 f i DiscImport.obj
 0001:00042210       ??1?$vector@UDICOMDIRPatientInfo@@V?$allocator@UDICOMDIRPatientInfo@@@std@@@std@@QAE@XZ 00443210 f i DiscImport.obj
 0001:000422c0       ?size@?$vector@UDICOMDIRPatientInfo@@V?$allocator@UDICOMDIRPatientInfo@@@std@@@std@@QBEIXZ 004432c0 f i DiscImport.obj
 0001:00042320       ??A?$vector@UDICOMDIRPatientInfo@@V?$allocator@UDICOMDIRPatientInfo@@@std@@@std@@QAEAAUDICOMDIRPatientInfo@@I@Z 00443320 f i DiscImport.obj
 0001:00042370       ?push_back@?$vector@UDICOMDIRPatientInfo@@V?$allocator@UDICOMDIRPatientInfo@@@std@@@std@@QAEXABUDICOMDIRPatientInfo@@@Z 00443370 f i DiscImport.obj
 0001:000423d0       ?clear@?$vector@UDICOMDIRPatientInfo@@V?$allocator@UDICOMDIRPatientInfo@@@std@@@std@@QAEXXZ 004433d0 f i DiscImport.obj
 0001:00042430       ??0?$vector@UDICOMDIRStudyInfo@@V?$allocator@UDICOMDIRStudyInfo@@@std@@@std@@QAE@ABV?$allocator@UDICOMDIRStudyInfo@@@1@@Z 00443430 f i DiscImport.obj
 0001:000424a0       ??1?$vector@UDICOMDIRStudyInfo@@V?$allocator@UDICOMDIRStudyInfo@@@std@@@std@@QAE@XZ 004434a0 f i DiscImport.obj
 0001:00042550       ?size@?$vector@UDICOMDIRStudyInfo@@V?$allocator@UDICOMDIRStudyInfo@@@std@@@std@@QBEIXZ 00443550 f i DiscImport.obj
 0001:000425c0       ??A?$vector@UDICOMDIRStudyInfo@@V?$allocator@UDICOMDIRStudyInfo@@@std@@@std@@QAEAAUDICOMDIRStudyInfo@@I@Z 004435c0 f i DiscImport.obj
 0001:00042610       ?push_back@?$vector@UDICOMDIRStudyInfo@@V?$allocator@UDICOMDIRStudyInfo@@@std@@@std@@QAEXABUDICOMDIRStudyInfo@@@Z 00443610 f i DiscImport.obj
 0001:00042670       ?clear@?$vector@UDICOMDIRStudyInfo@@V?$allocator@UDICOMDIRStudyInfo@@@std@@@std@@QAEXXZ 00443670 f i DiscImport.obj
 0001:000426d0       ??0?$vector@UDICOMDIRSeriesInfo@@V?$allocator@UDICOMDIRSeriesInfo@@@std@@@std@@QAE@ABV?$allocator@UDICOMDIRSeriesInfo@@@1@@Z 004436d0 f i DiscImport.obj
 0001:00042740       ??1?$vector@UDICOMDIRSeriesInfo@@V?$allocator@UDICOMDIRSeriesInfo@@@std@@@std@@QAE@XZ 00443740 f i DiscImport.obj
 0001:000427f0       ?size@?$vector@UDICOMDIRSeriesInfo@@V?$allocator@UDICOMDIRSeriesInfo@@@std@@@std@@QBEIXZ 004437f0 f i DiscImport.obj
 0001:00042860       ??A?$vector@UDICOMDIRSeriesInfo@@V?$allocator@UDICOMDIRSeriesInfo@@@std@@@std@@QAEAAUDICOMDIRSeriesInfo@@I@Z 00443860 f i DiscImport.obj
 0001:000428b0       ?push_back@?$vector@UDICOMDIRSeriesInfo@@V?$allocator@UDICOMDIRSeriesInfo@@@std@@@std@@QAEXABUDICOMDIRSeriesInfo@@@Z 004438b0 f i DiscImport.obj
 0001:00042910       ?clear@?$vector@UDICOMDIRSeriesInfo@@V?$allocator@UDICOMDIRSeriesInfo@@@std@@@std@@QAEXXZ 00443910 f i DiscImport.obj
 0001:00042970       ??0?$vector@UDICOMDIRImageInfo@@V?$allocator@UDICOMDIRImageInfo@@@std@@@std@@QAE@ABV?$allocator@UDICOMDIRImageInfo@@@1@@Z 00443970 f i DiscImport.obj
 0001:000429e0       ??1?$vector@UDICOMDIRImageInfo@@V?$allocator@UDICOMDIRImageInfo@@@std@@@std@@QAE@XZ 004439e0 f i DiscImport.obj
 0001:00042a90       ?size@?$vector@UDICOMDIRImageInfo@@V?$allocator@UDICOMDIRImageInfo@@@std@@@std@@QBEIXZ 00443a90 f i DiscImport.obj
 0001:00042b00       ??A?$vector@UDICOMDIRImageInfo@@V?$allocator@UDICOMDIRImageInfo@@@std@@@std@@QAEAAUDICOMDIRImageInfo@@I@Z 00443b00 f i DiscImport.obj
 0001:00042b50       ?push_back@?$vector@UDICOMDIRImageInfo@@V?$allocator@UDICOMDIRImageInfo@@@std@@@std@@QAEXABUDICOMDIRImageInfo@@@Z 00443b50 f i DiscImport.obj
 0001:00042bb0       ?clear@?$vector@UDICOMDIRImageInfo@@V?$allocator@UDICOMDIRImageInfo@@@std@@@std@@QAEXXZ 00443bb0 f i DiscImport.obj
 0001:00042c10       ??0?$vector@U_tagDiscImport_Image@@V?$allocator@U_tagDiscImport_Image@@@std@@@std@@QAE@ABV?$allocator@U_tagDiscImport_Image@@@1@@Z 00443c10 f i DiscImport.obj
 0001:00042c80       ?size@?$vector@U_tagDiscImport_Image@@V?$allocator@U_tagDiscImport_Image@@@std@@@std@@QBEIXZ 00443c80 f i DiscImport.obj
 0001:00042cf0       ??A?$vector@U_tagDiscImport_Image@@V?$allocator@U_tagDiscImport_Image@@@std@@@std@@QAEAAU_tagDiscImport_Image@@I@Z 00443cf0 f i DiscImport.obj
 0001:00042d40       ?push_back@?$vector@U_tagDiscImport_Image@@V?$allocator@U_tagDiscImport_Image@@@std@@@std@@QAEXABU_tagDiscImport_Image@@@Z 00443d40 f i DiscImport.obj
 0001:00042da0       ??0?$vector@U_tagGetImportDiscInfoStruct@@V?$allocator@U_tagGetImportDiscInfoStruct@@@std@@@std@@QAE@ABV?$allocator@U_tagGetImportDiscInfoStruct@@@1@@Z 00443da0 f i DiscImport.obj
 0001:00042e10       ??1?$vector@U_tagGetImportDiscInfoStruct@@V?$allocator@U_tagGetImportDiscInfoStruct@@@std@@@std@@QAE@XZ 00443e10 f i DiscImport.obj
 0001:00042ec0       ?size@?$vector@U_tagGetImportDiscInfoStruct@@V?$allocator@U_tagGetImportDiscInfoStruct@@@std@@@std@@QBEIXZ 00443ec0 f i DiscImport.obj
 0001:00042f30       ??A?$vector@U_tagGetImportDiscInfoStruct@@V?$allocator@U_tagGetImportDiscInfoStruct@@@std@@@std@@QAEAAU_tagGetImportDiscInfoStruct@@I@Z 00443f30 f i DiscImport.obj
 0001:00042f80       ?push_back@?$vector@U_tagGetImportDiscInfoStruct@@V?$allocator@U_tagGetImportDiscInfoStruct@@@std@@@std@@QAEXABU_tagGetImportDiscInfoStruct@@@Z 00443f80 f i DiscImport.obj
 0001:00042fe0       ?clear@?$vector@U_tagGetImportDiscInfoStruct@@V?$allocator@U_tagGetImportDiscInfoStruct@@@std@@@std@@QAEXXZ 00443fe0 f i DiscImport.obj
 0001:00043040       ?begin@?$vector@UDICOMDIRPatientInfo@@V?$allocator@UDICOMDIRPatientInfo@@@std@@@std@@QAEPAUDICOMDIRPatientInfo@@XZ 00444040 f i DiscImport.obj
 0001:00043080       ?end@?$vector@UDICOMDIRPatientInfo@@V?$allocator@UDICOMDIRPatientInfo@@@std@@@std@@QAEPAUDICOMDIRPatientInfo@@XZ 00444080 f i DiscImport.obj
 0001:000430c0       ?insert@?$vector@UDICOMDIRPatientInfo@@V?$allocator@UDICOMDIRPatientInfo@@@std@@@std@@QAEPAUDICOMDIRPatientInfo@@PAU3@ABU3@@Z 004440c0 f i DiscImport.obj
 0001:00043140       ?erase@?$vector@UDICOMDIRPatientInfo@@V?$allocator@UDICOMDIRPatientInfo@@@std@@@std@@QAEPAUDICOMDIRPatientInfo@@PAU3@0@Z 00444140 f i DiscImport.obj
 0001:000431d0       ?_Destroy@?$vector@UDICOMDIRPatientInfo@@V?$allocator@UDICOMDIRPatientInfo@@@std@@@std@@IAEXPAUDICOMDIRPatientInfo@@0@Z 004441d0 f i DiscImport.obj
 0001:00043240       ?deallocate@?$allocator@UDICOMDIRPatientInfo@@@std@@QAEXPAXI@Z 00444240 f i DiscImport.obj
 0001:00043290       ?begin@?$vector@UDICOMDIRStudyInfo@@V?$allocator@UDICOMDIRStudyInfo@@@std@@@std@@QAEPAUDICOMDIRStudyInfo@@XZ 00444290 f i DiscImport.obj
 0001:000432d0       ?end@?$vector@UDICOMDIRStudyInfo@@V?$allocator@UDICOMDIRStudyInfo@@@std@@@std@@QAEPAUDICOMDIRStudyInfo@@XZ 004442d0 f i DiscImport.obj
 0001:00043310       ?insert@?$vector@UDICOMDIRStudyInfo@@V?$allocator@UDICOMDIRStudyInfo@@@std@@@std@@QAEPAUDICOMDIRStudyInfo@@PAU3@ABU3@@Z 00444310 f i DiscImport.obj
 0001:000433a0       ?erase@?$vector@UDICOMDIRStudyInfo@@V?$allocator@UDICOMDIRStudyInfo@@@std@@@std@@QAEPAUDICOMDIRStudyInfo@@PAU3@0@Z 004443a0 f i DiscImport.obj
 0001:00043430       ?_Destroy@?$vector@UDICOMDIRStudyInfo@@V?$allocator@UDICOMDIRStudyInfo@@@std@@@std@@IAEXPAUDICOMDIRStudyInfo@@0@Z 00444430 f i DiscImport.obj
 0001:000434a0       ?deallocate@?$allocator@UDICOMDIRStudyInfo@@@std@@QAEXPAXI@Z 004444a0 f i DiscImport.obj
 0001:000434f0       ?begin@?$vector@UDICOMDIRSeriesInfo@@V?$allocator@UDICOMDIRSeriesInfo@@@std@@@std@@QAEPAUDICOMDIRSeriesInfo@@XZ 004444f0 f i DiscImport.obj
 0001:00043530       ?end@?$vector@UDICOMDIRSeriesInfo@@V?$allocator@UDICOMDIRSeriesInfo@@@std@@@std@@QAEPAUDICOMDIRSeriesInfo@@XZ 00444530 f i DiscImport.obj
 0001:00043570       ?insert@?$vector@UDICOMDIRSeriesInfo@@V?$allocator@UDICOMDIRSeriesInfo@@@std@@@std@@QAEPAUDICOMDIRSeriesInfo@@PAU3@ABU3@@Z 00444570 f i DiscImport.obj
 0001:00043600       ?erase@?$vector@UDICOMDIRSeriesInfo@@V?$allocator@UDICOMDIRSeriesInfo@@@std@@@std@@QAEPAUDICOMDIRSeriesInfo@@PAU3@0@Z 00444600 f i DiscImport.obj
 0001:00043690       ?_Destroy@?$vector@UDICOMDIRSeriesInfo@@V?$allocator@UDICOMDIRSeriesInfo@@@std@@@std@@IAEXPAUDICOMDIRSeriesInfo@@0@Z 00444690 f i DiscImport.obj
 0001:00043700       ?deallocate@?$allocator@UDICOMDIRSeriesInfo@@@std@@QAEXPAXI@Z 00444700 f i DiscImport.obj
 0001:00043750       ?begin@?$vector@UDICOMDIRImageInfo@@V?$allocator@UDICOMDIRImageInfo@@@std@@@std@@QAEPAUDICOMDIRImageInfo@@XZ 00444750 f i DiscImport.obj
 0001:00043790       ?end@?$vector@UDICOMDIRImageInfo@@V?$allocator@UDICOMDIRImageInfo@@@std@@@std@@QAEPAUDICOMDIRImageInfo@@XZ 00444790 f i DiscImport.obj
 0001:000437d0       ?insert@?$vector@UDICOMDIRImageInfo@@V?$allocator@UDICOMDIRImageInfo@@@std@@@std@@QAEPAUDICOMDIRImageInfo@@PAU3@ABU3@@Z 004447d0 f i DiscImport.obj
 0001:00043860       ?erase@?$vector@UDICOMDIRImageInfo@@V?$allocator@UDICOMDIRImageInfo@@@std@@@std@@QAEPAUDICOMDIRImageInfo@@PAU3@0@Z 00444860 f i DiscImport.obj
 0001:000438f0       ?_Destroy@?$vector@UDICOMDIRImageInfo@@V?$allocator@UDICOMDIRImageInfo@@@std@@@std@@IAEXPAUDICOMDIRImageInfo@@0@Z 004448f0 f i DiscImport.obj
 0001:00043960       ?deallocate@?$allocator@UDICOMDIRImageInfo@@@std@@QAEXPAXI@Z 00444960 f i DiscImport.obj
 0001:000439b0       ?begin@?$vector@U_tagDiscImport_Image@@V?$allocator@U_tagDiscImport_Image@@@std@@@std@@QAEPAU_tagDiscImport_Image@@XZ 004449b0 f i DiscImport.obj
 0001:000439f0       ?end@?$vector@U_tagDiscImport_Image@@V?$allocator@U_tagDiscImport_Image@@@std@@@std@@QAEPAU_tagDiscImport_Image@@XZ 004449f0 f i DiscImport.obj
 0001:00043a30       ?insert@?$vector@U_tagDiscImport_Image@@V?$allocator@U_tagDiscImport_Image@@@std@@@std@@QAEPAU_tagDiscImport_Image@@PAU3@ABU3@@Z 00444a30 f i DiscImport.obj
 0001:00043ac0       ?begin@?$vector@U_tagGetImportDiscInfoStruct@@V?$allocator@U_tagGetImportDiscInfoStruct@@@std@@@std@@QAEPAU_tagGetImportDiscInfoStruct@@XZ 00444ac0 f i DiscImport.obj
 0001:00043b00       ?end@?$vector@U_tagGetImportDiscInfoStruct@@V?$allocator@U_tagGetImportDiscInfoStruct@@@std@@@std@@QAEPAU_tagGetImportDiscInfoStruct@@XZ 00444b00 f i DiscImport.obj
 0001:00043b40       ?insert@?$vector@U_tagGetImportDiscInfoStruct@@V?$allocator@U_tagGetImportDiscInfoStruct@@@std@@@std@@QAEPAU_tagGetImportDiscInfoStruct@@PAU3@ABU3@@Z 00444b40 f i DiscImport.obj
 0001:00043bd0       ?erase@?$vector@U_tagGetImportDiscInfoStruct@@V?$allocator@U_tagGetImportDiscInfoStruct@@@std@@@std@@QAEPAU_tagGetImportDiscInfoStruct@@PAU3@0@Z 00444bd0 f i DiscImport.obj
 0001:00043c60       ?_Destroy@?$vector@U_tagGetImportDiscInfoStruct@@V?$allocator@U_tagGetImportDiscInfoStruct@@@std@@@std@@IAEXPAU_tagGetImportDiscInfoStruct@@0@Z 00444c60 f i DiscImport.obj
 0001:00043cd0       ?deallocate@?$allocator@U_tagGetImportDiscInfoStruct@@@std@@QAEXPAXI@Z 00444cd0 f i DiscImport.obj
 0001:00043d20       ?insert@?$vector@UDICOMDIRPatientInfo@@V?$allocator@UDICOMDIRPatientInfo@@@std@@@std@@QAEXPAUDICOMDIRPatientInfo@@IABU3@@Z 00444d20 f i DiscImport.obj
 0001:00044000       ?destroy@?$allocator@UDICOMDIRPatientInfo@@@std@@QAEXPAUDICOMDIRPatientInfo@@@Z 00445000 f i DiscImport.obj
 0001:00044050       ?insert@?$vector@UDICOMDIRStudyInfo@@V?$allocator@UDICOMDIRStudyInfo@@@std@@@std@@QAEXPAUDICOMDIRStudyInfo@@IABU3@@Z 00445050 f i DiscImport.obj
 0001:00044350       ?destroy@?$allocator@UDICOMDIRStudyInfo@@@std@@QAEXPAUDICOMDIRStudyInfo@@@Z 00445350 f i DiscImport.obj
 0001:000443a0       ?insert@?$vector@UDICOMDIRSeriesInfo@@V?$allocator@UDICOMDIRSeriesInfo@@@std@@@std@@QAEXPAUDICOMDIRSeriesInfo@@IABU3@@Z 004453a0 f i DiscImport.obj
 0001:000446a0       ?destroy@?$allocator@UDICOMDIRSeriesInfo@@@std@@QAEXPAUDICOMDIRSeriesInfo@@@Z 004456a0 f i DiscImport.obj
 0001:000446f0       ?insert@?$vector@UDICOMDIRImageInfo@@V?$allocator@UDICOMDIRImageInfo@@@std@@@std@@QAEXPAUDICOMDIRImageInfo@@IABU3@@Z 004456f0 f i DiscImport.obj
 0001:000449f0       ?destroy@?$allocator@UDICOMDIRImageInfo@@@std@@QAEXPAUDICOMDIRImageInfo@@@Z 004459f0 f i DiscImport.obj
 0001:00044a40       ?insert@?$vector@U_tagDiscImport_Image@@V?$allocator@U_tagDiscImport_Image@@@std@@@std@@QAEXPAU_tagDiscImport_Image@@IABU3@@Z 00445a40 f i DiscImport.obj
 0001:00044d40       ?_Destroy@?$vector@U_tagDiscImport_Image@@V?$allocator@U_tagDiscImport_Image@@@std@@@std@@IAEXPAU_tagDiscImport_Image@@0@Z 00445d40 f i DiscImport.obj
 0001:00044db0       ?deallocate@?$allocator@U_tagDiscImport_Image@@@std@@QAEXPAXI@Z 00445db0 f i DiscImport.obj
 0001:00044e00       ?destroy@?$allocator@U_tagDiscImport_Image@@@std@@QAEXPAU_tagDiscImport_Image@@@Z 00445e00 f i DiscImport.obj
 0001:00044e50       ?insert@?$vector@U_tagGetImportDiscInfoStruct@@V?$allocator@U_tagGetImportDiscInfoStruct@@@std@@@std@@QAEXPAU_tagGetImportDiscInfoStruct@@IABU3@@Z 00445e50 f i DiscImport.obj
 0001:00045150       ?destroy@?$allocator@U_tagGetImportDiscInfoStruct@@@std@@QAEXPAU_tagGetImportDiscInfoStruct@@@Z 00446150 f i DiscImport.obj
 0001:000451a0       ?_Ucopy@?$vector@UDICOMDIRPatientInfo@@V?$allocator@UDICOMDIRPatientInfo@@@std@@@std@@IAEPAUDICOMDIRPatientInfo@@PBU3@0PAU3@@Z 004461a0 f i DiscImport.obj
 0001:00045220       ?_Ufill@?$vector@UDICOMDIRPatientInfo@@V?$allocator@UDICOMDIRPatientInfo@@@std@@@std@@IAEXPAUDICOMDIRPatientInfo@@IABU3@@Z 00446220 f i DiscImport.obj
 0001:000452a0       ?allocate@?$allocator@UDICOMDIRPatientInfo@@@std@@QAEPAUDICOMDIRPatientInfo@@IPBX@Z 004462a0 f i DiscImport.obj
 0001:000452f0       ?_Ucopy@?$vector@UDICOMDIRStudyInfo@@V?$allocator@UDICOMDIRStudyInfo@@@std@@@std@@IAEPAUDICOMDIRStudyInfo@@PBU3@0PAU3@@Z 004462f0 f i DiscImport.obj
 0001:00045370       ?_Ufill@?$vector@UDICOMDIRStudyInfo@@V?$allocator@UDICOMDIRStudyInfo@@@std@@@std@@IAEXPAUDICOMDIRStudyInfo@@IABU3@@Z 00446370 f i DiscImport.obj
 0001:000453f0       ?allocate@?$allocator@UDICOMDIRStudyInfo@@@std@@QAEPAUDICOMDIRStudyInfo@@IPBX@Z 004463f0 f i DiscImport.obj
 0001:00045440       ?_Ucopy@?$vector@UDICOMDIRSeriesInfo@@V?$allocator@UDICOMDIRSeriesInfo@@@std@@@std@@IAEPAUDICOMDIRSeriesInfo@@PBU3@0PAU3@@Z 00446440 f i DiscImport.obj
 0001:000454c0       ?_Ufill@?$vector@UDICOMDIRSeriesInfo@@V?$allocator@UDICOMDIRSeriesInfo@@@std@@@std@@IAEXPAUDICOMDIRSeriesInfo@@IABU3@@Z 004464c0 f i DiscImport.obj
 0001:00045540       ?allocate@?$allocator@UDICOMDIRSeriesInfo@@@std@@QAEPAUDICOMDIRSeriesInfo@@IPBX@Z 00446540 f i DiscImport.obj
 0001:00045590       ?_Ucopy@?$vector@UDICOMDIRImageInfo@@V?$allocator@UDICOMDIRImageInfo@@@std@@@std@@IAEPAUDICOMDIRImageInfo@@PBU3@0PAU3@@Z 00446590 f i DiscImport.obj
 0001:00045610       ?_Ufill@?$vector@UDICOMDIRImageInfo@@V?$allocator@UDICOMDIRImageInfo@@@std@@@std@@IAEXPAUDICOMDIRImageInfo@@IABU3@@Z 00446610 f i DiscImport.obj
 0001:00045690       ?allocate@?$allocator@UDICOMDIRImageInfo@@@std@@QAEPAUDICOMDIRImageInfo@@IPBX@Z 00446690 f i DiscImport.obj
 0001:000456e0       ?_Ucopy@?$vector@U_tagDiscImport_Image@@V?$allocator@U_tagDiscImport_Image@@@std@@@std@@IAEPAU_tagDiscImport_Image@@PBU3@0PAU3@@Z 004466e0 f i DiscImport.obj
 0001:00045760       ?_Ufill@?$vector@U_tagDiscImport_Image@@V?$allocator@U_tagDiscImport_Image@@@std@@@std@@IAEXPAU_tagDiscImport_Image@@IABU3@@Z 00446760 f i DiscImport.obj
 0001:000457e0       ?allocate@?$allocator@U_tagDiscImport_Image@@@std@@QAEPAU_tagDiscImport_Image@@IPBX@Z 004467e0 f i DiscImport.obj
 0001:00045830       ?_Ucopy@?$vector@U_tagGetImportDiscInfoStruct@@V?$allocator@U_tagGetImportDiscInfoStruct@@@std@@@std@@IAEPAU_tagGetImportDiscInfoStruct@@PBU3@0PAU3@@Z 00446830 f i DiscImport.obj
 0001:000458b0       ?_Ufill@?$vector@U_tagGetImportDiscInfoStruct@@V?$allocator@U_tagGetImportDiscInfoStruct@@@std@@@std@@IAEXPAU_tagGetImportDiscInfoStruct@@IABU3@@Z 004468b0 f i DiscImport.obj
 0001:00045930       ?allocate@?$allocator@U_tagGetImportDiscInfoStruct@@@std@@QAEPAU_tagGetImportDiscInfoStruct@@IPBX@Z 00446930 f i DiscImport.obj
 0001:00045980       ?construct@?$allocator@UDICOMDIRPatientInfo@@@std@@QAEXPAUDICOMDIRPatientInfo@@ABU3@@Z 00446980 f i DiscImport.obj
 0001:000459d0       ?construct@?$allocator@UDICOMDIRStudyInfo@@@std@@QAEXPAUDICOMDIRStudyInfo@@ABU3@@Z 004469d0 f i DiscImport.obj
 0001:00045a20       ?construct@?$allocator@UDICOMDIRSeriesInfo@@@std@@QAEXPAUDICOMDIRSeriesInfo@@ABU3@@Z 00446a20 f i DiscImport.obj
 0001:00045a70       ?construct@?$allocator@UDICOMDIRImageInfo@@@std@@QAEXPAUDICOMDIRImageInfo@@ABU3@@Z 00446a70 f i DiscImport.obj
 0001:00045ac0       ?construct@?$allocator@U_tagDiscImport_Image@@@std@@QAEXPAU_tagDiscImport_Image@@ABU3@@Z 00446ac0 f i DiscImport.obj
 0001:00045b10       ?construct@?$allocator@U_tagGetImportDiscInfoStruct@@@std@@QAEXPAU_tagGetImportDiscInfoStruct@@ABU3@@Z 00446b10 f i DiscImport.obj
 0001:00045b60       ?copy@std@@YAPAUDICOMDIRPatientInfo@@PAU2@00@Z 00446b60 f i DiscImport.obj
 0001:00045bd0       ?copy@std@@YAPAUDICOMDIRStudyInfo@@PAU2@00@Z 00446bd0 f i DiscImport.obj
 0001:00045c40       ?copy@std@@YAPAUDICOMDIRSeriesInfo@@PAU2@00@Z 00446c40 f i DiscImport.obj
 0001:00045cb0       ?copy@std@@YAPAUDICOMDIRImageInfo@@PAU2@00@Z 00446cb0 f i DiscImport.obj
 0001:00045d20       ?copy@std@@YAPAU_tagGetImportDiscInfoStruct@@PAU2@00@Z 00446d20 f i DiscImport.obj
 0001:00045d90       ?fill@std@@YAXPAUDICOMDIRPatientInfo@@0ABU2@@Z 00446d90 f i DiscImport.obj
 0001:00045df0       ?copy_backward@std@@YAPAUDICOMDIRPatientInfo@@PAU2@00@Z 00446df0 f i DiscImport.obj
 0001:00045e60       ?_Destroy@std@@YAXPAUDICOMDIRPatientInfo@@@Z 00446e60 f i DiscImport.obj
 0001:00045ea0       ?fill@std@@YAXPAUDICOMDIRStudyInfo@@0ABU2@@Z 00446ea0 f i DiscImport.obj
 0001:00045f00       ?copy_backward@std@@YAPAUDICOMDIRStudyInfo@@PAU2@00@Z 00446f00 f i DiscImport.obj
 0001:00045f70       ?_Destroy@std@@YAXPAUDICOMDIRStudyInfo@@@Z 00446f70 f i DiscImport.obj
 0001:00045fb0       ?fill@std@@YAXPAUDICOMDIRSeriesInfo@@0ABU2@@Z 00446fb0 f i DiscImport.obj
 0001:00046010       ?copy_backward@std@@YAPAUDICOMDIRSeriesInfo@@PAU2@00@Z 00447010 f i DiscImport.obj
 0001:00046080       ?_Destroy@std@@YAXPAUDICOMDIRSeriesInfo@@@Z 00447080 f i DiscImport.obj
 0001:000460c0       ?fill@std@@YAXPAUDICOMDIRImageInfo@@0ABU2@@Z 004470c0 f i DiscImport.obj
 0001:00046120       ?copy_backward@std@@YAPAUDICOMDIRImageInfo@@PAU2@00@Z 00447120 f i DiscImport.obj
 0001:00046190       ?_Destroy@std@@YAXPAUDICOMDIRImageInfo@@@Z 00447190 f i DiscImport.obj
 0001:000461d0       ?fill@std@@YAXPAU_tagDiscImport_Image@@0ABU2@@Z 004471d0 f i DiscImport.obj
 0001:00046230       ?copy_backward@std@@YAPAU_tagDiscImport_Image@@PAU2@00@Z 00447230 f i DiscImport.obj
 0001:000462a0       ?_Destroy@std@@YAXPAU_tagDiscImport_Image@@@Z 004472a0 f i DiscImport.obj
 0001:000462e0       ?fill@std@@YAXPAU_tagGetImportDiscInfoStruct@@0ABU2@@Z 004472e0 f i DiscImport.obj
 0001:00046340       ?copy_backward@std@@YAPAU_tagGetImportDiscInfoStruct@@PAU2@00@Z 00447340 f i DiscImport.obj
 0001:000463b0       ?_Destroy@std@@YAXPAU_tagGetImportDiscInfoStruct@@@Z 004473b0 f i DiscImport.obj
 0001:000463f0       ?_Allocate@std@@YAPAUDICOMDIRPatientInfo@@HPAU2@@Z 004473f0 f i DiscImport.obj
 0001:00046450       ?_Allocate@std@@YAPAUDICOMDIRStudyInfo@@HPAU2@@Z 00447450 f i DiscImport.obj
 0001:000464b0       ?_Allocate@std@@YAPAUDICOMDIRSeriesInfo@@HPAU2@@Z 004474b0 f i DiscImport.obj
 0001:00046510       ?_Allocate@std@@YAPAUDICOMDIRImageInfo@@HPAU2@@Z 00447510 f i DiscImport.obj
 0001:00046570       ?_Allocate@std@@YAPAU_tagDiscImport_Image@@HPAU2@@Z 00447570 f i DiscImport.obj
 0001:000465d0       ?_Allocate@std@@YAPAU_tagGetImportDiscInfoStruct@@HPAU2@@Z 004475d0 f i DiscImport.obj
 0001:00046630       ?_Construct@std@@YAXPAUDICOMDIRPatientInfo@@ABU2@@Z 00447630 f i DiscImport.obj
 0001:000466e0       ?_Construct@std@@YAXPAUDICOMDIRStudyInfo@@ABU2@@Z 004476e0 f i DiscImport.obj
 0001:00046790       ?_Construct@std@@YAXPAUDICOMDIRSeriesInfo@@ABU2@@Z 00447790 f i DiscImport.obj
 0001:00046840       ?_Construct@std@@YAXPAUDICOMDIRImageInfo@@ABU2@@Z 00447840 f i DiscImport.obj
 0001:000468f0       ?_Construct@std@@YAXPAU_tagDiscImport_Image@@ABU2@@Z 004478f0 f i DiscImport.obj
 0001:000469a0       ?_Construct@std@@YAXPAU_tagGetImportDiscInfoStruct@@ABU2@@Z 004479a0 f i DiscImport.obj
 0001:00046a50       ??4DICOMDIRPatientInfo@@QAEAAU0@ABU0@@Z 00447a50 f i DiscImport.obj
 0001:00046b10       ??4DICOMDIRStudyInfo@@QAEAAU0@ABU0@@Z 00447b10 f i DiscImport.obj
 0001:00046be0       ??4DICOMDIRSeriesInfo@@QAEAAU0@ABU0@@Z 00447be0 f i DiscImport.obj
 0001:00046c90       ??4DICOMDIRImageInfo@@QAEAAU0@ABU0@@Z 00447c90 f i DiscImport.obj
 0001:00046d60       ??4_tagGetImportDiscInfoStruct@@QAEAAU0@ABU0@@Z 00447d60 f i DiscImport.obj
 0001:00046df0       ??_GDICOMDIRPatientInfo@@QAEPAXI@Z 00447df0 f i DiscImport.obj
 0001:00046e60       ??_GDICOMDIRStudyInfo@@QAEPAXI@Z 00447e60 f i DiscImport.obj
 0001:00046ed0       ??_GDICOMDIRSeriesInfo@@QAEPAXI@Z 00447ed0 f i DiscImport.obj
 0001:00046f40       ??_GDICOMDIRImageInfo@@QAEPAXI@Z 00447f40 f i DiscImport.obj
 0001:00046fb0       ??4_tagDiscImport_Image@@QAEAAU0@ABU0@@Z 00447fb0 f i DiscImport.obj
 0001:00047120       ??_G_tagDiscImport_Image@@QAEPAXI@Z 00448120 f i DiscImport.obj
 0001:00047190       ??_G_tagGetImportDiscInfoStruct@@QAEPAXI@Z 00448190 f i DiscImport.obj
 0001:00047200       ??0DICOMDIRPatientInfo@@QAE@ABU0@@Z 00448200 f i DiscImport.obj
 0001:00047300       ??0DICOMDIRStudyInfo@@QAE@ABU0@@Z 00448300 f i DiscImport.obj
 0001:00047420       ??0DICOMDIRSeriesInfo@@QAE@ABU0@@Z 00448420 f i DiscImport.obj
 0001:00047510       ??0DICOMDIRImageInfo@@QAE@ABU0@@Z 00448510 f i DiscImport.obj
 0001:00047620       ??0_tagDiscImport_Image@@QAE@ABU0@@Z 00448620 f i DiscImport.obj
 0001:00047800       ??0_tagGetImportDiscInfoStruct@@QAE@ABU0@@Z 00448800 f i DiscImport.obj
 0001:00047890       ?FCMonitorThreadProc@@YGKPAX@Z 00448890 f   FCPartner.obj
 0001:00047950       ??0CFCPartner@@QAE@XZ      00448950 f   FCPartner.obj
 0001:00047aa0       ??_ECFCPartner@@UAEPAXI@Z  00448aa0 f i FCPartner.obj
 0001:00047aa0       ??_GCFCPartner@@UAEPAXI@Z  00448aa0 f i FCPartner.obj
 0001:00047b10       ??1CFCPartner@@UAE@XZ      00448b10 f   FCPartner.obj
 0001:00047bd0       ?Init@CFCPartner@@QAEHXZ   00448bd0 f   FCPartner.obj
 0001:00047db0       ?UnInit@CFCPartner@@QAEHXZ 00448db0 f   FCPartner.obj
 0001:00048050       ?StartUpFilmComposer@CFCPartner@@QAEHXZ 00449050 f   FCPartner.obj
 0001:00048470       ?ShutDownFilmComposer@CFCPartner@@QAEHXZ 00449470 f   FCPartner.obj
 0001:00048780       ?GetFCHandle@CFCPartner@@QAEHXZ 00449780 f   FCPartner.obj
 0001:000489f0       ?FCMonitorProc@CFCPartner@@QAEHXZ 004499f0 f   FCPartner.obj
 0001:00048b50       ?SetConnection@CFCPartner@@AAEHXZ 00449b50 f   FCPartner.obj
 0001:00048c70       ?Disconnection@CFCPartner@@AAEHXZ 00449c70 f   FCPartner.obj
 0001:00048d10       ?SendCMDLine@CFCPartner@@QAEHAAVCString@@@Z 00449d10 f   FCPartner.obj
 0001:00048e30       ?LoadImageW@CFCPartner@@QAEHAAVCString@@@Z 00449e30 f   FCPartner.obj
 0001:00048fb0       ?LoadImages@CFCPartner@@QAEHPAV?$vector@VCString@@V?$allocator@VCString@@@std@@@std@@PAH@Z 00449fb0 f   FCPartner.obj
 0001:00049350       ?SetRowAndCol@CFCPartner@@QAEHII@Z 0044a350 f   FCPartner.obj
 0001:00049520       ?SaveSession@CFCPartner@@QAEHXZ 0044a520 f   FCPartner.obj
 0001:00049560       ?CancelPrinting@CFCPartner@@QAEHXZ 0044a560 f   FCPartner.obj
 0001:000495a0       ?IsFCPrinting@CFCPartner@@QAEHXZ 0044a5a0 f   FCPartner.obj
 0001:000495f0       ?EnableLoadImage@CFCPartner@@QAEXXZ 0044a5f0 f   FCPartner.obj
 0001:00049650       ?DisableLoadImage@CFCPartner@@QAEXXZ 0044a650 f   FCPartner.obj
 0001:000496b0       ?PQStateChangeNotify@CFCPartner@@QAEXPBGW4__MIDL___MIDL_itf_PrintQueueManager_0000_0002@@@Z 0044a6b0 f   FCPartner.obj
 0001:00049d30       ?GetFCFullPath@CFCPartner@@AAE?AVCString@@XZ 0044ad30 f   FCPartner.obj
 0001:00049fa0       ?wcsrchr@@YAPAGPAGG@Z      0044afa0 f i FCPartner.obj
 0001:0004a000       ??0CRect@@QAE@XZ           0044b000 f i FCPartner.obj
 0001:0004a030       ??0CFilePicker@@QAE@XZ     0044b030 f   FilePicker.obj
 0001:0004a150       ??_GCFilePicker@@UAEPAXI@Z 0044b150 f i FilePicker.obj
 0001:0004a150       ??_ECFilePicker@@UAEPAXI@Z 0044b150 f i FilePicker.obj
 0001:0004a1c0       ??1?$stack@VCString@@V?$deque@VCString@@V?$allocator@VCString@@@std@@@std@@@std@@QAE@XZ 0044b1c0 f i FilePicker.obj
 0001:0004a210       ??1?$stack@PAXV?$deque@PAXV?$allocator@PAX@std@@@std@@@std@@QAE@XZ 0044b210 f i FilePicker.obj
 0001:0004a260       ??0CFilePicker@@QAE@AAVCString@@@Z 0044b260 f   FilePicker.obj
 0001:0004a3a0       ??1CFilePicker@@UAE@XZ     0044b3a0 f   FilePicker.obj
 0001:0004a480       ?GetFile@CFilePicker@@QAE?AVCString@@XZ 0044b480 f   FilePicker.obj
 0001:0004aa40       ?GetFile@CFilePicker@@QAEHAAVCString@@@Z 0044ba40 f   FilePicker.obj
 0001:0004afd0       ?GetDirOrFile@CFilePicker@@QAEHAAVCString@@AAH@Z 0044bfd0 f   FilePicker.obj
 0001:0004b5e0       ?GetDirOrFileEx@CFilePicker@@QAEHAAVCString@@AAH@Z 0044c5e0 f   FilePicker.obj
 0001:0004b620       ?SetDir@CFilePicker@@QAEXVCString@@@Z 0044c620 f   FilePicker.obj
 0001:0004b710       ?Clear@CFilePicker@@QAEXXZ 0044c710 f   FilePicker.obj
 0001:0004b830       ?GetFileCount@CFilePicker@@QAEHPAIH@Z 0044c830 f   FilePicker.obj
 0001:0004b8b0       ?GetDirCount@CFilePicker@@QAEHPAIH@Z 0044c8b0 f   FilePicker.obj
 0001:0004b930       ?GetTotalSize@CFilePicker@@QAEHPA_JH@Z 0044c930 f   FilePicker.obj
 0001:0004b9b0       ?GetDirInfo@CFilePicker@@AAEHXZ 0044c9b0 f   FilePicker.obj
 0001:0004c2b0       ?IsDir@CFilePicker@@AAEHAAVCString@@@Z 0044d2b0 f   FilePicker.obj
 0001:0004c330       ??0?$stack@VCString@@V?$deque@VCString@@V?$allocator@VCString@@@std@@@std@@@std@@QAE@ABV?$allocator@VCString@@@1@@Z 0044d330 f i FilePicker.obj
 0001:0004c380       ?empty@?$stack@VCString@@V?$deque@VCString@@V?$allocator@VCString@@@std@@@std@@@std@@QBE_NXZ 0044d380 f i FilePicker.obj
 0001:0004c3d0       ?top@?$stack@VCString@@V?$deque@VCString@@V?$allocator@VCString@@@std@@@std@@@std@@QAEAAVCString@@XZ 0044d3d0 f i FilePicker.obj
 0001:0004c420       ?push@?$stack@VCString@@V?$deque@VCString@@V?$allocator@VCString@@@std@@@std@@@std@@QAEXABVCString@@@Z 0044d420 f i FilePicker.obj
 0001:0004c470       ?pop@?$stack@VCString@@V?$deque@VCString@@V?$allocator@VCString@@@std@@@std@@@std@@QAEXXZ 0044d470 f i FilePicker.obj
 0001:0004c4c0       ??1?$deque@VCString@@V?$allocator@VCString@@@std@@@std@@QAE@XZ 0044d4c0 f i FilePicker.obj
 0001:0004c520       ??0?$stack@PAXV?$deque@PAXV?$allocator@PAX@std@@@std@@@std@@QAE@ABV?$allocator@PAX@1@@Z 0044d520 f i FilePicker.obj
 0001:0004c570       ?empty@?$stack@PAXV?$deque@PAXV?$allocator@PAX@std@@@std@@@std@@QBE_NXZ 0044d570 f i FilePicker.obj
 0001:0004c5c0       ?top@?$stack@PAXV?$deque@PAXV?$allocator@PAX@std@@@std@@@std@@QAEAAPAXXZ 0044d5c0 f i FilePicker.obj
 0001:0004c610       ?push@?$stack@PAXV?$deque@PAXV?$allocator@PAX@std@@@std@@@std@@QAEXABQAX@Z 0044d610 f i FilePicker.obj
 0001:0004c660       ?pop@?$stack@PAXV?$deque@PAXV?$allocator@PAX@std@@@std@@@std@@QAEXXZ 0044d660 f i FilePicker.obj
 0001:0004c6b0       ??1?$deque@PAXV?$allocator@PAX@std@@@std@@QAE@XZ 0044d6b0 f i FilePicker.obj
 0001:0004c710       ??0?$deque@VCString@@V?$allocator@VCString@@@std@@@std@@QAE@ABV?$allocator@VCString@@@1@@Z 0044d710 f i FilePicker.obj
 0001:0004c7a0       ?empty@?$deque@VCString@@V?$allocator@VCString@@@std@@@std@@QBE_NXZ 0044d7a0 f i FilePicker.obj
 0001:0004c7f0       ?back@?$deque@VCString@@V?$allocator@VCString@@@std@@@std@@QAEAAVCString@@XZ 0044d7f0 f i FilePicker.obj
 0001:0004c860       ?pop_front@?$deque@VCString@@V?$allocator@VCString@@@std@@@std@@QAEXXZ 0044d860 f i FilePicker.obj
 0001:0004c910       ?push_back@?$deque@VCString@@V?$allocator@VCString@@@std@@@std@@QAEXABVCString@@@Z 0044d910 f i FilePicker.obj
 0001:0004ca50       ?pop_back@?$deque@VCString@@V?$allocator@VCString@@@std@@@std@@QAEXXZ 0044da50 f i FilePicker.obj
 0001:0004cb20       ??0?$deque@PAXV?$allocator@PAX@std@@@std@@QAE@ABV?$allocator@PAX@1@@Z 0044db20 f i FilePicker.obj
 0001:0004cbb0       ?empty@?$deque@PAXV?$allocator@PAX@std@@@std@@QBE_NXZ 0044dbb0 f i FilePicker.obj
 0001:0004cc00       ?back@?$deque@PAXV?$allocator@PAX@std@@@std@@QAEAAPAXXZ 0044dc00 f i FilePicker.obj
 0001:0004cc70       ?pop_front@?$deque@PAXV?$allocator@PAX@std@@@std@@QAEXXZ 0044dc70 f i FilePicker.obj
 0001:0004cd20       ?push_back@?$deque@PAXV?$allocator@PAX@std@@@std@@QAEXABQAX@Z 0044dd20 f i FilePicker.obj
 0001:0004ce60       ?pop_back@?$deque@PAXV?$allocator@PAX@std@@@std@@QAEXXZ 0044de60 f i FilePicker.obj
 0001:0004cf30       ?end@?$deque@VCString@@V?$allocator@VCString@@@std@@@std@@QAE?AViterator@12@XZ 0044df30 f i FilePicker.obj
 0001:0004cf90       ?size@?$deque@VCString@@V?$allocator@VCString@@@std@@@std@@QBEIXZ 0044df90 f i FilePicker.obj
 0001:0004cfd0       ?_Buyback@?$deque@VCString@@V?$allocator@VCString@@@std@@@std@@IAEXXZ 0044dfd0 f i FilePicker.obj
 0001:0004d250       ?_Freeback@?$deque@VCString@@V?$allocator@VCString@@@std@@@std@@IAEXXZ 0044e250 f i FilePicker.obj
 0001:0004d3a0       ?_Freefront@?$deque@VCString@@V?$allocator@VCString@@@std@@@std@@IAEXXZ 0044e3a0 f i FilePicker.obj
 0001:0004d4c0       ??0iterator@?$deque@VCString@@V?$allocator@VCString@@@std@@@std@@QAE@XZ 0044e4c0 f i FilePicker.obj
 0001:0004d510       ??Diterator@?$deque@VCString@@V?$allocator@VCString@@@std@@@std@@QBEAAVCString@@XZ 0044e510 f i FilePicker.obj
 0001:0004d550       ??Giterator@?$deque@VCString@@V?$allocator@VCString@@@std@@@std@@QBE?AV012@H@Z 0044e550 f i FilePicker.obj
 0001:0004d5e0       ?end@?$deque@PAXV?$allocator@PAX@std@@@std@@QAE?AViterator@12@XZ 0044e5e0 f i FilePicker.obj
 0001:0004d640       ?size@?$deque@PAXV?$allocator@PAX@std@@@std@@QBEIXZ 0044e640 f i FilePicker.obj
 0001:0004d680       ?_Buyback@?$deque@PAXV?$allocator@PAX@std@@@std@@IAEXXZ 0044e680 f i FilePicker.obj
 0001:0004d900       ?_Freeback@?$deque@PAXV?$allocator@PAX@std@@@std@@IAEXXZ 0044e900 f i FilePicker.obj
 0001:0004da50       ?_Freefront@?$deque@PAXV?$allocator@PAX@std@@@std@@IAEXXZ 0044ea50 f i FilePicker.obj
 0001:0004db70       ?construct@?$allocator@PAX@std@@QAEXPAPAXABQAX@Z 0044eb70 f i FilePicker.obj
 0001:0004dbc0       ?destroy@?$allocator@PAX@std@@QAEXPAPAX@Z 0044ebc0 f i FilePicker.obj
 0001:0004dc10       ??0iterator@?$deque@PAXV?$allocator@PAX@std@@@std@@QAE@XZ 0044ec10 f i FilePicker.obj
 0001:0004dc60       ??Diterator@?$deque@PAXV?$allocator@PAX@std@@@std@@QBEAAPAXXZ 0044ec60 f i FilePicker.obj
 0001:0004dca0       ??Giterator@?$deque@PAXV?$allocator@PAX@std@@@std@@QBE?AV012@H@Z 0044eca0 f i FilePicker.obj
 0001:0004dd30       ?_Freemap@?$deque@VCString@@V?$allocator@VCString@@@std@@@std@@IAEXXZ 0044ed30 f i FilePicker.obj
 0001:0004dd90       ?_Freeptr@?$deque@VCString@@V?$allocator@VCString@@@std@@@std@@IAEXPAPAVCString@@@Z 0044ed90 f i FilePicker.obj
 0001:0004ddf0       ?_Getmap@?$deque@VCString@@V?$allocator@VCString@@@std@@@std@@IAEXXZ 0044edf0 f i FilePicker.obj
 0001:0004de50       ?_Growmap@?$deque@VCString@@V?$allocator@VCString@@@std@@@std@@IAEPAPAVCString@@I@Z 0044ee50 f i FilePicker.obj
 0001:0004df20       ?_Setptr@?$deque@VCString@@V?$allocator@VCString@@@std@@@std@@IAEXPAPAVCString@@PAV3@@Z 0044ef20 f i FilePicker.obj
 0001:0004df60       ??0const_iterator@?$deque@VCString@@V?$allocator@VCString@@@std@@@std@@QAE@XZ 0044ef60 f i FilePicker.obj
 0001:0004dfd0       ??0iterator@?$deque@VCString@@V?$allocator@VCString@@@std@@@std@@QAE@PAVCString@@PAPAV3@@Z 0044efd0 f i FilePicker.obj
 0001:0004e030       ??Ziterator@?$deque@VCString@@V?$allocator@VCString@@@std@@@std@@QAEAAV012@H@Z 0044f030 f i FilePicker.obj
 0001:0004e080       ?_Freemap@?$deque@PAXV?$allocator@PAX@std@@@std@@IAEXXZ 0044f080 f i FilePicker.obj
 0001:0004e0e0       ?_Freeptr@?$deque@PAXV?$allocator@PAX@std@@@std@@IAEXPAPAPAX@Z 0044f0e0 f i FilePicker.obj
 0001:0004e140       ?_Getmap@?$deque@PAXV?$allocator@PAX@std@@@std@@IAEXXZ 0044f140 f i FilePicker.obj
 0001:0004e1a0       ?_Growmap@?$deque@PAXV?$allocator@PAX@std@@@std@@IAEPAPAPAXI@Z 0044f1a0 f i FilePicker.obj
 0001:0004e270       ?_Setptr@?$deque@PAXV?$allocator@PAX@std@@@std@@IAEXPAPAPAXPAPAX@Z 0044f270 f i FilePicker.obj
 0001:0004e2b0       ?allocate@?$allocator@PAX@std@@QAEPAPAXIPBX@Z 0044f2b0 f i FilePicker.obj
 0001:0004e300       ??0const_iterator@?$deque@PAXV?$allocator@PAX@std@@@std@@QAE@XZ 0044f300 f i FilePicker.obj
 0001:0004e370       ??0iterator@?$deque@PAXV?$allocator@PAX@std@@@std@@QAE@PAPAXPAPAPAX@Z 0044f370 f i FilePicker.obj
 0001:0004e3d0       ??Ziterator@?$deque@PAXV?$allocator@PAX@std@@@std@@QAEAAV012@H@Z 0044f3d0 f i FilePicker.obj
 0001:0004e420       ?_Charalloc@?$allocator@VCString@@@std@@QAEPADI@Z 0044f420 f i FilePicker.obj
 0001:0004e470       ??0const_iterator@?$deque@VCString@@V?$allocator@VCString@@@std@@@std@@QAE@PAVCString@@PAPAV3@@Z 0044f470 f i FilePicker.obj
 0001:0004e4e0       ??Yiterator@?$deque@VCString@@V?$allocator@VCString@@@std@@@std@@QAEAAV012@H@Z 0044f4e0 f i FilePicker.obj
 0001:0004e530       ?_Charalloc@?$allocator@PAX@std@@QAEPADI@Z 0044f530 f i FilePicker.obj
 0001:0004e580       ?deallocate@?$allocator@PAX@std@@QAEXPAXI@Z 0044f580 f i FilePicker.obj
 0001:0004e5d0       ??0const_iterator@?$deque@PAXV?$allocator@PAX@std@@@std@@QAE@PAPAXPAPAPAX@Z 0044f5d0 f i FilePicker.obj
 0001:0004e640       ??Yiterator@?$deque@PAXV?$allocator@PAX@std@@@std@@QAEAAV012@H@Z 0044f640 f i FilePicker.obj
 0001:0004e690       ?_Add@const_iterator@?$deque@VCString@@V?$allocator@VCString@@@std@@@std@@IAEXH@Z 0044f690 f i FilePicker.obj
 0001:0004e790       ?_Add@const_iterator@?$deque@PAXV?$allocator@PAX@std@@@std@@IAEXH@Z 0044f790 f i FilePicker.obj
 0001:0004e890       ?_Allocate@std@@YAPADHPAD@Z 0044f890 f i FilePicker.obj
 0001:0004e8f0       ?_Construct@std@@YAXPAPAXABQAX@Z 0044f8f0 f i FilePicker.obj
 0001:0004e960       ?_Destroy@std@@YAXPAPAX@Z  0044f960 f i FilePicker.obj
 0001:0004e990       ?copy@std@@YAPAPAVCString@@PAPAV2@00@Z 0044f990 f i FilePicker.obj
 0001:0004e9f0       ?copy@std@@YAPAPAPAXPAPAPAX00@Z 0044f9f0 f i FilePicker.obj
 0001:0004ea50       ?_Allocate@std@@YAPAPAXHPAPAX@Z 0044fa50 f i FilePicker.obj
 0001:0004eab0       ??0CFireMsgQueue@@QAE@XZ   0044fab0 f   FireMsgQueue.obj
 0001:0004eb30       ??_ECFireMsgQueue@@UAEPAXI@Z 0044fb30 f i FireMsgQueue.obj
 0001:0004eb30       ??_GCFireMsgQueue@@UAEPAXI@Z 0044fb30 f i FireMsgQueue.obj
 0001:0004eba0       ??1CFireMsgQueue@@UAE@XZ   0044fba0 f   FireMsgQueue.obj
 0001:0004ec40       ?PushPAMsg@CFireMsgQueue@@QAEHAAU_FireMsgNode@@@Z 0044fc40 f   FireMsgQueue.obj
 0001:0004edd0       ?PullPAMsg@CFireMsgQueue@@QAEHAAU_FireMsgNode@@@Z 0044fdd0 f   FireMsgQueue.obj
 0001:0004ef40       ?ClearQueque@CFireMsgQueue@@QAEHXZ 0044ff40 f   FireMsgQueue.obj
 0001:0004f060       ?GetMsgNumber@CFireMsgQueue@@QAEFXZ 00450060 f   FireMsgQueue.obj
 0001:0004f0a0       ?HandleMsgThreadProc@@YGKPAX@Z 004500a0 f   FireMsgQueueMng.obj
 0001:0004f180       ??0CFireMsgQueueMng@@AAE@XZ 00450180 f   FireMsgQueueMng.obj
 0001:0004f250       ??_ECFireMsgQueueMng@@UAEPAXI@Z 00450250 f i FireMsgQueueMng.obj
 0001:0004f250       ??_GCFireMsgQueueMng@@UAEPAXI@Z 00450250 f i FireMsgQueueMng.obj
 0001:0004f2c0       ??1CFireMsgQueueMng@@UAE@XZ 004502c0 f   FireMsgQueueMng.obj
 0001:0004f360       ?GetInstance@CFireMsgQueueMng@@SAPAV1@XZ 00450360 f   FireMsgQueueMng.obj
 0001:0004f420       ?ReleaseInstance@CFireMsgQueueMng@@QAEXXZ 00450420 f   FireMsgQueueMng.obj
 0001:0004f4c0       ?Init@CFireMsgQueueMng@@QAEHPAVCPA@@@Z 004504c0 f   FireMsgQueueMng.obj
 0001:0004f5b0       ?UnInit@CFireMsgQueueMng@@QAEHXZ 004505b0 f   FireMsgQueueMng.obj
 0001:0004f7f0       ?PushMsg@CFireMsgQueueMng@@QAEHAAU_FireMsgNode@@@Z 004507f0 f   FireMsgQueueMng.obj
 0001:0004f870       ?HandleMsg@CFireMsgQueueMng@@QAEHXZ 00450870 f   FireMsgQueueMng.obj
 0001:00050430       ?Fire_ReportBurnWorkStatus@?$CProxyIPABurnEvent@VCPA@@@@QAEJW4_SubModule@@W4_SubModuleState@@@Z 00451430 f i FireMsgQueueMng.obj
 0001:00050590       ??1?$CComPtr@UIUnknown@@@ATL@@QAE@XZ 00451590 f i FireMsgQueueMng.obj
 0001:00050600       ?Lock@?$CComObjectRootEx@VCComMultiThreadModel@ATL@@@ATL@@QAEXXZ 00451600 f i FireMsgQueueMng.obj
 0001:00050650       ?Unlock@?$CComObjectRootEx@VCComMultiThreadModel@ATL@@@ATL@@QAEXXZ 00451650 f i FireMsgQueueMng.obj
 0001:000506a0       ?Lock@CComAutoCriticalSection@ATL@@QAEXXZ 004516a0 f i FireMsgQueueMng.obj
 0001:00050700       ?Unlock@CComAutoCriticalSection@ATL@@QAEXXZ 00451700 f i FireMsgQueueMng.obj
 0001:00050760       ?Fire_ReportBurnDeviceStatusChanged@?$CProxyIPABurnEvent@VCPA@@@@QAEJXZ 00451760 f i FireMsgQueueMng.obj
 0001:000508b0       ?Fire_ReportBurnErrorCode@?$CProxyIPABurnEvent@VCPA@@@@QAEJH@Z 004518b0 f i FireMsgQueueMng.obj
 0001:00050a10       ?Fire_ReportBurnPatientList@?$CProxyIPABurnEvent@VCPA@@@@QAEJJPAU_tagBurnPatientInfoStruct@@@Z 00451a10 f i FireMsgQueueMng.obj
 0001:00050b70       ?Fire_ReportBurnStudyList@?$CProxyIPABurnEvent@VCPA@@@@QAEJJPAU_tagBurnStudyInfoStruct@@@Z 00451b70 f i FireMsgQueueMng.obj
 0001:00050cd0       ?Fire_ReportBurnSeriesList@?$CProxyIPABurnEvent@VCPA@@@@QAEJJPAU_tagBurnSeriesInfoStruct@@@Z 00451cd0 f i FireMsgQueueMng.obj
 0001:00050e30       ?Fire_ReportBurnImageList@?$CProxyIPABurnEvent@VCPA@@@@QAEJJPAU_tagBurnImageInfoStruct@@@Z 00451e30 f i FireMsgQueueMng.obj
 0001:00050f90       ?Fire_ReportDeviceSpeedInfo@?$CProxyIPABurnEvent@VCPA@@@@QAEJJPAU_tagBurnSpeedInfo@@@Z 00451f90 f i FireMsgQueueMng.obj
 0001:000510f0       ?Fire_ReportMediaInfo@?$CProxyIPABurnEvent@VCPA@@@@QAEJPAU_tagBurnMediaInfo@@@Z 004520f0 f i FireMsgQueueMng.obj
 0001:00051250       ?Fire_ReportBurnMediaNotReady@?$CProxyIPABurnEvent@VCPA@@@@QAEJPAG@Z 00452250 f i FireMsgQueueMng.obj
 0001:000513b0       ?Fire_ReportStartupResult@?$CProxyIGeneralEvent@VCPA@@@@QAEJW4_STARTUPRESULT@@@Z 004523b0 f i FireMsgQueueMng.obj
 0001:00051510       ?Fire_ReportWorkState@?$CProxyIGeneralEvent@VCPA@@@@QAEJW4_WORKSTATE@@@Z 00452510 f i FireMsgQueueMng.obj
 0001:00051670       ?Fire_ReportJobState@?$CProxyIPAGeneralEvent@VCPA@@@@QAEJPAG0@Z 00452670 f i FireMsgQueueMng.obj
 0001:000517d0       ?Fire_ReportJobPhase@?$CProxyIPAGeneralEvent@VCPA@@@@QAEJPAG0@Z 004527d0 f i FireMsgQueueMng.obj
 0001:00051930       ?Fire_ReportJobProgress@?$CProxyIPAGeneralEvent@VCPA@@@@QAEJPAG0@Z 00452930 f i FireMsgQueueMng.obj
 0001:00051a90       ?Fire_ReportJobDetail@?$CProxyIPAGeneralEvent@VCPA@@@@QAEJPAU_tagJobDetailStruct@@@Z 00452a90 f i FireMsgQueueMng.obj
 0001:00051bf0       ?Fire_ReportJobQueueChanged@?$CProxyIPAGeneralEvent@VCPA@@@@QAEJXZ 00452bf0 f i FireMsgQueueMng.obj
 0001:00051d40       ?Fire_ReportPrintWorkStatus@?$CProxyIPAPrintEvent@VCPA@@@@QAEJW4_SubModule@@W4_SubModuleState@@@Z 00452d40 f i FireMsgQueueMng.obj
 0001:00051ea0       ?Fire_ReportPrintFilmComposerStatus@?$CProxyIPAPrintEvent@VCPA@@@@QAEJW4_FilmComposerStatus@@@Z 00452ea0 f i FireMsgQueueMng.obj
 0001:00052000       ?Fire_ReportPrintFilmComposerStartUp@?$CProxyIPAPrintEvent@VCPA@@@@QAEJXZ 00453000 f i FireMsgQueueMng.obj
 0001:00052150       ?Fire_ReportEnableFilmComposer@?$CProxyIPAPrintEvent@VCPA@@@@QAEJH@Z 00453150 f i FireMsgQueueMng.obj
 0001:000522b0       ?Fire_ReportTransferWorkStatus@?$CProxyIPATransferEvent@VCPA@@@@QAEJW4_SubModule@@W4_SubModuleState@@@Z 004532b0 f i FireMsgQueueMng.obj
 0001:00052410       ?Fire_ReportUITransferChangeDB@?$CProxyIPATransferEvent@VCPA@@@@QAEJPAG0@Z 00453410 f i FireMsgQueueMng.obj
 0001:000525b0       ?Fire_ReportDiscImportWorkStatus@?$CProxyIPADiscImportEvent@VCPA@@@@QAEJW4_SubModule@@W4_SubModuleState@@@Z 004535b0 f i FireMsgQueueMng.obj
 0001:00052710       ?Fire_ReportDiscImportDiscInfo@?$CProxyIPADiscImportEvent@VCPA@@@@QAEJH@Z 00453710 f i FireMsgQueueMng.obj
 0001:00052870       ?Fire_ReportDiscImportDiscInfoState@?$CProxyIPADiscImportEvent@VCPA@@@@QAEJPAG@Z 00453870 f i FireMsgQueueMng.obj
 0001:000529d0       ?Fire_ReportDiscImportSeriesStateChanged@?$CProxyIPADiscImportEvent@VCPA@@@@QAEJPAU_tagDiscImport_SeriesStateStruct@@@Z 004539d0 f i FireMsgQueueMng.obj
 0001:00052b30       ?Fire_ReportDiscImportSeriesProgressChanged@?$CProxyIPADiscImportEvent@VCPA@@@@QAEJPAU_tagDiscImport_SeriesProgressStruct@@@Z 00453b30 f i FireMsgQueueMng.obj
 0001:00052c90       ?Fire_ReportDiscImportSeriesDetailChanged@?$CProxyIPADiscImportEvent@VCPA@@@@QAEJPAU_tagDiscImport_SeriesDetailStruct@@@Z 00453c90 f i FireMsgQueueMng.obj
 0001:00052df0       ?Fire_ReportDiscImportOneImageImported@?$CProxyIPADiscImportEvent@VCPA@@@@QAEJXZ 00453df0 f i FireMsgQueueMng.obj
 0001:00052f40       ?Fire_ReportDiscImportOneJobFinished@?$CProxyIPADiscImportEvent@VCPA@@@@QAEJXZ 00453f40 f i FireMsgQueueMng.obj
 0001:00053090       ?Fire_ReportWlMppsWorkStatus@?$CProxyIPAWLMPPSEvent@VCPA@@@@QAEJW4_SubModule@@W4_SubModuleState@@@Z 00454090 f i FireMsgQueueMng.obj
 0001:000531f0       ?Fire_ReportWorkList@?$CProxyIPAWLMPPSEvent@VCPA@@@@QAEJJPAU_tagWorkListStruct@@@Z 004541f0 f i FireMsgQueueMng.obj
 0001:00053350       ?Fire_ReportSetMPPSStatusFinished@?$CProxyIPAWLMPPSEvent@VCPA@@@@QAEJPAU_MppsSetResult@@@Z 00454350 f i FireMsgQueueMng.obj
 0001:000534b0       ?Fire_ReportMPPSStatusChanged@?$CProxyIPAWLMPPSEvent@VCPA@@@@QAEJPAGW4_WorkListStatus@@@Z 004544b0 f i FireMsgQueueMng.obj
 0001:00053610       ?Fire_UserGuidanceReporting@?$CProxyIUserGuidanceEvent@VCPA@@@@QAEJJW4UserGuidanceType@@W4UserGuidancePriority@@H@Z 00454610 f i FireMsgQueueMng.obj
 0001:00053780       ??0?$CComPtr@UIUnknown@@@ATL@@QAE@PAUIUnknown@@@Z 00454780 f i FireMsgQueueMng.obj
 0001:000537f0       ?GetAt@CComDynamicUnkArray@ATL@@QAEPAUIUnknown@@H@Z 004547f0 f i FireMsgQueueMng.obj
 0001:00053870       ?GetSize@CComDynamicUnkArray@ATL@@QBEHXZ 00454870 f i FireMsgQueueMng.obj
 0001:000538b0       ??0CIDPathGen@@AAE@XZ      004548b0 f   IDPathGen.obj
 0001:00053900       ??_ECIDPathGen@@UAEPAXI@Z  00454900 f i IDPathGen.obj
 0001:00053900       ??_GCIDPathGen@@UAEPAXI@Z  00454900 f i IDPathGen.obj
 0001:00053970       ??1CIDPathGen@@UAE@XZ      00454970 f   IDPathGen.obj
 0001:000539b0       ?GetInstance@CIDPathGen@@SAPAV1@XZ 004549b0 f   IDPathGen.obj
 0001:00053a70       ?ReleaseInstance@CIDPathGen@@QAEXXZ 00454a70 f   IDPathGen.obj
 0001:00053b10       ?GenPatientID@CIDPathGen@@QAE?AVCString@@XZ 00454b10 f   IDPathGen.obj
 0001:00053c70       ?GenPatientImagePath@CIDPathGen@@QAE?AVCString@@XZ 00454c70 f   IDPathGen.obj
 0001:00053dd0       ?GenStudyImagePath@CIDPathGen@@QAE?AVCString@@PBG@Z 00454dd0 f   IDPathGen.obj
 0001:00053f40       ?GenSeriesImagePath@CIDPathGen@@QAE?AVCString@@PBG@Z 00454f40 f   IDPathGen.obj
 0001:000540b0       ?GenImagePath@CIDPathGen@@QAE?AVCString@@PBG0@Z 004550b0 f   IDPathGen.obj
 0001:00054180       ?GenPostProcessedImagePath@CIDPathGen@@QAE?AVCString@@PBG0@Z 00455180 f   IDPathGen.obj
 0001:00054250       ?GenPostProcessedImagePSPath@CIDPathGen@@QAE?AVCString@@PBG@Z 00455250 f   IDPathGen.obj
 0001:00054380       ??0CIniOpt@@QAE@XZ         00455380 f   IniOpt.obj
 0001:00054430       ??_ECIniOpt@@UAEPAXI@Z     00455430 f i IniOpt.obj
 0001:00054430       ??_GCIniOpt@@UAEPAXI@Z     00455430 f i IniOpt.obj
 0001:000544a0       ??1CIniOpt@@UAE@XZ         004554a0 f   IniOpt.obj
 0001:00054500       ?SetIniFile@CIniOpt@@QAEXPBG@Z 00455500 f   IniOpt.obj
 0001:00054550       ?GetIntFromINI@CIniOpt@@QAEHPBG0H@Z 00455550 f   IniOpt.obj
 0001:000545d0       ?GetStrFromINI@CIniOpt@@QAE?AVCString@@PBG00@Z 004555d0 f   IniOpt.obj
 0001:000546b0       ?IsIniFileExist@CIniOpt@@QAEHXZ 004556b0 f   IniOpt.obj
 0001:00054780       ?DeleteSectionFromINI@CIniOpt@@QAEHPBG@Z 00455780 f   IniOpt.obj
 0001:00054810       ?WriteKeyToINI@CIniOpt@@QAEHPBG00@Z 00455810 f   IniOpt.obj
 0001:000548b0       ??0CISController@@AAE@XZ   004558b0 f   ISController.obj
 0001:00054910       ??_GCISController@@UAEPAXI@Z 00455910 f i ISController.obj
 0001:00054910       ??_ECISController@@UAEPAXI@Z 00455910 f i ISController.obj
 0001:00054980       ??1CISController@@UAE@XZ   00455980 f   ISController.obj
 0001:000549c0       ?GetInstance@CISController@@SAPAV1@XZ 004559c0 f   ISController.obj
 0001:00054a80       ?ReleaseInstance@CISController@@QAEXXZ 00455a80 f   ISController.obj
 0001:00054b20       ?Init@CISController@@QAEHXZ 00455b20 f   ISController.obj
 0001:00054be0       ?UnInit@CISController@@QAEHXZ 00455be0 f   ISController.obj
 0001:00054c60       ?GetDiskFreeImageNum@CISController@@QAEHPAJ@Z 00455c60 f   ISController.obj
 0001:00054d10       ?JobQueueHandleThreadProc@@YGKPAX@Z 00455d10 f   JobHandler.obj
 0001:00054df0       ??0CJobHandler@@QAE@XZ     00455df0 f   JobHandler.obj
 0001:00054f00       ??_ECJobHandler@@UAEPAXI@Z 00455f00 f i JobHandler.obj
 0001:00054f00       ??_GCJobHandler@@UAEPAXI@Z 00455f00 f i JobHandler.obj
 0001:00054f70       ??1CJobHandler@@UAE@XZ     00455f70 f   JobHandler.obj
 0001:00055050       ?GetInstance@CJobHandler@@SAPAV1@XZ 00456050 f   JobHandler.obj
 0001:00055110       ?ReleaseInstance@CJobHandler@@QAEXXZ 00456110 f   JobHandler.obj
 0001:000551b0       ?Init@CJobHandler@@QAEHXZ  004561b0 f   JobHandler.obj
 0001:00055400       ?GetName@ASBasisGetFunctionName@?1??Init@CJobHandler@@QAEHXZ@QAEXXZ 00456400 f   JobHandler.obj
 0001:00055430       ?UnInit@CJobHandler@@QAEHXZ 00456430 f   JobHandler.obj
 0001:000557f0       ?HandleJobQueue@CJobHandler@@QAEHXZ 004567f0 f   JobHandler.obj
 0001:00055d40       ?PushJob@CJobHandler@@QAEHPAVPAJob@@@Z 00456d40 f   JobHandler.obj
 0001:00055e40       ?GetJobList@CJobHandler@@QAEHPAPAU_tagJobInfo@@PAJ@Z 00456e40 f   JobHandler.obj
 0001:00055ed0       ?GetSendJobInfo@CJobHandler@@QAEHPBGPAU_tagJobInfo@@PAPAU_tagPSSIInfo@@PAJPAPAU_tagNetworkNode@@3PAPAU_tagJobDetailStruct@@3@Z 00456ed0 f   JobHandler.obj
 0001:00055ff0       ?GetBurnJobInfo@CJobHandler@@QAEHPBGPAU_tagJobInfo@@PAPAU_tagPSSIInfo@@PAJPAPAU_tagJobDetailStruct@@3@Z 00456ff0 f   JobHandler.obj
 0001:000560e0       ?GetDiscImportJobInfo@CJobHandler@@QAEHPBGPAPAU_tagDiscImport_SeriesStruct@@PAJ@Z 004570e0 f   JobHandler.obj
 0001:00056550       ?MoveJob@CJobHandler@@QAEHPBGH@Z 00457550 f   JobHandler.obj
 0001:00056610       ?CancelJobs@CJobHandler@@QAEHPAV?$vector@VCString@@V?$allocator@VCString@@@std@@@std@@@Z 00457610 f   JobHandler.obj
 0001:00056920       ?DeleteJobs@CJobHandler@@QAEHPAV?$vector@VCString@@V?$allocator@VCString@@@std@@@std@@@Z 00457920 f   JobHandler.obj
 0001:00056bc0       ?IsPatientStudySeriesImageUIDInUse@CJobHandler@@QAEHW4_PatientAdminUIDType@@PAV?$vector@VCString@@V?$allocator@VCString@@@std@@@std@@@Z 00457bc0 f   JobHandler.obj
 0001:00056c20       ?IsUnfinishedJobExist@CJobHandler@@QAEHW4_JobType@@PAH@Z 00457c20 f   JobHandler.obj
 0001:00056c80       ?NotifyUG@CJobHandler@@QAEXJW4UserGuidanceType@@W4UserGuidancePriority@@H@Z 00457c80 f   JobHandler.obj
 0001:00056d30       ?HandleMessage@CJobHandler@@MAEJPAVNSubject@@IJI@Z 00457d30 f   JobHandler.obj
 0001:00056da0       ?GetJobPSSIInfo@CJobHandler@@QAEHPAVPAJob@@PAPAU_tagPSSIInfo@@PAJ@Z 00457da0 f   JobHandler.obj
 0001:000577c0       ?GetJobNetworkNodeInfo@CJobHandler@@AAEHPAVPAJob@@PAPAU_tagNetworkNode@@PAJ@Z 004587c0 f   JobHandler.obj
 0001:00057a10       ?GetJobDetailInfo@CJobHandler@@AAEHPAVPAJob@@PAPAU_tagJobDetailStruct@@PAJ@Z 00458a10 f   JobHandler.obj
 0001:00057c20       ?GetSeriesInfoStruct@CJobHandler@@AAEPAUSeriesInfoStruct@@PBGPAV?$vector@USeriesInfoStruct@@V?$allocator@USeriesInfoStruct@@@std@@@std@@@Z 00458c20 f   JobHandler.obj
 0001:00057d30       ?GetStudyInfoStruct@CJobHandler@@AAEPAUStudyInfoStruct@@PBGPAV?$vector@UStudyInfoStruct@@V?$allocator@UStudyInfoStruct@@@std@@@std@@@Z 00458d30 f   JobHandler.obj
 0001:00057e40       ?GetPatientInfoStruct@CJobHandler@@AAEPAUPatientInfoStruct@@PBGPAV?$vector@UPatientInfoStruct@@V?$allocator@UPatientInfoStruct@@@std@@@std@@@Z 00458e40 f   JobHandler.obj
 0001:00057f50       ?size@?$vector@U_TagNetworkNodeStruct@@V?$allocator@U_TagNetworkNodeStruct@@@std@@@std@@QBEIXZ 00458f50 f i JobHandler.obj
 0001:00057fb0       ??A?$vector@U_TagNetworkNodeStruct@@V?$allocator@U_TagNetworkNodeStruct@@@std@@@std@@QAEAAU_TagNetworkNodeStruct@@I@Z 00458fb0 f i JobHandler.obj
 0001:00058000       ??A?$vector@U_TagJobDetail@@V?$allocator@U_TagJobDetail@@@std@@@std@@QAEAAU_TagJobDetail@@I@Z 00459000 f i JobHandler.obj
 0001:00058050       ?begin@?$vector@U_TagNetworkNodeStruct@@V?$allocator@U_TagNetworkNodeStruct@@@std@@@std@@QAEPAU_TagNetworkNodeStruct@@XZ 00459050 f i JobHandler.obj
 0001:00058090       ??0CJobQueue@@QAE@XZ       00459090 f   JobQueue.obj
 0001:00058100       ??_ECJobQueue@@UAEPAXI@Z   00459100 f i JobQueue.obj
 0001:00058100       ??_GCJobQueue@@UAEPAXI@Z   00459100 f i JobQueue.obj
 0001:00058170       ??1CJobQueue@@UAE@XZ       00459170 f   JobQueue.obj
 0001:00058210       ?PushJob@CJobQueue@@QAEHPAVPAJob@@@Z 00459210 f   JobQueue.obj
 0001:000583e0       ?PullJob@CJobQueue@@QAEHPAPAVPAJob@@@Z 004593e0 f   JobQueue.obj
 0001:00058530       ?DeleteJob@CJobQueue@@QAEHPBG@Z 00459530 f   JobQueue.obj
 0001:00058940       ?ClearQueque@CJobQueue@@QAEHXZ 00459940 f   JobQueue.obj
 0001:00058ad0       ?GetJobNumber@CJobQueue@@QAEFXZ 00459ad0 f   JobQueue.obj
 0001:00058b10       ?GetHeadJobNode@CJobQueue@@QAEPAUPAJobNode@@XZ 00459b10 f   JobQueue.obj
 0001:00058b50       ?GetJob@CJobQueue@@QAEPAVPAJob@@PBG@Z 00459b50 f   JobQueue.obj
 0001:00058c90       ?HasSubmittedJob@CJobQueue@@QAEHXZ 00459c90 f   JobQueue.obj
 0001:00058da0       ?GetASubmittedJob@CJobQueue@@QAEPAVPAJob@@XZ 00459da0 f   JobQueue.obj
 0001:00058eb0       ?GetJobList@CJobQueue@@QAEHPAPAU_tagJobInfo@@PAJ@Z 00459eb0 f   JobQueue.obj
 0001:00059140       ?MoveJobForward@CJobQueue@@QAEHPBG@Z 0045a140 f   JobQueue.obj
 0001:00059390       ?MoveJobBackward@CJobQueue@@QAEHPBG@Z 0045a390 f   JobQueue.obj
 0001:00059600       ?IsPatientStudySeriesImageUIDInUse@CJobQueue@@QAEHW4_PatientAdminUIDType@@PAV?$vector@VCString@@V?$allocator@VCString@@@std@@@std@@@Z 0045a600 f   JobQueue.obj
 0001:0005a120       ?IsUnfinishedJobExist@CJobQueue@@QAEHW4_JobType@@PAH@Z 0045b120 f   JobQueue.obj
 0001:0005a240       ?GetJobInfo@CJobQueue@@QAEHPBGPAU_tagJobInfo@@@Z 0045b240 f   JobQueue.obj
 0001:0005a3e0       ?GetJobDetailInfo@CJobQueue@@AAEHPAVPAJob@@PAU_tagJobInfo@@@Z 0045b3e0 f   JobQueue.obj
 0001:0005aaf0       ?GetJobIndex@CJobQueue@@AAEHPAVPAJob@@@Z 0045baf0 f   JobQueue.obj
 0001:0005ab80       ??0CLanguageIniOpt@@AAE@XZ 0045bb80 f   LanguageIniOpt.obj
 0001:0005abe0       ??_ECLanguageIniOpt@@UAEPAXI@Z 0045bbe0 f i LanguageIniOpt.obj
 0001:0005abe0       ??_GCLanguageIniOpt@@UAEPAXI@Z 0045bbe0 f i LanguageIniOpt.obj
 0001:0005ac50       ??1CLanguageIniOpt@@UAE@XZ 0045bc50 f   LanguageIniOpt.obj
 0001:0005aca0       ?GetInstance@CLanguageIniOpt@@SAPAV1@XZ 0045bca0 f   LanguageIniOpt.obj
 0001:0005ad60       ?ReleaseInstance@CLanguageIniOpt@@QAEXXZ 0045bd60 f   LanguageIniOpt.obj
 0001:0005ae00       ?Init@CLanguageIniOpt@@QAEHXZ 0045be00 f   LanguageIniOpt.obj
 0001:0005b060       ?UnInit@CLanguageIniOpt@@QAEHXZ 0045c060 f   LanguageIniOpt.obj
 0001:0005b0b0       ??0CMPPSIniOpt@@AAE@XZ     0045c0b0 f   MPPSIniOpt.obj
 0001:0005b110       ??_GCMPPSIniOpt@@UAEPAXI@Z 0045c110 f i MPPSIniOpt.obj
 0001:0005b110       ??_ECMPPSIniOpt@@UAEPAXI@Z 0045c110 f i MPPSIniOpt.obj
 0001:0005b180       ??1CMPPSIniOpt@@UAE@XZ     0045c180 f   MPPSIniOpt.obj
 0001:0005b1d0       ?GetInstance@CMPPSIniOpt@@SAPAV1@XZ 0045c1d0 f   MPPSIniOpt.obj
 0001:0005b290       ?ReleaseInstance@CMPPSIniOpt@@QAEXXZ 0045c290 f   MPPSIniOpt.obj
 0001:0005b330       ?Init@CMPPSIniOpt@@QAEHXZ  0045c330 f   MPPSIniOpt.obj
 0001:0005b530       ?UnInit@CMPPSIniOpt@@QAEXXZ 0045c530 f   MPPSIniOpt.obj
 0001:0005b580       ?GetDefaultServer@CMPPSIniOpt@@QAEHPAU_TagNetworkNodeStruct@@@Z 0045c580 f   MPPSIniOpt.obj
 0001:0005b8b0       ?GetNCreateItems@CMPPSIniOpt@@QAEHPAV?$vector@UWLQueryItem@@V?$allocator@UWLQueryItem@@@std@@@std@@@Z 0045c8b0 f   MPPSIniOpt.obj
 0001:0005b900       ?GetNSetItems@CMPPSIniOpt@@QAEHPAV?$vector@UWLQueryItem@@V?$allocator@UWLQueryItem@@@std@@@std@@@Z 0045c900 f   MPPSIniOpt.obj
 0001:0005b950       ?GetItems@CMPPSIniOpt@@AAEHPAV?$vector@UWLQueryItem@@V?$allocator@UWLQueryItem@@@std@@@std@@H@Z 0045c950 f   MPPSIniOpt.obj
 0001:0005c1a0       ??0WLQueryItem@@QAE@XZ     0045d1a0 f i MPPSIniOpt.obj
 0001:0005c1f0       ??1WLQueryItem@@QAE@XZ     0045d1f0 f i MPPSIniOpt.obj
 0001:0005c240       ?GetServers@CMPPSIniOpt@@QAEHPAV?$vector@U_TagNetworkNodeStruct@@V?$allocator@U_TagNetworkNodeStruct@@@std@@@std@@@Z 0045d240 f   MPPSIniOpt.obj
 0001:0005c6d0       ??0_TagNetworkNodeStruct@@QAE@XZ 0045d6d0 f i MPPSIniOpt.obj
 0001:0005c790       ??1_TagNetworkNodeStruct@@QAE@XZ 0045d790 f i MPPSIniOpt.obj
 0001:0005c850       ?SetServers@CMPPSIniOpt@@QAEHPAV?$vector@U_TagNetworkNodeStruct@@V?$allocator@U_TagNetworkNodeStruct@@@std@@@std@@@Z 0045d850 f   MPPSIniOpt.obj
 0001:0005cd90       ?push_back@?$vector@U_TagNetworkNodeStruct@@V?$allocator@U_TagNetworkNodeStruct@@@std@@@std@@QAEXABU_TagNetworkNodeStruct@@@Z 0045dd90 f i MPPSIniOpt.obj
 0001:0005cdf0       ?push_back@?$vector@UWLQueryItem@@V?$allocator@UWLQueryItem@@@std@@@std@@QAEXABUWLQueryItem@@@Z 0045ddf0 f i MPPSIniOpt.obj
 0001:0005ce50       ?end@?$vector@U_TagNetworkNodeStruct@@V?$allocator@U_TagNetworkNodeStruct@@@std@@@std@@QAEPAU_TagNetworkNodeStruct@@XZ 0045de50 f i MPPSIniOpt.obj
 0001:0005ce90       ?insert@?$vector@U_TagNetworkNodeStruct@@V?$allocator@U_TagNetworkNodeStruct@@@std@@@std@@QAEPAU_TagNetworkNodeStruct@@PAU3@ABU3@@Z 0045de90 f i MPPSIniOpt.obj
 0001:0005cf10       ?end@?$vector@UWLQueryItem@@V?$allocator@UWLQueryItem@@@std@@@std@@QAEPAUWLQueryItem@@XZ 0045df10 f i MPPSIniOpt.obj
 0001:0005cf50       ?insert@?$vector@UWLQueryItem@@V?$allocator@UWLQueryItem@@@std@@@std@@QAEPAUWLQueryItem@@PAU3@ABU3@@Z 0045df50 f i MPPSIniOpt.obj
 0001:0005cfe0       ?insert@?$vector@U_TagNetworkNodeStruct@@V?$allocator@U_TagNetworkNodeStruct@@@std@@@std@@QAEXPAU_TagNetworkNodeStruct@@IABU3@@Z 0045dfe0 f i MPPSIniOpt.obj
 0001:0005d2c0       ?begin@?$vector@UWLQueryItem@@V?$allocator@UWLQueryItem@@@std@@@std@@QAEPAUWLQueryItem@@XZ 0045e2c0 f i MPPSIniOpt.obj
 0001:0005d300       ?insert@?$vector@UWLQueryItem@@V?$allocator@UWLQueryItem@@@std@@@std@@QAEXPAUWLQueryItem@@IABU3@@Z 0045e300 f i MPPSIniOpt.obj
 0001:0005d600       ?_Destroy@?$vector@U_TagNetworkNodeStruct@@V?$allocator@U_TagNetworkNodeStruct@@@std@@@std@@IAEXPAU_TagNetworkNodeStruct@@0@Z 0045e600 f i MPPSIniOpt.obj
 0001:0005d670       ?_Ucopy@?$vector@U_TagNetworkNodeStruct@@V?$allocator@U_TagNetworkNodeStruct@@@std@@@std@@IAEPAU_TagNetworkNodeStruct@@PBU3@0PAU3@@Z 0045e670 f i MPPSIniOpt.obj
 0001:0005d6f0       ?_Ufill@?$vector@U_TagNetworkNodeStruct@@V?$allocator@U_TagNetworkNodeStruct@@@std@@@std@@IAEXPAU_TagNetworkNodeStruct@@IABU3@@Z 0045e6f0 f i MPPSIniOpt.obj
 0001:0005d770       ?allocate@?$allocator@U_TagNetworkNodeStruct@@@std@@QAEPAU_TagNetworkNodeStruct@@IPBX@Z 0045e770 f i MPPSIniOpt.obj
 0001:0005d7c0       ?deallocate@?$allocator@U_TagNetworkNodeStruct@@@std@@QAEXPAXI@Z 0045e7c0 f i MPPSIniOpt.obj
 0001:0005d810       ?size@?$vector@UWLQueryItem@@V?$allocator@UWLQueryItem@@@std@@@std@@QBEIXZ 0045e810 f i MPPSIniOpt.obj
 0001:0005d880       ?_Destroy@?$vector@UWLQueryItem@@V?$allocator@UWLQueryItem@@@std@@@std@@IAEXPAUWLQueryItem@@0@Z 0045e880 f i MPPSIniOpt.obj
 0001:0005d8f0       ?_Ucopy@?$vector@UWLQueryItem@@V?$allocator@UWLQueryItem@@@std@@@std@@IAEPAUWLQueryItem@@PBU3@0PAU3@@Z 0045e8f0 f i MPPSIniOpt.obj
 0001:0005d970       ?_Ufill@?$vector@UWLQueryItem@@V?$allocator@UWLQueryItem@@@std@@@std@@IAEXPAUWLQueryItem@@IABU3@@Z 0045e970 f i MPPSIniOpt.obj
 0001:0005d9f0       ?allocate@?$allocator@UWLQueryItem@@@std@@QAEPAUWLQueryItem@@IPBX@Z 0045e9f0 f i MPPSIniOpt.obj
 0001:0005da40       ?deallocate@?$allocator@UWLQueryItem@@@std@@QAEXPAXI@Z 0045ea40 f i MPPSIniOpt.obj
 0001:0005da90       ?construct@?$allocator@U_TagNetworkNodeStruct@@@std@@QAEXPAU_TagNetworkNodeStruct@@ABU3@@Z 0045ea90 f i MPPSIniOpt.obj
 0001:0005dae0       ?destroy@?$allocator@U_TagNetworkNodeStruct@@@std@@QAEXPAU_TagNetworkNodeStruct@@@Z 0045eae0 f i MPPSIniOpt.obj
 0001:0005db30       ?construct@?$allocator@UWLQueryItem@@@std@@QAEXPAUWLQueryItem@@ABU3@@Z 0045eb30 f i MPPSIniOpt.obj
 0001:0005db80       ?destroy@?$allocator@UWLQueryItem@@@std@@QAEXPAUWLQueryItem@@@Z 0045eb80 f i MPPSIniOpt.obj
 0001:0005dbd0       ?fill@std@@YAXPAU_TagNetworkNodeStruct@@0ABU2@@Z 0045ebd0 f i MPPSIniOpt.obj
 0001:0005dc30       ?copy_backward@std@@YAPAU_TagNetworkNodeStruct@@PAU2@00@Z 0045ec30 f i MPPSIniOpt.obj
 0001:0005dca0       ?fill@std@@YAXPAUWLQueryItem@@0ABU2@@Z 0045eca0 f i MPPSIniOpt.obj
 0001:0005dd00       ?copy_backward@std@@YAPAUWLQueryItem@@PAU2@00@Z 0045ed00 f i MPPSIniOpt.obj
 0001:0005dd70       ?_Allocate@std@@YAPAU_TagNetworkNodeStruct@@HPAU2@@Z 0045ed70 f i MPPSIniOpt.obj
 0001:0005ddd0       ?_Allocate@std@@YAPAUWLQueryItem@@HPAU2@@Z 0045edd0 f i MPPSIniOpt.obj
 0001:0005de30       ?_Construct@std@@YAXPAU_TagNetworkNodeStruct@@ABU2@@Z 0045ee30 f i MPPSIniOpt.obj
 0001:0005dee0       ?_Destroy@std@@YAXPAU_TagNetworkNodeStruct@@@Z 0045eee0 f i MPPSIniOpt.obj
 0001:0005df20       ?_Construct@std@@YAXPAUWLQueryItem@@ABU2@@Z 0045ef20 f i MPPSIniOpt.obj
 0001:0005dfd0       ?_Destroy@std@@YAXPAUWLQueryItem@@@Z 0045efd0 f i MPPSIniOpt.obj
 0001:0005e010       ??4_TagNetworkNodeStruct@@QAEAAU0@ABU0@@Z 0045f010 f i MPPSIniOpt.obj
 0001:0005e0f0       ??4WLQueryItem@@QAEAAU0@ABU0@@Z 0045f0f0 f i MPPSIniOpt.obj
 0001:0005e180       ??0_TagNetworkNodeStruct@@QAE@ABU0@@Z 0045f180 f i MPPSIniOpt.obj
 0001:0005e2a0       ??_G_TagNetworkNodeStruct@@QAEPAXI@Z 0045f2a0 f i MPPSIniOpt.obj
 0001:0005e310       ??0WLQueryItem@@QAE@ABU0@@Z 0045f310 f i MPPSIniOpt.obj
 0001:0005e3a0       ??_GWLQueryItem@@QAEPAXI@Z 0045f3a0 f i MPPSIniOpt.obj
 0001:0005e410       ?UpdateRegistry@CPA@@SGJH@Z 0045f410 f i PA.obj
 0001:0005e460       ?Unlock@CExeModule@@QAEJXZ 0045f460 f   PA.obj
 0001:0005e4e0       ?MonitorShutdown@CExeModule@@QAEXXZ 0045f4e0 f   PA.obj
 0001:0005e630       ?StartMonitor@CExeModule@@QAE_NXZ 0045f630 f   PA.obj
 0001:0005e730       ?FindOneOf@@YAPBGPBG0@Z    0045f730 f   PA.obj
 0001:0005e820       _wWinMain@16               0045f820 f   PA.obj
 0001:0005eb00       ?Init@CComModule@ATL@@QAEJPAU_ATL_OBJMAP_ENTRY@2@PAUHINSTANCE__@@PBU_GUID@@@Z 0045fb00 f i PA.obj
 0001:0005ebb0       ?Term@CComModule@ATL@@QAEXXZ 0045fbb0 f i PA.obj
 0001:0005ec00       ?Unlock@CComModule@ATL@@QAEJXZ 0045fc00 f i PA.obj
 0001:0005ec50       ?Decrement@CComMultiThreadModel@ATL@@SGKPAJ@Z 0045fc50 f i PA.obj
 0001:0005eca0       ?RegisterServer@CComModule@ATL@@QAEJHPBU_GUID@@@Z 0045fca0 f i PA.obj
 0001:0005ed00       ?UnregisterServer@CComModule@ATL@@QAEJPBU_GUID@@@Z 0045fd00 f i PA.obj
 0001:0005ed50       ?UpdateRegistryFromResourceD@CComModule@ATL@@QAGJIHPAU_ATL_REGMAP_ENTRY@2@@Z 0045fd50 f i PA.obj
 0001:0005edb0       ?RegisterClassObjects@CComModule@ATL@@QAEJKK@Z 0045fdb0 f i PA.obj
 0001:0005ee10       ?RevokeClassObjects@CComModule@ATL@@QAEJXZ 0045fe10 f i PA.obj
 0001:0005ee60       ?GetObjectDescription@?$CComCoClass@VCPA@@$1?CLSID_PA@@3U_GUID@@B@ATL@@SGPBGXZ 0045fe60 f i PA.obj
 0001:0005ee90       ?GetCategoryMap@?$CComCoClass@VCPA@@$1?CLSID_PA@@3U_GUID@@B@ATL@@SAPBU_ATL_CATMAP_ENTRY@2@XZ 0045fe90 f i PA.obj
 0001:0005eec0       ?CreateInstance@?$CComCreator@V?$CComObjectNoLock@V?$CComClassFactorySingleton@VCPA@@@ATL@@@ATL@@@ATL@@SGJPAXABU_GUID@@PAPAX@Z 0045fec0 f i PA.obj
 0001:0005f070       ?CreateInstance@?$CComCreator2@V?$CComCreator@V?$CComObject@VCPA@@@ATL@@@ATL@@V?$CComFailCreator@$0?HPPLPOPA@@2@@ATL@@SGJPAXABU_GUID@@PAPAX@Z 00460070 f i PA.obj
 0001:0005f0f0       ??_G?$CComObjectNoLock@V?$CComClassFactorySingleton@VCPA@@@ATL@@@ATL@@QAEPAXI@Z 004600f0 f i PA.obj
 0001:0005f160       ?AtlModuleInit@ATL@@YGJPAU_ATL_MODULE@1@PAU_ATL_OBJMAP_ENTRY@1@PAUHINSTANCE__@@@Z 00460160 f i PA.obj
 0001:0005f2e0       ?_NextObjectMapEntry@ATL@@YAPAU_ATL_OBJMAP_ENTRY@1@PAU_ATL_MODULE@1@PAU21@@Z 004602e0 f i PA.obj
 0001:0005f330       ?AtlModuleRegisterClassObjects@ATL@@YGJPAU_ATL_MODULE@1@KK@Z 00460330 f i PA.obj
 0001:0005f3e0       ?RegisterClassObject@_ATL_OBJMAP_ENTRY@ATL@@QAGJKK@Z 004603e0 f i PA.obj
 0001:0005f4c0       ?AtlModuleRevokeClassObjects@ATL@@YGJPAU_ATL_MODULE@1@@Z 004604c0 f i PA.obj
 0001:0005f560       ?RevokeClassObject@_ATL_OBJMAP_ENTRY@ATL@@QAGJXZ 00460560 f i PA.obj
 0001:0005f5c0       ?AtlModuleTerm@ATL@@YGJPAU_ATL_MODULE@1@@Z 004605c0 f i PA.obj
 0001:0005f7e0       ?AtlModuleRegisterServer@ATL@@YGJPAU_ATL_MODULE@1@HPBU_GUID@@@Z 004607e0 f i PA.obj
 0001:0005f950       ?IsEqualGUID@@YAHABU_GUID@@0@Z 00460950 f i PA.obj
 0001:0005f9a0       ?AtlRegisterClassCategoriesHelper@ATL@@YGJABU_GUID@@PBU_ATL_CATMAP_ENTRY@1@H@Z 004609a0 f i PA.obj
 0001:0005fc50       ??0?$CComPtr@UICatRegister@@@ATL@@QAE@XZ 00460c50 f i PA.obj
 0001:0005fc90       ??1?$CComPtr@UICatRegister@@@ATL@@QAE@XZ 00460c90 f i PA.obj
 0001:0005fd00       ??I?$CComPtr@UICatRegister@@@ATL@@QAEPAPAUICatRegister@@XZ 00460d00 f i PA.obj
 0001:0005fd30       ??C?$CComPtr@UICatRegister@@@ATL@@QBEPAV?$_NoAddRefReleaseOnCComPtr@UICatRegister@@@1@XZ 00460d30 f i PA.obj
 0001:0005fd70       ?AtlModuleUnregisterServer@ATL@@YGJPAU_ATL_MODULE@1@PBU_GUID@@@Z 00460d70 f i PA.obj
 0001:0005fdc0       ?AtlModuleUnregisterServerEx@ATL@@YGJPAU_ATL_MODULE@1@HPBU_GUID@@@Z 00460dc0 f i PA.obj
 0001:0005ff00       ?AtlModuleUpdateRegistryFromResourceD@ATL@@YGJPAU_ATL_MODULE@1@PBGHPAU_ATL_REGMAP_ENTRY@1@PAUIRegistrar@@@Z 00460f00 f i PA.obj
 0001:000603e0       ??0?$CComPtr@UIRegistrar@@@ATL@@QAE@XZ 004613e0 f i PA.obj
 0001:00060420       ??1?$CComPtr@UIRegistrar@@@ATL@@QAE@XZ 00461420 f i PA.obj
 0001:00060490       ??I?$CComPtr@UIRegistrar@@@ATL@@QAEPAPAUIRegistrar@@XZ 00461490 f i PA.obj
 0001:000604c0       ??C?$CComPtr@UIRegistrar@@@ATL@@QBEPAV?$_NoAddRefReleaseOnCComPtr@UIRegistrar@@@1@XZ 004614c0 f i PA.obj
 0001:00060500       ??4?$CComPtr@UIRegistrar@@@ATL@@QAEPAUIRegistrar@@PAU2@@Z 00461500 f i PA.obj
 0001:00060550       ?ocslen@@YAIPBG@Z          00461550 f i PA.obj
 0001:000605a0       ?T2OLE@@YAPAGPAG@Z         004615a0 f i PA.obj
 0001:000605d0       ?ReplaceSingleQuote@CComModule@ATL@@SAXPAGPBG@Z 004615d0 f i PA.obj
 0001:00060670       ?AtlComPtrAssign@ATL@@YGPAUIUnknown@@PAPAU2@PAU2@@Z 00461670 f i PA.obj
 0001:00060700       ?AtlModuleUnRegisterTypeLib@ATL@@YGJPAU_ATL_MODULE@1@PBG@Z 00461700 f i PA.obj
 0001:000608f0       ??0?$CComPtr@UITypeLib@@@ATL@@QAE@XZ 004618f0 f i PA.obj
 0001:00060930       ??1?$CComPtr@UITypeLib@@@ATL@@QAE@XZ 00461930 f i PA.obj
 0001:000609a0       ??I?$CComPtr@UITypeLib@@@ATL@@QAEPAPAUITypeLib@@XZ 004619a0 f i PA.obj
 0001:000609d0       ??C?$CComPtr@UITypeLib@@@ATL@@QBEPAV?$_NoAddRefReleaseOnCComPtr@UITypeLib@@@1@XZ 004619d0 f i PA.obj
 0001:00060a10       ??0CComBSTR@ATL@@QAE@XZ    00461a10 f i PA.obj
 0001:00060a50       ??1CComBSTR@ATL@@QAE@XZ    00461a50 f i PA.obj
 0001:00060ab0       ??ICComBSTR@ATL@@QAEPAPAGXZ 00461ab0 f i PA.obj
 0001:00060ae0       ?AtlModuleLoadTypeLib@ATL@@YGJPAU_ATL_MODULE@1@PBGPAPAGPAPAUITypeLib@@@Z 00461ae0 f i PA.obj
 0001:00060d20       ?OLE2CT@@YAPBGPBG@Z        00461d20 f i PA.obj
 0001:00060d50       ?OLE2BSTR@@YAPAGPBG@Z      00461d50 f i PA.obj
 0001:00060da0       ?AtlModuleRegisterTypeLib@ATL@@YGJPAU_ATL_MODULE@1@PBG@Z 00461da0 f i PA.obj
 0001:00060f00       ??B?$CComPtr@UITypeLib@@@ATL@@QBEPAUITypeLib@@XZ 00461f00 f i PA.obj
 0001:00060f40       ?ocscpy@@YAPAGPAGPBG@Z     00461f40 f i PA.obj
 0001:00060f90       ??BCComBSTR@ATL@@QBEPAGXZ  00461f90 f i PA.obj
 0001:00061090       ?CharNextO@@YAPAGPBG@Z     00462090 f i PA.obj
 0001:000610e0       ??0?$CComObjectNoLock@V?$CComClassFactorySingleton@VCPA@@@ATL@@@ATL@@QAE@PAX@Z 004620e0 f i PA.obj
 0001:00061140       ??1?$CComObjectNoLock@V?$CComClassFactorySingleton@VCPA@@@ATL@@@ATL@@QAE@XZ 00462140 f i PA.obj
 0001:000611e0       ?AddRef@?$CComObjectNoLock@V?$CComClassFactorySingleton@VCPA@@@ATL@@@ATL@@UAGKXZ 004621e0 f i PA.obj
 0001:00061230       ?InternalAddRef@?$CComObjectRootEx@VCComMultiThreadModel@ATL@@@ATL@@QAEKXZ 00462230 f i PA.obj
 0001:00061280       ?Increment@CComMultiThreadModel@ATL@@SGKPAJ@Z 00462280 f i PA.obj
 0001:000612d0       ?Release@?$CComObjectNoLock@V?$CComClassFactorySingleton@VCPA@@@ATL@@@ATL@@UAGKXZ 004622d0 f i PA.obj
 0001:00061360       ?InternalRelease@?$CComObjectRootEx@VCComMultiThreadModel@ATL@@@ATL@@QAEKXZ 00462360 f i PA.obj
 0001:000613b0       ?QueryInterface@?$CComObjectNoLock@V?$CComClassFactorySingleton@VCPA@@@ATL@@@ATL@@UAGJABU_GUID@@PAPAX@Z 004623b0 f i PA.obj
 0001:00061400       ?CreateInstance@?$CComClassFactorySingleton@VCPA@@@ATL@@UAGJPAUIUnknown@@ABU_GUID@@PAPAX@Z 00462400 f i PA.obj
 0001:000614c0       ?CreateInstance@?$CComCreator@V?$CComObject@VCPA@@@ATL@@@ATL@@SGJPAXABU_GUID@@PAPAX@Z 004624c0 f i PA.obj
 0001:00061680       ?InternalFinalConstructAddRef@CPA@@QAEXXZ 00462680 f i PA.obj
 0001:000616d0       ?InternalFinalConstructRelease@CPA@@QAEXXZ 004626d0 f i PA.obj
 0001:00061720       ?CreateInstance@?$CComFailCreator@$0?HPPLPOPA@@ATL@@SGJPAXABU_GUID@@PAPAX@Z 00462720 f i PA.obj
 0001:00061750       ??0?$CComClassFactorySingleton@VCPA@@@ATL@@QAE@XZ 00462750 f i PA.obj
 0001:000617f0       ??1?$CComClassFactorySingleton@VCPA@@@ATL@@QAE@XZ 004627f0 f i PA.obj
 0001:00061880       ??1?$CComObjectGlobal@VCPA@@@ATL@@UAE@XZ 00462880 f i PA.obj
 0001:00061a10       ?_LocCPQueryInterface@?$IConnectionPointImpl@VCPA@@$1?IID_IPABurnEvent@@3U_GUID@@BVCComDynamicUnkArray@ATL@@@ATL@@UAGJABU_GUID@@PAPAX@Z 00462a10 f i PA.obj
 0001:00061ac0       ?InlineIsEqualGUID@ATL@@YAHABU_GUID@@0@Z 00462ac0 f i PA.obj
 0001:00061b50       ?InlineIsEqualUnknown@ATL@@YAHABU_GUID@@@Z 00462b50 f i PA.obj
 0001:00061bd0       ?GetConnectionInterface@?$IConnectionPointImpl@VCPA@@$1?IID_IPABurnEvent@@3U_GUID@@BVCComDynamicUnkArray@ATL@@@ATL@@UAGJPAU_GUID@@@Z 00462bd0 f i PA.obj
 0001:00061c40       ?GetConnectionPointContainer@?$IConnectionPointImpl@VCPA@@$1?IID_IPABurnEvent@@3U_GUID@@BVCComDynamicUnkArray@ATL@@@ATL@@UAGJPAPAUIConnectionPointContainer@@@Z 00462c40 f i PA.obj
 0001:00061cc0       ?_LocCPQueryInterface@?$IConnectionPointImpl@VCPA@@$1?IID_IGeneralEvent@@3U_GUID@@BVCComDynamicUnkArray@ATL@@@ATL@@UAGJABU_GUID@@PAPAX@Z 00462cc0 f i PA.obj
 0001:00061d70       ?GetConnectionInterface@?$IConnectionPointImpl@VCPA@@$1?IID_IGeneralEvent@@3U_GUID@@BVCComDynamicUnkArray@ATL@@@ATL@@UAGJPAU_GUID@@@Z 00462d70 f i PA.obj
 0001:00061de0       ?GetConnectionPointContainer@?$IConnectionPointImpl@VCPA@@$1?IID_IGeneralEvent@@3U_GUID@@BVCComDynamicUnkArray@ATL@@@ATL@@UAGJPAPAUIConnectionPointContainer@@@Z 00462de0 f i PA.obj
 0001:00061e60       ?_LocCPQueryInterface@?$IConnectionPointImpl@VCPA@@$1?IID_IPAGeneralEvent@@3U_GUID@@BVCComDynamicUnkArray@ATL@@@ATL@@UAGJABU_GUID@@PAPAX@Z 00462e60 f i PA.obj
 0001:00061f10       ?GetConnectionInterface@?$IConnectionPointImpl@VCPA@@$1?IID_IPAGeneralEvent@@3U_GUID@@BVCComDynamicUnkArray@ATL@@@ATL@@UAGJPAU_GUID@@@Z 00462f10 f i PA.obj
 0001:00061f80       ?GetConnectionPointContainer@?$IConnectionPointImpl@VCPA@@$1?IID_IPAGeneralEvent@@3U_GUID@@BVCComDynamicUnkArray@ATL@@@ATL@@UAGJPAPAUIConnectionPointContainer@@@Z 00462f80 f i PA.obj
 0001:00062000       ?_LocCPQueryInterface@?$IConnectionPointImpl@VCPA@@$1?IID_IPAPrintEvent@@3U_GUID@@BVCComDynamicUnkArray@ATL@@@ATL@@UAGJABU_GUID@@PAPAX@Z 00463000 f i PA.obj
 0001:000620b0       ?GetConnectionInterface@?$IConnectionPointImpl@VCPA@@$1?IID_IPAPrintEvent@@3U_GUID@@BVCComDynamicUnkArray@ATL@@@ATL@@UAGJPAU_GUID@@@Z 004630b0 f i PA.obj
 0001:00062120       ?GetConnectionPointContainer@?$IConnectionPointImpl@VCPA@@$1?IID_IPAPrintEvent@@3U_GUID@@BVCComDynamicUnkArray@ATL@@@ATL@@UAGJPAPAUIConnectionPointContainer@@@Z 00463120 f i PA.obj
 0001:000621a0       ?_LocCPQueryInterface@?$IConnectionPointImpl@VCPA@@$1?IID_IPATransferEvent@@3U_GUID@@BVCComDynamicUnkArray@ATL@@@ATL@@UAGJABU_GUID@@PAPAX@Z 004631a0 f i PA.obj
 0001:00062250       ?GetConnectionInterface@?$IConnectionPointImpl@VCPA@@$1?IID_IPATransferEvent@@3U_GUID@@BVCComDynamicUnkArray@ATL@@@ATL@@UAGJPAU_GUID@@@Z 00463250 f i PA.obj
 0001:000622c0       ?GetConnectionPointContainer@?$IConnectionPointImpl@VCPA@@$1?IID_IPATransferEvent@@3U_GUID@@BVCComDynamicUnkArray@ATL@@@ATL@@UAGJPAPAUIConnectionPointContainer@@@Z 004632c0 f i PA.obj
 0001:00062340       ?_LocCPQueryInterface@?$IConnectionPointImpl@VCPA@@$1?IID_IPADiscImportEvent@@3U_GUID@@BVCComDynamicUnkArray@ATL@@@ATL@@UAGJABU_GUID@@PAPAX@Z 00463340 f i PA.obj
 0001:000623f0       ?GetConnectionInterface@?$IConnectionPointImpl@VCPA@@$1?IID_IPADiscImportEvent@@3U_GUID@@BVCComDynamicUnkArray@ATL@@@ATL@@UAGJPAU_GUID@@@Z 004633f0 f i PA.obj
 0001:00062460       ?GetConnectionPointContainer@?$IConnectionPointImpl@VCPA@@$1?IID_IPADiscImportEvent@@3U_GUID@@BVCComDynamicUnkArray@ATL@@@ATL@@UAGJPAPAUIConnectionPointContainer@@@Z 00463460 f i PA.obj
 0001:000624e0       ?_LocCPQueryInterface@?$IConnectionPointImpl@VCPA@@$1?IID_IPAWLMPPSEvent@@3U_GUID@@BVCComDynamicUnkArray@ATL@@@ATL@@UAGJABU_GUID@@PAPAX@Z 004634e0 f i PA.obj
 0001:00062590       ?GetConnectionInterface@?$IConnectionPointImpl@VCPA@@$1?IID_IPAWLMPPSEvent@@3U_GUID@@BVCComDynamicUnkArray@ATL@@@ATL@@UAGJPAU_GUID@@@Z 00463590 f i PA.obj
 0001:00062600       ?GetConnectionPointContainer@?$IConnectionPointImpl@VCPA@@$1?IID_IPAWLMPPSEvent@@3U_GUID@@BVCComDynamicUnkArray@ATL@@@ATL@@UAGJPAPAUIConnectionPointContainer@@@Z 00463600 f i PA.obj
 0001:00062680       ?_LocCPQueryInterface@?$IConnectionPointImpl@VCPA@@$1?IID_IUserGuidanceEvent@@3U_GUID@@BVCComDynamicUnkArray@ATL@@@ATL@@UAGJABU_GUID@@PAPAX@Z 00463680 f i PA.obj
 0001:00062730       ?GetConnectionInterface@?$IConnectionPointImpl@VCPA@@$1?IID_IUserGuidanceEvent@@3U_GUID@@BVCComDynamicUnkArray@ATL@@@ATL@@UAGJPAU_GUID@@@Z 00463730 f i PA.obj
 0001:000627a0       ?GetConnectionPointContainer@?$IConnectionPointImpl@VCPA@@$1?IID_IUserGuidanceEvent@@3U_GUID@@BVCComDynamicUnkArray@ATL@@@ATL@@UAGJPAPAUIConnectionPointContainer@@@Z 004637a0 f i PA.obj
 0001:00062820       ?EnumConnectionPoints@?$IConnectionPointContainerImpl@VCPA@@@ATL@@UAGJPAPAUIEnumConnectionPoints@@@Z 00463820 f i PA.obj
 0001:00062a80       ?GetConnMap@CPA@@SAPBU_ATL_CONNMAP_ENTRY@ATL@@PAH@Z 00463a80 f i PA.obj
 0001:00062e00       ?FindConnectionPoint@?$IConnectionPointContainerImpl@VCPA@@@ATL@@UAGJABU_GUID@@PAPAUIConnectionPoint@@@Z 00463e00 f i PA.obj
 0001:00062f10       ??_G?$CComEnum@UIEnumConnectionPoints@@$1?IID_IEnumConnectionPoints@@3U_GUID@@BPAUIConnectionPoint@@V?$_CopyInterface@UIConnectionPoint@@@ATL@@VCComMultiThreadModel@6@@ATL@@QAEPAXI@Z 00463f10 f i PA.obj
 0001:00062f80       ??1?$CComEnum@UIEnumConnectionPoints@@$1?IID_IEnumConnectionPoints@@3U_GUID@@BPAUIConnectionPoint@@V?$_CopyInterface@UIConnectionPoint@@@ATL@@VCComMultiThreadModel@6@@ATL@@QAE@XZ 00463f80 f i PA.obj
 0001:00063030       ??1?$CComObjectRootEx@VCComMultiThreadModel@ATL@@@ATL@@QAE@XZ 00464030 f i PA.obj
 0001:00063080       ??1CComAutoCriticalSection@ATL@@QAE@XZ 00464080 f i PA.obj
 0001:000630e0       ??0?$CComObject@V?$CComEnum@UIEnumConnectionPoints@@$1?IID_IEnumConnectionPoints@@3U_GUID@@BPAUIConnectionPoint@@V?$_CopyInterface@UIConnectionPoint@@@ATL@@VCComMultiThreadModel@6@@ATL@@@ATL@@QAE@PAX@Z 004640e0 f i PA.obj
 0001:00063180       ?Lock@CComModule@ATL@@QAEJXZ 00464180 f i PA.obj
 0001:000631d0       ?AddRef@?$CComObject@V?$CComEnum@UIEnumConnectionPoints@@$1?IID_IEnumConnectionPoints@@3U_GUID@@BPAUIConnectionPoint@@V?$_CopyInterface@UIConnectionPoint@@@ATL@@VCComMultiThreadModel@6@@ATL@@@ATL@@UAGKXZ 004641d0 f i PA.obj
 0001:00063220       ?Release@?$CComObject@V?$CComEnum@UIEnumConnectionPoints@@$1?IID_IEnumConnectionPoints@@3U_GUID@@BPAUIConnectionPoint@@V?$_CopyInterface@UIConnectionPoint@@@ATL@@VCComMultiThreadModel@6@@ATL@@@ATL@@UAGKXZ 00464220 f i PA.obj
 0001:000632b0       ?QueryInterface@?$CComObject@V?$CComEnum@UIEnumConnectionPoints@@$1?IID_IEnumConnectionPoints@@3U_GUID@@BPAUIConnectionPoint@@V?$_CopyInterface@UIConnectionPoint@@@ATL@@VCComMultiThreadModel@6@@ATL@@@ATL@@UAGJABU_GUID@@PAPAX@Z 004642b0 f i PA.obj
 0001:00063300       ?Reset@?$CComEnumImpl@UIEnumConnectionPoints@@$1?IID_IEnumConnectionPoints@@3U_GUID@@BPAUIConnectionPoint@@V?$_CopyInterface@UIConnectionPoint@@@ATL@@@ATL@@UAGJXZ 00464300 f i PA.obj
 0001:00063340       ?AddRef@?$CComObjectGlobal@VCPA@@@ATL@@UAGKXZ 00464340 f i PA.obj
 0001:00063390       ?Release@?$CComObjectGlobal@VCPA@@@ATL@@UAGKXZ 00464390 f i PA.obj
 0001:000633e0       ?QueryInterface@?$CComObjectGlobal@VCPA@@@ATL@@UAGJABU_GUID@@PAPAX@Z 004643e0 f i PA.obj
 0001:00063430       ?_InternalQueryInterface@CPA@@QAEJABU_GUID@@PAPAX@Z 00464430 f i PA.obj
 0001:00063490       ?_GetEntries@CPA@@SGPBU_ATL_INTMAP_ENTRY@ATL@@XZ 00464490 f i PA.obj
 0001:000634c0       ??0?$CComEnum@UIEnumConnectionPoints@@$1?IID_IEnumConnectionPoints@@3U_GUID@@BPAUIConnectionPoint@@V?$_CopyInterface@UIConnectionPoint@@@ATL@@VCComMultiThreadModel@6@@ATL@@QAE@XZ 004644c0 f i PA.obj
 0001:00063550       ??_G?$CComObject@V?$CComEnum@UIEnumConnectionPoints@@$1?IID_IEnumConnectionPoints@@3U_GUID@@BPAUIConnectionPoint@@V?$_CopyInterface@UIConnectionPoint@@@ATL@@VCComMultiThreadModel@6@@ATL@@@ATL@@QAEPAXI@Z 00464550 f i PA.obj
 0001:000635c0       ??_G?$CComObjectGlobal@VCPA@@@ATL@@UAEPAXI@Z 004645c0 f i PA.obj
 0001:000635c0       ??_E?$CComObjectGlobal@VCPA@@@ATL@@UAEPAXI@Z 004645c0 f i PA.obj
 0001:00063630       ??0?$CComObjectRootEx@VCComMultiThreadModel@ATL@@@ATL@@QAE@XZ 00464630 f i PA.obj
 0001:00063690       ??0CComAutoCriticalSection@ATL@@QAE@XZ 00464690 f i PA.obj
 0001:000636f0       ??0CComClassFactory@ATL@@QAE@XZ 004646f0 f i PA.obj
 0001:00063750       ??1CComClassFactory@ATL@@QAE@XZ 00464750 f i PA.obj
 0001:000637c0       ??0IClassFactory@@QAE@XZ   004647c0 f i PA.obj
 0001:00063810       ??1?$CComObject@V?$CComEnum@UIEnumConnectionPoints@@$1?IID_IEnumConnectionPoints@@3U_GUID@@BPAUIConnectionPoint@@V?$_CopyInterface@UIConnectionPoint@@@ATL@@VCComMultiThreadModel@6@@ATL@@@ATL@@QAE@XZ 00464810 f i PA.obj
 0001:000638c0       ?_InternalQueryInterface@?$CComEnum@UIEnumConnectionPoints@@$1?IID_IEnumConnectionPoints@@3U_GUID@@BPAUIConnectionPoint@@V?$_CopyInterface@UIConnectionPoint@@@ATL@@VCComMultiThreadModel@6@@ATL@@QAEJABU_GUID@@PAPAX@Z 004648c0 f i PA.obj
 0001:00063920       ??0?$CComEnumImpl@UIEnumConnectionPoints@@$1?IID_IEnumConnectionPoints@@3U_GUID@@BPAUIConnectionPoint@@V?$_CopyInterface@UIConnectionPoint@@@ATL@@@ATL@@QAE@XZ 00464920 f i PA.obj
 0001:000639b0       ??0?$CComPtr@UIUnknown@@@ATL@@QAE@XZ 004649b0 f i PA.obj
 0001:000639f0       ?FinalRelease@?$CComClassFactorySingleton@VCPA@@@ATL@@QAEXXZ 004649f0 f i PA.obj
 0001:00063a50       ?GetUnknown@CPA@@QAEPAUIUnknown@@XZ 00464a50 f i PA.obj
 0001:00063aa0       ?_GetRawUnknown@CPA@@QAEPAUIUnknown@@XZ 00464aa0 f i PA.obj
 0001:00063af0       ??0?$CComObjectGlobal@VCPA@@@ATL@@QAE@PAX@Z 00464af0 f i PA.obj
 0001:00063c90       ??0?$CComObject@VCPA@@@ATL@@QAE@PAX@Z 00464c90 f i PA.obj
 0001:00063e20       ?AddRef@?$CComObject@VCPA@@@ATL@@UAGKXZ 00464e20 f i PA.obj
 0001:00063e70       ?Release@?$CComObject@VCPA@@@ATL@@UAGKXZ 00464e70 f i PA.obj
 0001:00063f10       ?QueryInterface@?$CComObject@VCPA@@@ATL@@UAGJABU_GUID@@PAPAX@Z 00464f10 f i PA.obj
 0001:00063f60       ??0IEnumConnectionPoints@@QAE@XZ 00464f60 f i PA.obj
 0001:00063fb0       ??_E?$CComObject@VCPA@@@ATL@@UAEPAXI@Z 00464fb0 f i PA.obj
 0001:00063fb0       ??_G?$CComObject@VCPA@@@ATL@@UAEPAXI@Z 00464fb0 f i PA.obj
 0001:00064020       ??1?$CComObject@VCPA@@@ATL@@UAE@XZ 00465020 f i PA.obj
 0001:000641d0       ?_GetEntries@?$CComEnum@UIEnumConnectionPoints@@$1?IID_IEnumConnectionPoints@@3U_GUID@@BPAUIConnectionPoint@@V?$_CopyInterface@UIConnectionPoint@@@ATL@@VCComMultiThreadModel@6@@ATL@@SGPBU_ATL_INTMAP_ENTRY@2@XZ 004651d0 f i PA.obj
 0001:00064200       ?Advise@?$IConnectionPointImpl@VCPA@@$1?IID_IPABurnEvent@@3U_GUID@@BVCComDynamicUnkArray@ATL@@@ATL@@UAGJPAUIUnknown@@PAK@Z 00465200 f i PA.obj
 0001:00064380       ?Unadvise@?$IConnectionPointImpl@VCPA@@$1?IID_IPABurnEvent@@3U_GUID@@BVCComDynamicUnkArray@ATL@@@ATL@@UAGJK@Z 00465380 f i PA.obj
 0001:00064470       ?EnumConnections@?$IConnectionPointImpl@VCPA@@$1?IID_IPABurnEvent@@3U_GUID@@BVCComDynamicUnkArray@ATL@@@ATL@@UAGJPAPAUIEnumConnections@@@Z 00465470 f i PA.obj
 0001:000647b0       ?Advise@?$IConnectionPointImpl@VCPA@@$1?IID_IGeneralEvent@@3U_GUID@@BVCComDynamicUnkArray@ATL@@@ATL@@UAGJPAUIUnknown@@PAK@Z 004657b0 f i PA.obj
 0001:00064930       ?Unadvise@?$IConnectionPointImpl@VCPA@@$1?IID_IGeneralEvent@@3U_GUID@@BVCComDynamicUnkArray@ATL@@@ATL@@UAGJK@Z 00465930 f i PA.obj
 0001:00064a20       ?EnumConnections@?$IConnectionPointImpl@VCPA@@$1?IID_IGeneralEvent@@3U_GUID@@BVCComDynamicUnkArray@ATL@@@ATL@@UAGJPAPAUIEnumConnections@@@Z 00465a20 f i PA.obj
 0001:00064d60       ?Advise@?$IConnectionPointImpl@VCPA@@$1?IID_IPAGeneralEvent@@3U_GUID@@BVCComDynamicUnkArray@ATL@@@ATL@@UAGJPAUIUnknown@@PAK@Z 00465d60 f i PA.obj
 0001:00064ee0       ?Unadvise@?$IConnectionPointImpl@VCPA@@$1?IID_IPAGeneralEvent@@3U_GUID@@BVCComDynamicUnkArray@ATL@@@ATL@@UAGJK@Z 00465ee0 f i PA.obj
 0001:00064fd0       ?EnumConnections@?$IConnectionPointImpl@VCPA@@$1?IID_IPAGeneralEvent@@3U_GUID@@BVCComDynamicUnkArray@ATL@@@ATL@@UAGJPAPAUIEnumConnections@@@Z 00465fd0 f i PA.obj
 0001:00065310       ?Advise@?$IConnectionPointImpl@VCPA@@$1?IID_IPAPrintEvent@@3U_GUID@@BVCComDynamicUnkArray@ATL@@@ATL@@UAGJPAUIUnknown@@PAK@Z 00466310 f i PA.obj
 0001:00065490       ?Unadvise@?$IConnectionPointImpl@VCPA@@$1?IID_IPAPrintEvent@@3U_GUID@@BVCComDynamicUnkArray@ATL@@@ATL@@UAGJK@Z 00466490 f i PA.obj
 0001:00065580       ?EnumConnections@?$IConnectionPointImpl@VCPA@@$1?IID_IPAPrintEvent@@3U_GUID@@BVCComDynamicUnkArray@ATL@@@ATL@@UAGJPAPAUIEnumConnections@@@Z 00466580 f i PA.obj
 0001:000658c0       ?Advise@?$IConnectionPointImpl@VCPA@@$1?IID_IPATransferEvent@@3U_GUID@@BVCComDynamicUnkArray@ATL@@@ATL@@UAGJPAUIUnknown@@PAK@Z 004668c0 f i PA.obj
 0001:00065a40       ?Unadvise@?$IConnectionPointImpl@VCPA@@$1?IID_IPATransferEvent@@3U_GUID@@BVCComDynamicUnkArray@ATL@@@ATL@@UAGJK@Z 00466a40 f i PA.obj
 0001:00065b30       ?EnumConnections@?$IConnectionPointImpl@VCPA@@$1?IID_IPATransferEvent@@3U_GUID@@BVCComDynamicUnkArray@ATL@@@ATL@@UAGJPAPAUIEnumConnections@@@Z 00466b30 f i PA.obj
 0001:00065e70       ?Advise@?$IConnectionPointImpl@VCPA@@$1?IID_IPADiscImportEvent@@3U_GUID@@BVCComDynamicUnkArray@ATL@@@ATL@@UAGJPAUIUnknown@@PAK@Z 00466e70 f i PA.obj
 0001:00065ff0       ?Unadvise@?$IConnectionPointImpl@VCPA@@$1?IID_IPADiscImportEvent@@3U_GUID@@BVCComDynamicUnkArray@ATL@@@ATL@@UAGJK@Z 00466ff0 f i PA.obj
 0001:000660e0       ?EnumConnections@?$IConnectionPointImpl@VCPA@@$1?IID_IPADiscImportEvent@@3U_GUID@@BVCComDynamicUnkArray@ATL@@@ATL@@UAGJPAPAUIEnumConnections@@@Z 004670e0 f i PA.obj
 0001:00066420       ?Advise@?$IConnectionPointImpl@VCPA@@$1?IID_IPAWLMPPSEvent@@3U_GUID@@BVCComDynamicUnkArray@ATL@@@ATL@@UAGJPAUIUnknown@@PAK@Z 00467420 f i PA.obj
 0001:000665a0       ?Unadvise@?$IConnectionPointImpl@VCPA@@$1?IID_IPAWLMPPSEvent@@3U_GUID@@BVCComDynamicUnkArray@ATL@@@ATL@@UAGJK@Z 004675a0 f i PA.obj
 0001:00066690       ?EnumConnections@?$IConnectionPointImpl@VCPA@@$1?IID_IPAWLMPPSEvent@@3U_GUID@@BVCComDynamicUnkArray@ATL@@@ATL@@UAGJPAPAUIEnumConnections@@@Z 00467690 f i PA.obj
 0001:000669d0       ?Advise@?$IConnectionPointImpl@VCPA@@$1?IID_IUserGuidanceEvent@@3U_GUID@@BVCComDynamicUnkArray@ATL@@@ATL@@UAGJPAUIUnknown@@PAK@Z 004679d0 f i PA.obj
 0001:00066b50       ?Unadvise@?$IConnectionPointImpl@VCPA@@$1?IID_IUserGuidanceEvent@@3U_GUID@@BVCComDynamicUnkArray@ATL@@@ATL@@UAGJK@Z 00467b50 f i PA.obj
 0001:00066c40       ?EnumConnections@?$IConnectionPointImpl@VCPA@@$1?IID_IUserGuidanceEvent@@3U_GUID@@BVCComDynamicUnkArray@ATL@@@ATL@@UAGJPAPAUIEnumConnections@@@Z 00467c40 f i PA.obj
 0001:00066f80       ??1?$CComEnumImpl@UIEnumConnectionPoints@@$1?IID_IEnumConnectionPoints@@3U_GUID@@BPAUIConnectionPoint@@V?$_CopyInterface@UIConnectionPoint@@@ATL@@@ATL@@QAE@XZ 00467f80 f i PA.obj
 0001:00067070       ?Next@?$CComEnumImpl@UIEnumConnectionPoints@@$1?IID_IEnumConnectionPoints@@3U_GUID@@BPAUIConnectionPoint@@V?$_CopyInterface@UIConnectionPoint@@@ATL@@@ATL@@UAGJKPAPAUIConnectionPoint@@PAK@Z 00468070 f i PA.obj
 0001:00067210       ?Skip@?$CComEnumImpl@UIEnumConnectionPoints@@$1?IID_IEnumConnectionPoints@@3U_GUID@@BPAUIConnectionPoint@@V?$_CopyInterface@UIConnectionPoint@@@ATL@@@ATL@@UAGJK@Z 00468210 f i PA.obj
 0001:000672b0       ?Clone@?$CComEnumImpl@UIEnumConnectionPoints@@$1?IID_IEnumConnectionPoints@@3U_GUID@@BPAUIConnectionPoint@@V?$_CopyInterface@UIConnectionPoint@@@ATL@@@ATL@@UAGJPAPAUIEnumConnectionPoints@@@Z 004682b0 f i PA.obj
 0001:00067470       ??B?$CComPtr@UIUnknown@@@ATL@@QBEPAUIUnknown@@XZ 00468470 f i PA.obj
 0001:000674b0       ?Init@?$CComEnumImpl@UIEnumConnectionPoints@@$1?IID_IEnumConnectionPoints@@3U_GUID@@BPAUIConnectionPoint@@V?$_CopyInterface@UIConnectionPoint@@@ATL@@@ATL@@QAEJPAPAUIConnectionPoint@@0PAUIUnknown@@W4CComEnumFlags@2@@Z 004684b0 f i PA.obj
 0001:00067700       ??_G?$CComObject@V?$CComEnum@UIEnumConnections@@$1?IID_IEnumConnections@@3U_GUID@@BUtagCONNECTDATA@@V?$_Copy@UtagCONNECTDATA@@@ATL@@VCComMultiThreadModel@6@@ATL@@@ATL@@QAEPAXI@Z 00468700 f i PA.obj
 0001:00067770       ??4?$CComPtr@UIUnknown@@@ATL@@QAEPAUIUnknown@@PAU2@@Z 00468770 f i PA.obj
 0001:000677c0       ??0?$CComObject@V?$CComEnum@UIEnumConnections@@$1?IID_IEnumConnections@@3U_GUID@@BUtagCONNECTDATA@@V?$_Copy@UtagCONNECTDATA@@@ATL@@VCComMultiThreadModel@6@@ATL@@@ATL@@QAE@PAX@Z 004687c0 f i PA.obj
 0001:00067860       ??1?$CComObject@V?$CComEnum@UIEnumConnections@@$1?IID_IEnumConnections@@3U_GUID@@BUtagCONNECTDATA@@V?$_Copy@UtagCONNECTDATA@@@ATL@@VCComMultiThreadModel@6@@ATL@@@ATL@@QAE@XZ 00468860 f i PA.obj
 0001:00067910       ?AddRef@?$CComObject@V?$CComEnum@UIEnumConnections@@$1?IID_IEnumConnections@@3U_GUID@@BUtagCONNECTDATA@@V?$_Copy@UtagCONNECTDATA@@@ATL@@VCComMultiThreadModel@6@@ATL@@@ATL@@UAGKXZ 00468910 f i PA.obj
 0001:00067960       ?Release@?$CComObject@V?$CComEnum@UIEnumConnections@@$1?IID_IEnumConnections@@3U_GUID@@BUtagCONNECTDATA@@V?$_Copy@UtagCONNECTDATA@@@ATL@@VCComMultiThreadModel@6@@ATL@@@ATL@@UAGKXZ 00468960 f i PA.obj
 0001:000679f0       ?QueryInterface@?$CComObject@V?$CComEnum@UIEnumConnections@@$1?IID_IEnumConnections@@3U_GUID@@BUtagCONNECTDATA@@V?$_Copy@UtagCONNECTDATA@@@ATL@@VCComMultiThreadModel@6@@ATL@@@ATL@@UAGJABU_GUID@@PAPAX@Z 004689f0 f i PA.obj
 0001:00067a40       ?_InternalQueryInterface@?$CComEnum@UIEnumConnections@@$1?IID_IEnumConnections@@3U_GUID@@BUtagCONNECTDATA@@V?$_Copy@UtagCONNECTDATA@@@ATL@@VCComMultiThreadModel@6@@ATL@@QAEJABU_GUID@@PAPAX@Z 00468a40 f i PA.obj
 0001:00067aa0       ?Reset@?$CComEnumImpl@UIEnumConnections@@$1?IID_IEnumConnections@@3U_GUID@@BUtagCONNECTDATA@@V?$_Copy@UtagCONNECTDATA@@@ATL@@@ATL@@UAGJXZ 00468aa0 f i PA.obj
 0001:00067ae0       ?copy@?$_CopyInterface@UIConnectionPoint@@@ATL@@SAJPAPAUIConnectionPoint@@0@Z 00468ae0 f i PA.obj
 0001:00067b50       ?init@?$_CopyInterface@UIConnectionPoint@@@ATL@@SAXPAPAUIConnectionPoint@@@Z 00468b50 f i PA.obj
 0001:00067b80       ?destroy@?$_CopyInterface@UIConnectionPoint@@@ATL@@SAXPAPAUIConnectionPoint@@@Z 00468b80 f i PA.obj
 0001:00067be0       ??0?$CComEnum@UIEnumConnections@@$1?IID_IEnumConnections@@3U_GUID@@BUtagCONNECTDATA@@V?$_Copy@UtagCONNECTDATA@@@ATL@@VCComMultiThreadModel@6@@ATL@@QAE@XZ 00468be0 f i PA.obj
 0001:00067c70       ??1?$CComEnum@UIEnumConnections@@$1?IID_IEnumConnections@@3U_GUID@@BUtagCONNECTDATA@@V?$_Copy@UtagCONNECTDATA@@@ATL@@VCComMultiThreadModel@6@@ATL@@QAE@XZ 00468c70 f i PA.obj
 0001:00067d20       ?_GetEntries@?$CComEnum@UIEnumConnections@@$1?IID_IEnumConnections@@3U_GUID@@BUtagCONNECTDATA@@V?$_Copy@UtagCONNECTDATA@@@ATL@@VCComMultiThreadModel@6@@ATL@@SGPBU_ATL_INTMAP_ENTRY@2@XZ 00468d20 f i PA.obj
 0001:00067d50       ??0?$CComEnumImpl@UIEnumConnections@@$1?IID_IEnumConnections@@3U_GUID@@BUtagCONNECTDATA@@V?$_Copy@UtagCONNECTDATA@@@ATL@@@ATL@@QAE@XZ 00468d50 f i PA.obj
 0001:00067de0       ??0IEnumConnections@@QAE@XZ 00468de0 f i PA.obj
 0001:00067e30       ??1?$CComEnumImpl@UIEnumConnections@@$1?IID_IEnumConnections@@3U_GUID@@BUtagCONNECTDATA@@V?$_Copy@UtagCONNECTDATA@@@ATL@@@ATL@@QAE@XZ 00468e30 f i PA.obj
 0001:00067f20       ?Next@?$CComEnumImpl@UIEnumConnections@@$1?IID_IEnumConnections@@3U_GUID@@BUtagCONNECTDATA@@V?$_Copy@UtagCONNECTDATA@@@ATL@@@ATL@@UAGJKPAUtagCONNECTDATA@@PAK@Z 00468f20 f i PA.obj
 0001:000680c0       ?Skip@?$CComEnumImpl@UIEnumConnections@@$1?IID_IEnumConnections@@3U_GUID@@BUtagCONNECTDATA@@V?$_Copy@UtagCONNECTDATA@@@ATL@@@ATL@@UAGJK@Z 004690c0 f i PA.obj
 0001:00068160       ?Clone@?$CComEnumImpl@UIEnumConnections@@$1?IID_IEnumConnections@@3U_GUID@@BUtagCONNECTDATA@@V?$_Copy@UtagCONNECTDATA@@@ATL@@@ATL@@UAGJPAPAUIEnumConnections@@@Z 00469160 f i PA.obj
 0001:00068320       ?Init@?$CComEnumImpl@UIEnumConnections@@$1?IID_IEnumConnections@@3U_GUID@@BUtagCONNECTDATA@@V?$_Copy@UtagCONNECTDATA@@@ATL@@@ATL@@QAEJPAUtagCONNECTDATA@@0PAUIUnknown@@W4CComEnumFlags@2@@Z 00469320 f i PA.obj
 0001:00068570       ?CreateInstance@?$CComObject@V?$CComEnum@UIEnumConnectionPoints@@$1?IID_IEnumConnectionPoints@@3U_GUID@@BPAUIConnectionPoint@@V?$_CopyInterface@UIConnectionPoint@@@ATL@@VCComMultiThreadModel@6@@ATL@@@ATL@@SGJPAPAV12@@Z 00469570 f i PA.obj
 0001:000686f0       ?CreateInstance@?$CComObject@V?$CComEnum@UIEnumConnections@@$1?IID_IEnumConnections@@3U_GUID@@BUtagCONNECTDATA@@V?$_Copy@UtagCONNECTDATA@@@ATL@@VCComMultiThreadModel@6@@ATL@@@ATL@@SGJPAPAV12@@Z 004696f0 f i PA.obj
 0001:00068870       ?QueryInterface@?$CComObject@VCPA@@@ATL@@W3AGJABU_GUID@@PAPAX@Z 00469870 f i PA.obj
 0001:00068880       ?AddRef@?$CComObject@VCPA@@@ATL@@W3AGKXZ 00469880 f i PA.obj
 0001:00068890       ?Release@?$CComObject@VCPA@@@ATL@@W3AGKXZ 00469890 f i PA.obj
 0001:000688a0       ?QueryInterface@?$CComObject@VCPA@@@ATL@@W7AGJABU_GUID@@PAPAX@Z 004698a0 f i PA.obj
 0001:000688b0       ?AddRef@?$CComObject@VCPA@@@ATL@@W7AGKXZ 004698b0 f i PA.obj
 0001:000688c0       ?Release@?$CComObject@VCPA@@@ATL@@W7AGKXZ 004698c0 f i PA.obj
 0001:000688d0       ?QueryInterface@?$CComObject@VCPA@@@ATL@@WM@AGJABU_GUID@@PAPAX@Z 004698d0 f i PA.obj
 0001:000688e0       ?AddRef@?$CComObject@VCPA@@@ATL@@WM@AGKXZ 004698e0 f i PA.obj
 0001:000688f0       ?Release@?$CComObject@VCPA@@@ATL@@WM@AGKXZ 004698f0 f i PA.obj
 0001:00068900       ?QueryInterface@?$CComObject@VCPA@@@ATL@@WBA@AGJABU_GUID@@PAPAX@Z 00469900 f i PA.obj
 0001:00068910       ?AddRef@?$CComObject@VCPA@@@ATL@@WBA@AGKXZ 00469910 f i PA.obj
 0001:00068920       ?Release@?$CComObject@VCPA@@@ATL@@WBA@AGKXZ 00469920 f i PA.obj
 0001:00068930       ?QueryInterface@?$CComObject@VCPA@@@ATL@@WBE@AGJABU_GUID@@PAPAX@Z 00469930 f i PA.obj
 0001:00068940       ?AddRef@?$CComObject@VCPA@@@ATL@@WBE@AGKXZ 00469940 f i PA.obj
 0001:00068950       ?Release@?$CComObject@VCPA@@@ATL@@WBE@AGKXZ 00469950 f i PA.obj
 0001:00068960       ?QueryInterface@?$CComObject@VCPA@@@ATL@@WBI@AGJABU_GUID@@PAPAX@Z 00469960 f i PA.obj
 0001:00068970       ?AddRef@?$CComObject@VCPA@@@ATL@@WBI@AGKXZ 00469970 f i PA.obj
 0001:00068980       ?Release@?$CComObject@VCPA@@@ATL@@WBI@AGKXZ 00469980 f i PA.obj
 0001:00068990       ?QueryInterface@?$CComObject@VCPA@@@ATL@@WBM@AGJABU_GUID@@PAPAX@Z 00469990 f i PA.obj
 0001:000689a0       ?AddRef@?$CComObject@VCPA@@@ATL@@WBM@AGKXZ 004699a0 f i PA.obj
 0001:000689b0       ?Release@?$CComObject@VCPA@@@ATL@@WBM@AGKXZ 004699b0 f i PA.obj
 0001:000689c0       ?QueryInterface@?$CComObject@VCPA@@@ATL@@WCA@AGJABU_GUID@@PAPAX@Z 004699c0 f i PA.obj
 0001:000689d0       ?AddRef@?$CComObject@VCPA@@@ATL@@WCA@AGKXZ 004699d0 f i PA.obj
 0001:000689e0       ?Release@?$CComObject@VCPA@@@ATL@@WCA@AGKXZ 004699e0 f i PA.obj
 0001:000689f0       ?QueryInterface@?$CComObject@VCPA@@@ATL@@WCE@AGJABU_GUID@@PAPAX@Z 004699f0 f i PA.obj
 0001:00068a00       ?AddRef@?$CComObject@VCPA@@@ATL@@WCE@AGKXZ 00469a00 f i PA.obj
 0001:00068a10       ?Release@?$CComObject@VCPA@@@ATL@@WCE@AGKXZ 00469a10 f i PA.obj
 0001:00068a20       ?AddRef@?$CComObject@VCPA@@@ATL@@WCI@AGKXZ 00469a20 f i PA.obj
 0001:00068a30       ?Release@?$CComObject@VCPA@@@ATL@@WCI@AGKXZ 00469a30 f i PA.obj
 0001:00068a40       ?AddRef@?$CComObject@VCPA@@@ATL@@WDE@AGKXZ 00469a40 f i PA.obj
 0001:00068a50       ?Release@?$CComObject@VCPA@@@ATL@@WDE@AGKXZ 00469a50 f i PA.obj
 0001:00068a60       ?AddRef@?$CComObject@VCPA@@@ATL@@WEA@AGKXZ 00469a60 f i PA.obj
 0001:00068a70       ?Release@?$CComObject@VCPA@@@ATL@@WEA@AGKXZ 00469a70 f i PA.obj
 0001:00068a80       ?AddRef@?$CComObject@VCPA@@@ATL@@WEM@AGKXZ 00469a80 f i PA.obj
 0001:00068a90       ?Release@?$CComObject@VCPA@@@ATL@@WEM@AGKXZ 00469a90 f i PA.obj
 0001:00068aa0       ?AddRef@?$CComObject@VCPA@@@ATL@@WFI@AGKXZ 00469aa0 f i PA.obj
 0001:00068ab0       ?Release@?$CComObject@VCPA@@@ATL@@WFI@AGKXZ 00469ab0 f i PA.obj
 0001:00068ac0       ?AddRef@?$CComObject@VCPA@@@ATL@@WGE@AGKXZ 00469ac0 f i PA.obj
 0001:00068ad0       ?Release@?$CComObject@VCPA@@@ATL@@WGE@AGKXZ 00469ad0 f i PA.obj
 0001:00068ae0       ?AddRef@?$CComObject@VCPA@@@ATL@@WHA@AGKXZ 00469ae0 f i PA.obj
 0001:00068af0       ?Release@?$CComObject@VCPA@@@ATL@@WHA@AGKXZ 00469af0 f i PA.obj
 0001:00068b00       ?AddRef@?$CComObject@VCPA@@@ATL@@WHM@AGKXZ 00469b00 f i PA.obj
 0001:00068b10       ?Release@?$CComObject@VCPA@@@ATL@@WHM@AGKXZ 00469b10 f i PA.obj
 0001:00068b20       ?QueryInterface@?$CComObject@VCPA@@@ATL@@WII@AGJABU_GUID@@PAPAX@Z 00469b20 f i PA.obj
 0001:00068b30       ?AddRef@?$CComObject@VCPA@@@ATL@@WII@AGKXZ 00469b30 f i PA.obj
 0001:00068b40       ?Release@?$CComObject@VCPA@@@ATL@@WII@AGKXZ 00469b40 f i PA.obj
 0001:00068b50       ?QueryInterface@?$CComObjectGlobal@VCPA@@@ATL@@W3AGJABU_GUID@@PAPAX@Z 00469b50 f i PA.obj
 0001:00068b60       ?AddRef@?$CComObjectGlobal@VCPA@@@ATL@@W3AGKXZ 00469b60 f i PA.obj
 0001:00068b70       ?Release@?$CComObjectGlobal@VCPA@@@ATL@@W3AGKXZ 00469b70 f i PA.obj
 0001:00068b80       ?QueryInterface@?$CComObjectGlobal@VCPA@@@ATL@@W7AGJABU_GUID@@PAPAX@Z 00469b80 f i PA.obj
 0001:00068b90       ?AddRef@?$CComObjectGlobal@VCPA@@@ATL@@W7AGKXZ 00469b90 f i PA.obj
 0001:00068ba0       ?Release@?$CComObjectGlobal@VCPA@@@ATL@@W7AGKXZ 00469ba0 f i PA.obj
 0001:00068bb0       ?QueryInterface@?$CComObjectGlobal@VCPA@@@ATL@@WM@AGJABU_GUID@@PAPAX@Z 00469bb0 f i PA.obj
 0001:00068bc0       ?AddRef@?$CComObjectGlobal@VCPA@@@ATL@@WM@AGKXZ 00469bc0 f i PA.obj
 0001:00068bd0       ?Release@?$CComObjectGlobal@VCPA@@@ATL@@WM@AGKXZ 00469bd0 f i PA.obj
 0001:00068be0       ?QueryInterface@?$CComObjectGlobal@VCPA@@@ATL@@WBA@AGJABU_GUID@@PAPAX@Z 00469be0 f i PA.obj
 0001:00068bf0       ?AddRef@?$CComObjectGlobal@VCPA@@@ATL@@WBA@AGKXZ 00469bf0 f i PA.obj
 0001:00068c00       ?Release@?$CComObjectGlobal@VCPA@@@ATL@@WBA@AGKXZ 00469c00 f i PA.obj
 0001:00068c10       ?QueryInterface@?$CComObjectGlobal@VCPA@@@ATL@@WBE@AGJABU_GUID@@PAPAX@Z 00469c10 f i PA.obj
 0001:00068c20       ?AddRef@?$CComObjectGlobal@VCPA@@@ATL@@WBE@AGKXZ 00469c20 f i PA.obj
 0001:00068c30       ?Release@?$CComObjectGlobal@VCPA@@@ATL@@WBE@AGKXZ 00469c30 f i PA.obj
 0001:00068c40       ?QueryInterface@?$CComObjectGlobal@VCPA@@@ATL@@WBI@AGJABU_GUID@@PAPAX@Z 00469c40 f i PA.obj
 0001:00068c50       ?AddRef@?$CComObjectGlobal@VCPA@@@ATL@@WBI@AGKXZ 00469c50 f i PA.obj
 0001:00068c60       ?Release@?$CComObjectGlobal@VCPA@@@ATL@@WBI@AGKXZ 00469c60 f i PA.obj
 0001:00068c70       ?QueryInterface@?$CComObjectGlobal@VCPA@@@ATL@@WBM@AGJABU_GUID@@PAPAX@Z 00469c70 f i PA.obj
 0001:00068c80       ?AddRef@?$CComObjectGlobal@VCPA@@@ATL@@WBM@AGKXZ 00469c80 f i PA.obj
 0001:00068c90       ?Release@?$CComObjectGlobal@VCPA@@@ATL@@WBM@AGKXZ 00469c90 f i PA.obj
 0001:00068ca0       ?QueryInterface@?$CComObjectGlobal@VCPA@@@ATL@@WCA@AGJABU_GUID@@PAPAX@Z 00469ca0 f i PA.obj
 0001:00068cb0       ?AddRef@?$CComObjectGlobal@VCPA@@@ATL@@WCA@AGKXZ 00469cb0 f i PA.obj
 0001:00068cc0       ?Release@?$CComObjectGlobal@VCPA@@@ATL@@WCA@AGKXZ 00469cc0 f i PA.obj
 0001:00068cd0       ?QueryInterface@?$CComObjectGlobal@VCPA@@@ATL@@WCE@AGJABU_GUID@@PAPAX@Z 00469cd0 f i PA.obj
 0001:00068ce0       ?AddRef@?$CComObjectGlobal@VCPA@@@ATL@@WCE@AGKXZ 00469ce0 f i PA.obj
 0001:00068cf0       ?Release@?$CComObjectGlobal@VCPA@@@ATL@@WCE@AGKXZ 00469cf0 f i PA.obj
 0001:00068d00       ?AddRef@?$CComObjectGlobal@VCPA@@@ATL@@WCI@AGKXZ 00469d00 f i PA.obj
 0001:00068d10       ?Release@?$CComObjectGlobal@VCPA@@@ATL@@WCI@AGKXZ 00469d10 f i PA.obj
 0001:00068d20       ?AddRef@?$CComObjectGlobal@VCPA@@@ATL@@WDE@AGKXZ 00469d20 f i PA.obj
 0001:00068d30       ?Release@?$CComObjectGlobal@VCPA@@@ATL@@WDE@AGKXZ 00469d30 f i PA.obj
 0001:00068d40       ?AddRef@?$CComObjectGlobal@VCPA@@@ATL@@WEA@AGKXZ 00469d40 f i PA.obj
 0001:00068d50       ?Release@?$CComObjectGlobal@VCPA@@@ATL@@WEA@AGKXZ 00469d50 f i PA.obj
 0001:00068d60       ?AddRef@?$CComObjectGlobal@VCPA@@@ATL@@WEM@AGKXZ 00469d60 f i PA.obj
 0001:00068d70       ?Release@?$CComObjectGlobal@VCPA@@@ATL@@WEM@AGKXZ 00469d70 f i PA.obj
 0001:00068d80       ?AddRef@?$CComObjectGlobal@VCPA@@@ATL@@WFI@AGKXZ 00469d80 f i PA.obj
 0001:00068d90       ?Release@?$CComObjectGlobal@VCPA@@@ATL@@WFI@AGKXZ 00469d90 f i PA.obj
 0001:00068da0       ?AddRef@?$CComObjectGlobal@VCPA@@@ATL@@WGE@AGKXZ 00469da0 f i PA.obj
 0001:00068db0       ?Release@?$CComObjectGlobal@VCPA@@@ATL@@WGE@AGKXZ 00469db0 f i PA.obj
 0001:00068dc0       ?AddRef@?$CComObjectGlobal@VCPA@@@ATL@@WHA@AGKXZ 00469dc0 f i PA.obj
 0001:00068dd0       ?Release@?$CComObjectGlobal@VCPA@@@ATL@@WHA@AGKXZ 00469dd0 f i PA.obj
 0001:00068de0       ?AddRef@?$CComObjectGlobal@VCPA@@@ATL@@WHM@AGKXZ 00469de0 f i PA.obj
 0001:00068df0       ?Release@?$CComObjectGlobal@VCPA@@@ATL@@WHM@AGKXZ 00469df0 f i PA.obj
 0001:00068e00       ?QueryInterface@?$CComObjectGlobal@VCPA@@@ATL@@WII@AGJABU_GUID@@PAPAX@Z 00469e00 f i PA.obj
 0001:00068e10       ?AddRef@?$CComObjectGlobal@VCPA@@@ATL@@WII@AGKXZ 00469e10 f i PA.obj
 0001:00068e20       ?Release@?$CComObjectGlobal@VCPA@@@ATL@@WII@AGKXZ 00469e20 f i PA.obj
 0001:00068e30       ??0CComObjectRootBase@ATL@@QAE@XZ 00469e30 f i PA.obj
 0001:00068e70       ?FinalConstruct@CComObjectRootBase@ATL@@QAEJXZ 00469e70 f i PA.obj
 0001:00068ea0       ?FinalRelease@CComObjectRootBase@ATL@@QAEXXZ 00469ea0 f i PA.obj
 0001:00068ed0       ?ObjectMain@CComObjectRootBase@ATL@@SGX_N@Z 00469ed0 f i PA.obj
 0001:00068f00       ?InternalQueryInterface@CComObjectRootBase@ATL@@SGJPAXPBU_ATL_INTMAP_ENTRY@2@ABU_GUID@@PAPAX@Z 00469f00 f i PA.obj
 0001:00068f60       ?AtlInternalQueryInterface@ATL@@YGJPAXPBU_ATL_INTMAP_ENTRY@1@ABU_GUID@@PAPAX@Z 00469f60 f i PA.obj
 0001:000690f0       ?SetVoid@CComObjectRootBase@ATL@@QAEXPAX@Z 0046a0f0 f i PA.obj
 0001:00069120       ?InternalFinalConstructAddRef@CComObjectRootBase@ATL@@QAEXXZ 0046a120 f i PA.obj
 0001:00069150       ?InternalFinalConstructRelease@CComObjectRootBase@ATL@@QAEXXZ 0046a150 f i PA.obj
 0001:00069180       ?_InternalQueryInterface@CComClassFactory@ATL@@QAEJABU_GUID@@PAPAX@Z 0046a180 f i PA.obj
 0001:000691e0       ?_GetEntries@CComClassFactory@ATL@@SGPBU_ATL_INTMAP_ENTRY@2@XZ 0046a1e0 f i PA.obj
 0001:00069210       ?CreateInstance@CComClassFactory@ATL@@UAGJPAUIUnknown@@ABU_GUID@@PAPAX@Z 0046a210 f i PA.obj
 0001:000692e0       ?AtlTrace2@ATL@@YAXKIPBGZZ 0046a2e0 f i PA.obj
 0001:00069310       ?LockServer@CComClassFactory@ATL@@UAGJH@Z 0046a310 f i PA.obj
 0001:00069370       ?SetVoid@CComClassFactory@ATL@@QAEXPAX@Z 0046a370 f i PA.obj
 0001:000693b0       ?copy@?$_Copy@UtagCONNECTDATA@@@ATL@@SAJPAUtagCONNECTDATA@@0@Z 0046a3b0 f i PA.obj
 0001:00069430       ?init@?$_Copy@UtagCONNECTDATA@@@ATL@@SAXPAUtagCONNECTDATA@@@Z 0046a430 f i PA.obj
 0001:00069460       ?destroy@?$_Copy@UtagCONNECTDATA@@@ATL@@SAXPAUtagCONNECTDATA@@@Z 0046a460 f i PA.obj
 0001:000694c0       ?GetCookie@CComDynamicUnkArray@ATL@@SGKPAPAUIUnknown@@@Z 0046a4c0 f i PA.obj
 0001:000694f0       ?GetUnknown@CComDynamicUnkArray@ATL@@SGPAUIUnknown@@K@Z 0046a4f0 f i PA.obj
 0001:00069520       ?begin@CComDynamicUnkArray@ATL@@QAEPAPAUIUnknown@@XZ 0046a520 f i PA.obj
 0001:00069570       ?end@CComDynamicUnkArray@ATL@@QAEPAPAUIUnknown@@XZ 0046a570 f i PA.obj
 0001:000695e0       ?Add@CComDynamicUnkArray@ATL@@QAEKPAUIUnknown@@@Z 0046a5e0 f i PA.obj
 0001:000697b0       ?Remove@CComDynamicUnkArray@ATL@@QAEHK@Z 0046a7b0 f i PA.obj
 0001:00069890       ?StartUpThreadProc@@YGKPAX@Z 0046a890 f   PAATL.obj
 0001:00069970       ??0CPA@@QAE@XZ             0046a970 f   PAATL.obj
 0001:0006a4e0       ?GetName@ASBasisGetFunctionName@?1???0CPA@@QAE@XZ@QAEXXZ 0046b4e0 f   PAATL.obj
 0001:0006a510       ??0IGeneralInterface@@QAE@XZ 0046b510 f i PAATL.obj
 0001:0006a560       ??0IGeneralSys@@QAE@XZ     0046b560 f i PAATL.obj
 0001:0006a5b0       ??0IPing@@QAE@XZ           0046b5b0 f i PAATL.obj
 0001:0006a600       ??0IUserWorkingMode@@QAE@XZ 0046b600 f i PAATL.obj
 0001:0006a650       ??0IPAGeneral@@QAE@XZ      0046b650 f i PAATL.obj
 0001:0006a6a0       ??0IPAPrint@@QAE@XZ        0046b6a0 f i PAATL.obj
 0001:0006a6f0       ??0IPABurn@@QAE@XZ         0046b6f0 f i PAATL.obj
 0001:0006a740       ??0IPATransfer@@QAE@XZ     0046b740 f i PAATL.obj
 0001:0006a790       ??0IPADiscImport@@QAE@XZ   0046b790 f i PAATL.obj
 0001:0006a7e0       ??0IPAWLMPPS@@QAE@XZ       0046b7e0 f i PAATL.obj
 0001:0006a830       ??0?$CProxyIPABurnEvent@VCPA@@@@QAE@XZ 0046b830 f i PAATL.obj
 0001:0006a890       ??1?$CProxyIPABurnEvent@VCPA@@@@QAE@XZ 0046b890 f i PAATL.obj
 0001:0006a8e0       ??0?$CProxyIGeneralEvent@VCPA@@@@QAE@XZ 0046b8e0 f i PAATL.obj
 0001:0006a940       ??1?$CProxyIGeneralEvent@VCPA@@@@QAE@XZ 0046b940 f i PAATL.obj
 0001:0006a990       ??0?$CProxyIPAGeneralEvent@VCPA@@@@QAE@XZ 0046b990 f i PAATL.obj
 0001:0006a9f0       ??1?$CProxyIPAGeneralEvent@VCPA@@@@QAE@XZ 0046b9f0 f i PAATL.obj
 0001:0006aa40       ??0?$CProxyIPAPrintEvent@VCPA@@@@QAE@XZ 0046ba40 f i PAATL.obj
 0001:0006aaa0       ??1?$CProxyIPAPrintEvent@VCPA@@@@QAE@XZ 0046baa0 f i PAATL.obj
 0001:0006aaf0       ??0?$CProxyIPATransferEvent@VCPA@@@@QAE@XZ 0046baf0 f i PAATL.obj
 0001:0006ab50       ??1?$CProxyIPATransferEvent@VCPA@@@@QAE@XZ 0046bb50 f i PAATL.obj
 0001:0006aba0       ??0?$CProxyIPADiscImportEvent@VCPA@@@@QAE@XZ 0046bba0 f i PAATL.obj
 0001:0006ac00       ??1?$CProxyIPADiscImportEvent@VCPA@@@@QAE@XZ 0046bc00 f i PAATL.obj
 0001:0006ac50       ??0?$CProxyIPAWLMPPSEvent@VCPA@@@@QAE@XZ 0046bc50 f i PAATL.obj
 0001:0006acb0       ??1?$CProxyIPAWLMPPSEvent@VCPA@@@@QAE@XZ 0046bcb0 f i PAATL.obj
 0001:0006ad00       ??0?$CProxyIUserGuidanceEvent@VCPA@@@@QAE@XZ 0046bd00 f i PAATL.obj
 0001:0006ad60       ??1?$CProxyIUserGuidanceEvent@VCPA@@@@QAE@XZ 0046bd60 f i PAATL.obj
 0001:0006adb0       ??0?$IConnectionPointContainerImpl@VCPA@@@ATL@@QAE@XZ 0046bdb0 f i PAATL.obj
 0001:0006ae00       ??0?$IConnectionPointImpl@VCPA@@$1?IID_IPABurnEvent@@3U_GUID@@BVCComDynamicUnkArray@ATL@@@ATL@@QAE@XZ 0046be00 f i PAATL.obj
 0001:0006ae60       ??0?$IConnectionPointImpl@VCPA@@$1?IID_IGeneralEvent@@3U_GUID@@BVCComDynamicUnkArray@ATL@@@ATL@@QAE@XZ 0046be60 f i PAATL.obj
 0001:0006aec0       ??0?$IConnectionPointImpl@VCPA@@$1?IID_IPAGeneralEvent@@3U_GUID@@BVCComDynamicUnkArray@ATL@@@ATL@@QAE@XZ 0046bec0 f i PAATL.obj
 0001:0006af20       ??0?$IConnectionPointImpl@VCPA@@$1?IID_IPAPrintEvent@@3U_GUID@@BVCComDynamicUnkArray@ATL@@@ATL@@QAE@XZ 0046bf20 f i PAATL.obj
 0001:0006af80       ??0?$IConnectionPointImpl@VCPA@@$1?IID_IPATransferEvent@@3U_GUID@@BVCComDynamicUnkArray@ATL@@@ATL@@QAE@XZ 0046bf80 f i PAATL.obj
 0001:0006afe0       ??0?$IConnectionPointImpl@VCPA@@$1?IID_IPADiscImportEvent@@3U_GUID@@BVCComDynamicUnkArray@ATL@@@ATL@@QAE@XZ 0046bfe0 f i PAATL.obj
 0001:0006b040       ??0?$IConnectionPointImpl@VCPA@@$1?IID_IPAWLMPPSEvent@@3U_GUID@@BVCComDynamicUnkArray@ATL@@@ATL@@QAE@XZ 0046c040 f i PAATL.obj
 0001:0006b0a0       ??0?$IConnectionPointImpl@VCPA@@$1?IID_IUserGuidanceEvent@@3U_GUID@@BVCComDynamicUnkArray@ATL@@@ATL@@QAE@XZ 0046c0a0 f i PAATL.obj
 0001:0006b100       ??0IConnectionPointContainer@@QAE@XZ 0046c100 f i PAATL.obj
 0001:0006b150       ??0?$_ICPLocator@$1?IID_IPABurnEvent@@3U_GUID@@B@ATL@@QAE@XZ 0046c150 f i PAATL.obj
 0001:0006b180       ??0?$_ICPLocator@$1?IID_IGeneralEvent@@3U_GUID@@B@ATL@@QAE@XZ 0046c180 f i PAATL.obj
 0001:0006b1b0       ??0?$_ICPLocator@$1?IID_IPAGeneralEvent@@3U_GUID@@B@ATL@@QAE@XZ 0046c1b0 f i PAATL.obj
 0001:0006b1e0       ??0?$_ICPLocator@$1?IID_IPAPrintEvent@@3U_GUID@@B@ATL@@QAE@XZ 0046c1e0 f i PAATL.obj
 0001:0006b210       ??0?$_ICPLocator@$1?IID_IPATransferEvent@@3U_GUID@@B@ATL@@QAE@XZ 0046c210 f i PAATL.obj
 0001:0006b240       ??0?$_ICPLocator@$1?IID_IPADiscImportEvent@@3U_GUID@@B@ATL@@QAE@XZ 0046c240 f i PAATL.obj
 0001:0006b270       ??0?$_ICPLocator@$1?IID_IPAWLMPPSEvent@@3U_GUID@@B@ATL@@QAE@XZ 0046c270 f i PAATL.obj
 0001:0006b2a0       ??0?$_ICPLocator@$1?IID_IUserGuidanceEvent@@3U_GUID@@B@ATL@@QAE@XZ 0046c2a0 f i PAATL.obj
 0001:0006b2d0       ??1CPA@@UAE@XZ             0046c2d0 f   PAATL.obj
 0001:0006bcd0       ?GetName@ASBasisGetFunctionName@?1???1CPA@@UAE@XZ@QAEXXZ 0046ccd0 f   PAATL.obj
 0001:0006bd00       ?HandleMessage@CPA@@MAEJPAVNSubject@@IJI@Z 0046cd00 f   PAATL.obj
 0001:0006c180       ?Ping@CPA@@UAGJXZ          0046d180 f   PAATL.obj
 0001:0006c1b0       ?StartUp@CPA@@UAGJXZ       0046d1b0 f   PAATL.obj
 0001:0006c700       ?GetName@ASBasisGetFunctionName@?1??StartUp@CPA@@UAGJXZ@QAEXXZ 0046d700 f   PAATL.obj
 0001:0006c730       ?ShutDown@CPA@@UAGJXZ      0046d730 f   PAATL.obj
 0001:0006cc70       ?GetName@ASBasisGetFunctionName@?1??ShutDown@CPA@@UAGJXZ@QAEXXZ 0046dc70 f   PAATL.obj
 0001:0006cca0       ?StartUpProc@CPA@@QAEHXZ   0046dca0 f   PAATL.obj
 0001:0006d580       ?ShutDownProc@CPA@@AAEHXZ  0046e580 f   PAATL.obj
 0001:0006db30       ?PushMsgToFireMsgQueue@CPA@@AAEHAAU_FireMsgNode@@@Z 0046eb30 f   PAATL.obj
 0001:0006db90       ?IsInterfaceValid@CPA@@AAEHXZ 0046eb90 f   PAATL.obj
 0001:0006dc30       ?IsPrintInterfaceValid@CPA@@AAEHXZ 0046ec30 f   PAATL.obj
 0001:0006dcd0       ?IsBurnInterfaceValid@CPA@@AAEHXZ 0046ecd0 f   PAATL.obj
 0001:0006dd70       ?IsTransferInterfaceValid@CPA@@AAEHXZ 0046ed70 f   PAATL.obj
 0001:0006de10       ?IsDiscImportInterfaceValid@CPA@@AAEHXZ 0046ee10 f   PAATL.obj
 0001:0006deb0       ?IsWlMppsInterfaceValid@CPA@@AAEHXZ 0046eeb0 f   PAATL.obj
 0001:0006df50       ?GetStartupResult@CPA@@UAGJPAW4_STARTUPRESULT@@@Z 0046ef50 f   PAATL.obj
 0001:0006e0d0       ?GetName@ASBasisGetFunctionName@?1??GetStartupResult@CPA@@UAGJPAW4_STARTUPRESULT@@@Z@QAEXXZ 0046f0d0 f   PAATL.obj
 0001:0006e100       ?GetWorkState@CPA@@UAGJPAW4_WORKSTATE@@@Z 0046f100 f   PAATL.obj
 0001:0006e530       ?GetName@ASBasisGetFunctionName@?1??GetWorkState@CPA@@UAGJPAW4_WORKSTATE@@@Z@QAEXXZ 0046f530 f   PAATL.obj
 0001:0006e560       ?GetError@CPA@@UAGJPAH@Z   0046f560 f   PAATL.obj
 0001:0006e6d0       ?GetName@ASBasisGetFunctionName@?1??GetError@CPA@@UAGJPAH@Z@QAEXXZ 0046f6d0 f   PAATL.obj
 0001:0006e700       ?Logout@CPA@@UAGJXZ        0046f700 f   PAATL.obj
 0001:0006e870       ?GetName@ASBasisGetFunctionName@?1??Logout@CPA@@UAGJXZ@QAEXXZ 0046f870 f   PAATL.obj
 0001:0006e8a0       ?Login@CPA@@UAGJXZ         0046f8a0 f   PAATL.obj
 0001:0006ea10       ?GetName@ASBasisGetFunctionName@?1??Login@CPA@@UAGJXZ@QAEXXZ 0046fa10 f   PAATL.obj
 0001:0006ea40       ?GetPatientStudySeriesImageOccupyState@CPA@@UAGJW4_PatientAdminUIDType@@JPAPAGPAH@Z 0046fa40 f   PAATL.obj
 0001:0006f060       ?GetName@ASBasisGetFunctionName@?1??GetPatientStudySeriesImageOccupyState@CPA@@UAGJW4_PatientAdminUIDType@@JPAPAGPAH@Z@QAEXXZ 00470060 f   PAATL.obj
 0001:0006f090       ?ReportUserGuidance@CPA@@UAGJJW4UserGuidanceType@@W4UserGuidancePriority@@H@Z 00470090 f   PAATL.obj
 0001:0006f4b0       ?GetJobList@CPA@@UAGJPAPAU_tagJobInfo@@PAJ@Z 004704b0 f   PAATL.obj
 0001:0006f880       ?MoveJob@CPA@@UAGJPAGH@Z   00470880 f   PAATL.obj
 0001:0006fc90       ?CancelJobs@CPA@@UAGJPAPAGJ@Z 00470c90 f   PAATL.obj
 0001:000700f0       ?DeleteJobs@CPA@@UAGJPAPAGJ@Z 004710f0 f   PAATL.obj
 0001:00070550       ?GetHistoryJobCount@CPA@@UAGJPAK@Z 00471550 f   PAATL.obj
 0001:00070910       ?GetHistoryJobs@CPA@@UAGJKPAKPAPAU_tagJobInfo@@@Z 00471910 f   PAATL.obj
 0001:00070ce0       ?GetHistoryJobInfo@CPA@@UAGJPAGPAU_tagJobInfo@@@Z 00471ce0 f   PAATL.obj
 0001:000710f0       ?GetHistoryJobPSSIInfo@CPA@@UAGJPAGPAJPAPAU_tagPSSIInfo@@@Z 004720f0 f   PAATL.obj
 0001:00071500       ?GetHistoryJobNetworkNodeInfo@CPA@@UAGJPAGPAJPAPAU_tagNetworkNode@@@Z 00472500 f   PAATL.obj
 0001:00071910       ?GetHistoryJobDetailInfo@CPA@@UAGJPAGPAJPAPAU_tagJobDetailStruct@@@Z 00472910 f   PAATL.obj
 0001:00071d20       ?GetHistoryJobDiscImportImageInfo@CPA@@UAGJPAGPAJPAPAU_tagDiscImport_SeriesStruct@@@Z 00472d20 f   PAATL.obj
 0001:00072130       ?DeleteHistoryJobs@CPA@@UAGJJPAPAG@Z 00473130 f   PAATL.obj
 0001:00072590       ?DeleteAllHistoryJobs@CPA@@UAGJXZ 00473590 f   PAATL.obj
 0001:00072950       ?CompactDB@CPA@@UAGJH@Z    00473950 f   PAATL.obj
 0001:00072d10       ?Print@CPA@@UAGJJPAPAG@Z   00473d10 f   PAATL.obj
 0001:00073370       ?GetName@ASBasisGetFunctionName@?1??Print@CPA@@UAGJJPAPAG@Z@QAEXXZ 00474370 f   PAATL.obj
 0001:000733a0       ?GetPrintJobList@CPA@@UAGJPAPAU_tagJobInfo@@PAJ@Z 004743a0 f   PAATL.obj
 0001:000738c0       ?GetName@ASBasisGetFunctionName@?1??GetPrintJobList@CPA@@UAGJPAPAU_tagJobInfo@@PAJ@Z@QAEXXZ 004748c0 f   PAATL.obj
 0001:000738f0       ?ShowFCProgressBar@CPA@@UAGJH@Z 004748f0 f   PAATL.obj
 0001:00073e70       ?GetName@ASBasisGetFunctionName@?1??ShowFCProgressBar@CPA@@UAGJH@Z@QAEXXZ 00474e70 f   PAATL.obj
 0001:00073ea0       ?GetPrintNetworkNodes@CPA@@UAGJPAPAU_tagNetworkNode@@PAJ@Z 00474ea0 f   PAATL.obj
 0001:00074430       ?GetName@ASBasisGetFunctionName@?1??GetPrintNetworkNodes@CPA@@UAGJPAPAU_tagNetworkNode@@PAJ@Z@QAEXXZ 00475430 f   PAATL.obj
 0001:00074460       ?GetPrintErrorMsg@CPA@@UAGJHPAPAG@Z 00475460 f   PAATL.obj
 0001:000745e0       ?GetName@ASBasisGetFunctionName@?1??GetPrintErrorMsg@CPA@@UAGJHPAPAG@Z@QAEXXZ 004755e0 f   PAATL.obj
 0001:00074610       ?GetPrintSubModuleState@CPA@@UAGJPAW4_SubModuleState@@@Z 00475610 f   PAATL.obj
 0001:00074660       ?GetErrorMsg@CPA@@AAEXHPAPAG@Z 00475660 f   PAATL.obj
 0001:00074ad0       ?SetWorkState@CPA@@AAEHW4_WORKSTATE@@@Z 00475ad0 f   PAATL.obj
 0001:00074e70       ?HandleBackGroundJobAcq@CPA@@QAEHXZ 00475e70 f   PAATL.obj
 0001:000751f0       ?ResumeBackGroundJobAcq@CPA@@QAEHXZ 004761f0 f   PAATL.obj
 0001:000752e0       ?SetBurnDevice@CPA@@UAGJPAG@Z 004762e0 f   PAATL.obj
 0001:00075910       ?GetName@ASBasisGetFunctionName@?1??SetBurnDevice@CPA@@UAGJPAG@Z@QAEXXZ 00476910 f   PAATL.obj
 0001:00075940       ?GetDevices@CPA@@UAGJPAPAPAGPAJ@Z 00476940 f   PAATL.obj
 0001:00075ed0       ?GetName@ASBasisGetFunctionName@?1??GetDevices@CPA@@UAGJPAPAPAGPAJ@Z@QAEXXZ 00476ed0 f   PAATL.obj
 0001:00075f00       ?GetCurrentDeviceMediaInfo@CPA@@UAGJXZ 00476f00 f   PAATL.obj
 0001:00076480       ?GetName@ASBasisGetFunctionName@?1??GetCurrentDeviceMediaInfo@CPA@@UAGJXZ@QAEXXZ 00477480 f   PAATL.obj
 0001:000764b0       ?GetEstimatedSize@CPA@@UAGJHHPAK@Z 004774b0 f   PAATL.obj
 0001:00076a40       ?GetName@ASBasisGetFunctionName@?1??GetEstimatedSize@CPA@@UAGJHHPAK@Z@QAEXXZ 00477a40 f   PAATL.obj
 0001:00076a70       ?BurnPrepare@CPA@@UAGJJPAPAGW4_PatientAdminUIDType@@@Z 00477a70 f   PAATL.obj
 0001:000770e0       ?GetName@ASBasisGetFunctionName@?1??BurnPrepare@CPA@@UAGJJPAPAGW4_PatientAdminUIDType@@@Z@QAEXXZ 004780e0 f   PAATL.obj
 0001:00077110       ?CancelBurnPrepare@CPA@@UAGJXZ 00478110 f   PAATL.obj
 0001:00077690       ?GetName@ASBasisGetFunctionName@?1??CancelBurnPrepare@CPA@@UAGJXZ@QAEXXZ 00478690 f   PAATL.obj
 0001:000776c0       ?BurnByPA@CPA@@UAGJPAU_tagBurnJobSettingsByPA@@@Z 004786c0 f   PAATL.obj
 0001:00077c40       ?GetName@ASBasisGetFunctionName@?1??BurnByPA@CPA@@UAGJPAU_tagBurnJobSettingsByPA@@@Z@QAEXXZ 00478c40 f   PAATL.obj
 0001:00077c70       ?GetBurnJobInfo@CPA@@UAGJPAGPAU_tagJobInfo@@PAPAU_tagPSSIInfo@@PAJPAPAU_tagJobDetailStruct@@3@Z 00478c70 f   PAATL.obj
 0001:00078270       ?GetName@ASBasisGetFunctionName@?1??GetBurnJobInfo@CPA@@UAGJPAGPAU_tagJobInfo@@PAPAU_tagPSSIInfo@@PAJPAPAU_tagJobDetailStruct@@3@Z@QAEXXZ 00479270 f   PAATL.obj
 0001:000782a0       ?EnableCheckDevice@CPA@@UAGJH@Z 004792a0 f   PAATL.obj
 0001:000787b0       ?GetName@ASBasisGetFunctionName@?1??EnableCheckDevice@CPA@@UAGJH@Z@QAEXXZ 004797b0 f   PAATL.obj
 0001:000787e0       ?SetBurnMediaCheckRetry@CPA@@UAGJH@Z 004797e0 f   PAATL.obj
 0001:00078cf0       ?GetName@ASBasisGetFunctionName@?1??SetBurnMediaCheckRetry@CPA@@UAGJH@Z@QAEXXZ 00479cf0 f   PAATL.obj
 0001:00078d20       ?IsUnfinishedBurnJobExist@CPA@@UAGJPAH@Z 00479d20 f   PAATL.obj
 0001:000792b0       ?GetName@ASBasisGetFunctionName@?1??IsUnfinishedBurnJobExist@CPA@@UAGJPAH@Z@QAEXXZ 0047a2b0 f   PAATL.obj
 0001:000792e0       ?GetBurnErrorMsg@CPA@@UAGJHPAPAG@Z 0047a2e0 f   PAATL.obj
 0001:00079460       ?GetName@ASBasisGetFunctionName@?1??GetBurnErrorMsg@CPA@@UAGJHPAPAG@Z@QAEXXZ 0047a460 f   PAATL.obj
 0001:00079490       ?GetBurnSubModuleState@CPA@@UAGJPAW4_SubModuleState@@@Z 0047a490 f   PAATL.obj
 0001:00079610       ?GetName@ASBasisGetFunctionName@?1??GetBurnSubModuleState@CPA@@UAGJPAW4_SubModuleState@@@Z@QAEXXZ 0047a610 f   PAATL.obj
 0001:00079640       ?AutoTransfer@CPA@@UAGJPAGW4_PatientAdminUIDType@@@Z 0047a640 f   PAATL.obj
 0001:00079c20       ?GetName@ASBasisGetFunctionName@?1??AutoTransfer@CPA@@UAGJPAGW4_PatientAdminUIDType@@@Z@QAEXXZ 0047ac20 f   PAATL.obj
 0001:00079c50       ?ManualTransfer@CPA@@UAGJJPAPAGW4_PatientAdminUIDType@@PAU_tagTransferJobSettingsByUID@@@Z 0047ac50 f   PAATL.obj
 0001:0007a410       ?GetName@ASBasisGetFunctionName@?1??ManualTransfer@CPA@@UAGJJPAPAGW4_PatientAdminUIDType@@PAU_tagTransferJobSettingsByUID@@@Z@QAEXXZ 0047b410 f   PAATL.obj
 0001:0007a440       ?ManualTransferWithMultiServers@CPA@@UAGJJPAPAGW4_PatientAdminUIDType@@JPAU_tagTransferJobSettingsByUID@@@Z 0047b440 f   PAATL.obj
 0001:0007ac50       ?GetName@ASBasisGetFunctionName@?1??ManualTransferWithMultiServers@CPA@@UAGJJPAPAGW4_PatientAdminUIDType@@JPAU_tagTransferJobSettingsByUID@@@Z@QAEXXZ 0047bc50 f   PAATL.obj
 0001:0007ac80       ?GetSendJobInfo@CPA@@UAGJPAGPAU_tagJobInfo@@PAPAU_tagPSSIInfo@@PAJPAPAU_tagNetworkNode@@3PAPAU_tagJobDetailStruct@@3@Z 0047bc80 f   PAATL.obj
 0001:0007b280       ?GetName@ASBasisGetFunctionName@?1??GetSendJobInfo@CPA@@UAGJPAGPAU_tagJobInfo@@PAPAU_tagPSSIInfo@@PAJPAPAU_tagNetworkNode@@3PAPAU_tagJobDetailStruct@@3@Z@QAEXXZ 0047c280 f   PAATL.obj
 0001:0007b2b0       ?GetTransferSubModuleState@CPA@@UAGJPAW4_SubModuleState@@@Z 0047c2b0 f   PAATL.obj
 0001:0007b430       ?GetName@ASBasisGetFunctionName@?1??GetTransferSubModuleState@CPA@@UAGJPAW4_SubModuleState@@@Z@QAEXXZ 0047c430 f   PAATL.obj
 0001:0007b460       ?IsUnfinishedTrnasferJobExist@CPA@@UAGJPAH@Z 0047c460 f   PAATL.obj
 0001:0007bad0       ?GetName@ASBasisGetFunctionName@?1??IsUnfinishedTrnasferJobExist@CPA@@UAGJPAH@Z@QAEXXZ 0047cad0 f   PAATL.obj
 0001:0007bb00       ?GetAutoServers@CPA@@UAGJPAPAU_tagNetworkNode@@PAJ@Z 0047cb00 f   PAATL.obj
 0001:0007c090       ?GetName@ASBasisGetFunctionName@?1??GetAutoServers@CPA@@UAGJPAPAU_tagNetworkNode@@PAJ@Z@QAEXXZ 0047d090 f   PAATL.obj
 0001:0007c0c0       ?IsAutoSendValid@CPA@@UAGJPAH@Z 0047d0c0 f   PAATL.obj
 0001:0007c640       ?GetName@ASBasisGetFunctionName@?1??IsAutoSendValid@CPA@@UAGJPAH@Z@QAEXXZ 0047d640 f   PAATL.obj
 0001:0007c670       ?SetAutoServers@CPA@@UAGJPAU_tagNetworkNode@@J@Z 0047d670 f   PAATL.obj
 0001:0007cc00       ?GetName@ASBasisGetFunctionName@?1??SetAutoServers@CPA@@UAGJPAU_tagNetworkNode@@J@Z@QAEXXZ 0047dc00 f   PAATL.obj
 0001:0007cc30       ?GetManualServers@CPA@@UAGJPAPAU_tagNetworkNode@@PAJ@Z 0047dc30 f   PAATL.obj
 0001:0007d1c0       ?GetName@ASBasisGetFunctionName@?1??GetManualServers@CPA@@UAGJPAPAU_tagNetworkNode@@PAJ@Z@QAEXXZ 0047e1c0 f   PAATL.obj
 0001:0007d1f0       ?SetManualServers@CPA@@UAGJPAU_tagNetworkNode@@J@Z 0047e1f0 f   PAATL.obj
 0001:0007d780       ?GetName@ASBasisGetFunctionName@?1??SetManualServers@CPA@@UAGJPAU_tagNetworkNode@@J@Z@QAEXXZ 0047e780 f   PAATL.obj
 0001:0007d7b0       ?ConnectTest@CPA@@UAGJPAU_tagNetworkNode@@PAH@Z 0047e7b0 f   PAATL.obj
 0001:0007dd40       ?GetName@ASBasisGetFunctionName@?1??ConnectTest@CPA@@UAGJPAU_tagNetworkNode@@PAH@Z@QAEXXZ 0047ed40 f   PAATL.obj
 0001:0007dd70       ?GetDiscImportDevices@CPA@@UAGJPAPAPAGPAJ@Z 0047ed70 f   PAATL.obj
 0001:0007e2d0       ?GetName@ASBasisGetFunctionName@?1??GetDiscImportDevices@CPA@@UAGJPAPAPAGPAJ@Z@QAEXXZ 0047f2d0 f   PAATL.obj
 0001:0007e300       ?GetImportDiscInfoNotify@CPA@@UAGJPAG@Z 0047f300 f   PAATL.obj
 0001:0007e8b0       ?GetName@ASBasisGetFunctionName@?1??GetImportDiscInfoNotify@CPA@@UAGJPAG@Z@QAEXXZ 0047f8b0 f   PAATL.obj
 0001:0007e8e0       ?GetImportDiscInfo@CPA@@UAGJPAPAU_tagDiscImportPatientInfo@@PAJPAPAU_tagDiscImportStudyInfo@@1PAPAU_tagDiscImportSeriesInfo@@1PAPAU_tagDiscImporImageInfo@@1@Z 0047f8e0 f   PAATL.obj
 0001:0007ee60       ?GetName@ASBasisGetFunctionName@?1??GetImportDiscInfo@CPA@@UAGJPAPAU_tagDiscImportPatientInfo@@PAJPAPAU_tagDiscImportStudyInfo@@1PAPAU_tagDiscImportSeriesInfo@@1PAPAU_tagDiscImporImageInfo@@1@Z@QAEXXZ 0047fe60 f   PAATL.obj
 0001:0007ee90       ?CancelGetImportDiscInfo@CPA@@UAGJXZ 0047fe90 f   PAATL.obj
 0001:0007f3f0       ?GetName@ASBasisGetFunctionName@?1??CancelGetImportDiscInfo@CPA@@UAGJXZ@QAEXXZ 004803f0 f   PAATL.obj
 0001:0007f420       ?DiscImport@CPA@@UAGJJPAPAGW4_PatientAdminUIDType@@@Z 00480420 f   PAATL.obj
 0001:0007fab0       ?GetName@ASBasisGetFunctionName@?1??DiscImport@CPA@@UAGJJPAPAGW4_PatientAdminUIDType@@@Z@QAEXXZ 00480ab0 f   PAATL.obj
 0001:0007fae0       ?GetDiscImportJobInfo@CPA@@UAGJPAGPAPAU_tagDiscImport_SeriesStruct@@PAJ@Z 00480ae0 f   PAATL.obj
 0001:000800a0       ?GetName@ASBasisGetFunctionName@?1??GetDiscImportJobInfo@CPA@@UAGJPAGPAPAU_tagDiscImport_SeriesStruct@@PAJ@Z@QAEXXZ 004810a0 f   PAATL.obj
 0001:000800d0       ?IsUnfinishedDiscImportJobExist@CPA@@UAGJPAH@Z 004810d0 f   PAATL.obj
 0001:00080660       ?GetName@ASBasisGetFunctionName@?1??IsUnfinishedDiscImportJobExist@CPA@@UAGJPAH@Z@QAEXXZ 00481660 f   PAATL.obj
 0001:00080690       ?GetDiscImportSubModuleState@CPA@@UAGJPAW4_SubModuleState@@@Z 00481690 f   PAATL.obj
 0001:000806e0       ?GetWlMppsSubModuleState@CPA@@UAGJPAW4_SubModuleState@@@Z 004816e0 f   PAATL.obj
 0001:00080730       ?GetWorkList@CPA@@UAGJXZ   00481730 f   PAATL.obj
 0001:00080c90       ?GetName@ASBasisGetFunctionName@?1??GetWorkList@CPA@@UAGJXZ@QAEXXZ 00481c90 f   PAATL.obj
 0001:00080cc0       ?RefreshWorkList@CPA@@UAGJPAU_WorkListQueryCond@@@Z 00481cc0 f   PAATL.obj
 0001:00081220       ?GetName@ASBasisGetFunctionName@?1??RefreshWorkList@CPA@@UAGJPAU_WorkListQueryCond@@@Z@QAEXXZ 00482220 f   PAATL.obj
 0001:00081250       ?GetImportPatientStudyInfo@CPA@@UAGJPAGPAU_tagWLPatientStudyStruct@@@Z 00482250 f   PAATL.obj
 0001:00081810       ?GetName@ASBasisGetFunctionName@?1??GetImportPatientStudyInfo@CPA@@UAGJPAGPAU_tagWLPatientStudyStruct@@@Z@QAEXXZ 00482810 f   PAATL.obj
 0001:00081840       ?IsStudyImported@CPA@@UAGJPAGPAU_WLPatientStudyStatusInDB@@@Z 00482840 f   PAATL.obj
 0001:00081e00       ?GetName@ASBasisGetFunctionName@?1??IsStudyImported@CPA@@UAGJPAGPAU_WLPatientStudyStatusInDB@@@Z@QAEXXZ 00482e00 f   PAATL.obj
 0001:00081e30       ?StudyImported@CPA@@UAGJPAG@Z 00482e30 f   PAATL.obj
 0001:000823e0       ?GetName@ASBasisGetFunctionName@?1??StudyImported@CPA@@UAGJPAG@Z@QAEXXZ 004833e0 f   PAATL.obj
 0001:00082410       ?DeleteAllImportedStudyRecords@CPA@@UAGJXZ 00483410 f   PAATL.obj
 0001:000828f0       ?GetName@ASBasisGetFunctionName@?1??DeleteAllImportedStudyRecords@CPA@@UAGJXZ@QAEXXZ 004838f0 f   PAATL.obj
 0001:00082920       ?IsMPPSValid@CPA@@UAGJPAH@Z 00483920 f   PAATL.obj
 0001:00082e80       ?GetName@ASBasisGetFunctionName@?1??IsMPPSValid@CPA@@UAGJPAH@Z@QAEXXZ 00483e80 f   PAATL.obj
 0001:00082eb0       ?IsSetMPPSStatusEnabled@CPA@@UAGJPAGPAH@Z 00483eb0 f   PAATL.obj
 0001:00083480       ?GetName@ASBasisGetFunctionName@?1??IsSetMPPSStatusEnabled@CPA@@UAGJPAGPAH@Z@QAEXXZ 00484480 f   PAATL.obj
 0001:000834b0       ?GetStudyMPPSStatus@CPA@@UAGJPAGPAW4_WorkListStatus@@@Z 004844b0 f   PAATL.obj
 0001:00083a70       ?GetName@ASBasisGetFunctionName@?1??GetStudyMPPSStatus@CPA@@UAGJPAGPAW4_WorkListStatus@@@Z@QAEXXZ 00484a70 f   PAATL.obj
 0001:00083aa0       ?SetMPPSStatus@CPA@@UAGJPAGW4_WorkListStatus@@@Z 00484aa0 f   PAATL.obj
 0001:00084070       ?GetName@ASBasisGetFunctionName@?1??SetMPPSStatus@CPA@@UAGJPAGW4_WorkListStatus@@@Z@QAEXXZ 00485070 f   PAATL.obj
 0001:000840a0       ?IsWorkListWorking@CPA@@UAGJPAH@Z 004850a0 f   PAATL.obj
 0001:00084340       ?IsMppsWorking@CPA@@UAGJPAH@Z 00485340 f   PAATL.obj
 0001:000845e0       ?IsClosingStudyMPPS@CPA@@UAGJPAGPAH@Z 004855e0 f   PAATL.obj
 0001:000848d0       ?IsSettingPatientOrStudyMPPS@CPA@@UAGJJPAPAGW4_PatientAdminUIDType@@PAH@Z 004858d0 f   PAATL.obj
 0001:00084c50       ?GetWlServers@CPA@@UAGJPAPAU_tagNetworkNode@@PAJ@Z 00485c50 f   PAATL.obj
 0001:000851b0       ?GetName@ASBasisGetFunctionName@?1??GetWlServers@CPA@@UAGJPAPAU_tagNetworkNode@@PAJ@Z@QAEXXZ 004861b0 f   PAATL.obj
 0001:000851e0       ?SetWlServers@CPA@@UAGJPAU_tagNetworkNode@@J@Z 004861e0 f   PAATL.obj
 0001:00085740       ?GetName@ASBasisGetFunctionName@?1??SetWlServers@CPA@@UAGJPAU_tagNetworkNode@@J@Z@QAEXXZ 00486740 f   PAATL.obj
 0001:00085770       ?WlServerConnectTest@CPA@@UAGJPAU_tagNetworkNode@@PAH@Z 00486770 f   PAATL.obj
 0001:00085cd0       ?GetName@ASBasisGetFunctionName@?1??WlServerConnectTest@CPA@@UAGJPAU_tagNetworkNode@@PAH@Z@QAEXXZ 00486cd0 f   PAATL.obj
 0001:00085d00       ?GetMppsServers@CPA@@UAGJPAPAU_tagNetworkNode@@PAJ@Z 00486d00 f   PAATL.obj
 0001:00086260       ?GetName@ASBasisGetFunctionName@?1??GetMppsServers@CPA@@UAGJPAPAU_tagNetworkNode@@PAJ@Z@QAEXXZ 00487260 f   PAATL.obj
 0001:00086290       ?SetMppsServers@CPA@@UAGJPAU_tagNetworkNode@@J@Z 00487290 f   PAATL.obj
 0001:000867f0       ?GetName@ASBasisGetFunctionName@?1??SetMppsServers@CPA@@UAGJPAU_tagNetworkNode@@J@Z@QAEXXZ 004877f0 f   PAATL.obj
 0001:00086820       ?MppsServerConnectTest@CPA@@UAGJPAU_tagNetworkNode@@PAH@Z 00487820 f   PAATL.obj
 0001:00086d80       ?GetName@ASBasisGetFunctionName@?1??MppsServerConnectTest@CPA@@UAGJPAU_tagNetworkNode@@PAH@Z@QAEXXZ 00487d80 f   PAATL.obj
 0001:00086db0       ?SetEnableAutoTransferStatus@CPA@@UAGJH@Z 00487db0 f   PAATL.obj
 0001:00087330       ?GetName@ASBasisGetFunctionName@?1??SetEnableAutoTransferStatus@CPA@@UAGJH@Z@QAEXXZ 00488330 f   PAATL.obj
 0001:00087360       ?GetEnableAutoTransferStatus@CPA@@UAGJPAH@Z 00488360 f   PAATL.obj
 0001:000878e0       ?GetName@ASBasisGetFunctionName@?1??GetEnableAutoTransferStatus@CPA@@UAGJPAH@Z@QAEXXZ 004888e0 f   PAATL.obj
 0001:00087910       ?SetAskforAutoTransfer@CPA@@UAGJH@Z 00488910 f   PAATL.obj
 0001:00087e90       ?GetName@ASBasisGetFunctionName@?1??SetAskforAutoTransfer@CPA@@UAGJH@Z@QAEXXZ 00488e90 f   PAATL.obj
 0001:00087ec0       ?GetAskforAutoTransfer@CPA@@UAGJPAH@Z 00488ec0 f   PAATL.obj
 0001:00088440       ?GetName@ASBasisGetFunctionName@?1??GetAskforAutoTransfer@CPA@@UAGJPAH@Z@QAEXXZ 00489440 f   PAATL.obj
 0001:00088470       ??0?$vector@U_TagNetworkNodeStruct@@V?$allocator@U_TagNetworkNodeStruct@@@std@@@std@@QAE@ABV?$allocator@U_TagNetworkNodeStruct@@@1@@Z 00489470 f i PAATL.obj
 0001:000884e0       ??1?$vector@U_TagNetworkNodeStruct@@V?$allocator@U_TagNetworkNodeStruct@@@std@@@std@@QAE@XZ 004894e0 f i PAATL.obj
 0001:00088590       ?push_back@?$vector@VCString@@V?$allocator@VCString@@@std@@@std@@QAEXABVCString@@@Z 00489590 f i PAATL.obj
 0001:000885f0       ?Initialize@?$CProxyBase@UIStatisticsWorkflowLevel@@VCoSystemEventDB@@@@QAE_NXZ 004895f0 f i PAATL.obj
 0001:000888c0       ?GetName@ASBasisGetFunctionName@?1??Initialize@?$CProxyBase@UIStatisticsWorkflowLevel@@VCoSystemEventDB@@@@QAE_NXZ@QAEXXZ 004898c0 f   PAATL.obj
 0001:000888f0       ??0CComDynamicUnkArray@ATL@@QAE@XZ 004898f0 f i PAATL.obj
 0001:00088940       ?end@?$vector@VCString@@V?$allocator@VCString@@@std@@@std@@QAEPAVCString@@XZ 00489940 f i PAATL.obj
 0001:00088980       ?insert@?$vector@VCString@@V?$allocator@VCString@@@std@@@std@@QAEPAVCString@@PAV3@ABV3@@Z 00489980 f i PAATL.obj
 0001:00088a00       ?insert@?$vector@VCString@@V?$allocator@VCString@@@std@@@std@@QAEXPAVCString@@IABV3@@Z 00489a00 f i PAATL.obj
 0001:00088cd0       ?_Ufill@?$vector@VCString@@V?$allocator@VCString@@@std@@@std@@IAEXPAVCString@@IABV3@@Z 00489cd0 f i PAATL.obj
 0001:00088d50       ??1?$IConnectionPointImpl@VCPA@@$1?IID_IPABurnEvent@@3U_GUID@@BVCComDynamicUnkArray@ATL@@@ATL@@QAE@XZ 00489d50 f i PAATL.obj
 0001:00088e30       ??1CComDynamicUnkArray@ATL@@QAE@XZ 00489e30 f i PAATL.obj
 0001:00088ea0       ??1?$IConnectionPointImpl@VCPA@@$1?IID_IGeneralEvent@@3U_GUID@@BVCComDynamicUnkArray@ATL@@@ATL@@QAE@XZ 00489ea0 f i PAATL.obj
 0001:00088f80       ??1?$IConnectionPointImpl@VCPA@@$1?IID_IPAGeneralEvent@@3U_GUID@@BVCComDynamicUnkArray@ATL@@@ATL@@QAE@XZ 00489f80 f i PAATL.obj
 0001:00089060       ??1?$IConnectionPointImpl@VCPA@@$1?IID_IPAPrintEvent@@3U_GUID@@BVCComDynamicUnkArray@ATL@@@ATL@@QAE@XZ 0048a060 f i PAATL.obj
 0001:00089140       ??1?$IConnectionPointImpl@VCPA@@$1?IID_IPATransferEvent@@3U_GUID@@BVCComDynamicUnkArray@ATL@@@ATL@@QAE@XZ 0048a140 f i PAATL.obj
 0001:00089220       ??1?$IConnectionPointImpl@VCPA@@$1?IID_IPADiscImportEvent@@3U_GUID@@BVCComDynamicUnkArray@ATL@@@ATL@@QAE@XZ 0048a220 f i PAATL.obj
 0001:00089300       ??1?$IConnectionPointImpl@VCPA@@$1?IID_IPAWLMPPSEvent@@3U_GUID@@BVCComDynamicUnkArray@ATL@@@ATL@@QAE@XZ 0048a300 f i PAATL.obj
 0001:000893e0       ??1?$IConnectionPointImpl@VCPA@@$1?IID_IUserGuidanceEvent@@3U_GUID@@BVCComDynamicUnkArray@ATL@@@ATL@@QAE@XZ 0048a3e0 f i PAATL.obj
 0001:000894c0       ?fill@std@@YAXPAVCString@@0ABV2@@Z 0048a4c0 f i PAATL.obj
 0001:00089520       ?copy_backward@std@@YAPAVCString@@PAV2@00@Z 0048a520 f i PAATL.obj
 0001:0008a0a0       ??0CPADataBaseOpt@@AAE@XZ  0048b0a0 f   PADataBaseOpt.obj
 0001:0008a110       ??_GCPADataBaseOpt@@UAEPAXI@Z 0048b110 f i PADataBaseOpt.obj
 0001:0008a110       ??_ECPADataBaseOpt@@UAEPAXI@Z 0048b110 f i PADataBaseOpt.obj
 0001:0008a180       ??1CPADataBaseOpt@@UAE@XZ  0048b180 f   PADataBaseOpt.obj
 0001:0008a1e0       ?GetInstance@CPADataBaseOpt@@SAPAV1@XZ 0048b1e0 f   PADataBaseOpt.obj
 0001:0008a2a0       ?ReleaseInstance@CPADataBaseOpt@@QAEXXZ 0048b2a0 f   PADataBaseOpt.obj
 0001:0008a340       ?Init@CPADataBaseOpt@@QAEHXZ 0048b340 f   PADataBaseOpt.obj
 0001:0008a700       ?UnInit@CPADataBaseOpt@@QAEHXZ 0048b700 f   PADataBaseOpt.obj
 0001:0008a7b0       ?AddJob@CPADataBaseOpt@@QAEHPAVPAJob@@@Z 0048b7b0 f   PADataBaseOpt.obj
 0001:0008ae30       ?SetJob@CPADataBaseOpt@@QAEHPAVPAJob@@@Z 0048be30 f   PADataBaseOpt.obj
 0001:0008b5a0       ?GetJobCount@CPADataBaseOpt@@QAEHPAK@Z 0048c5a0 f   PADataBaseOpt.obj
 0001:0008b790       ?GetJobs@CPADataBaseOpt@@QAEHKPAKPAPAU_tagJobInfo@@@Z 0048c790 f   PADataBaseOpt.obj
 0001:0008c1f0       ?GetJobInfo@CPADataBaseOpt@@QAEHPBGPAU_tagJobInfo@@@Z 0048d1f0 f   PADataBaseOpt.obj
 0001:0008cc40       ?GetJobPSSIInfo@CPADataBaseOpt@@QAEHPBGPAJPAPAU_tagPSSIInfo@@@Z 0048dc40 f   PADataBaseOpt.obj
 0001:0008d310       ?GetJobNetworkNodeInfo@CPADataBaseOpt@@QAEHPBGPAJPAPAU_tagNetworkNode@@@Z 0048e310 f   PADataBaseOpt.obj
 0001:0008da40       ?GetJobDetailInfo@CPADataBaseOpt@@QAEHPBGPAJPAPAU_tagJobDetailStruct@@@Z 0048ea40 f   PADataBaseOpt.obj
 0001:0008e0d0       ?GetJobDiscImportImageInfo@CPADataBaseOpt@@QAEHPBGPAJPAPAU_tagDiscImport_SeriesStruct@@@Z 0048f0d0 f   PADataBaseOpt.obj
 0001:0008e9e0       ?DeleteJobs@CPADataBaseOpt@@QAEHAAV?$vector@VCString@@V?$allocator@VCString@@@std@@@std@@@Z 0048f9e0 f   PADataBaseOpt.obj
 0001:0008ec90       ?DeleteAllJobs@CPADataBaseOpt@@QAEHXZ 0048fc90 f   PADataBaseOpt.obj
 0001:0008ee90       ?AddWorklistImportedStudy@CPADataBaseOpt@@QAEHPBG@Z 0048fe90 f   PADataBaseOpt.obj
 0001:0008f2f0       ?IsStudyInstanceUIDExist@CPADataBaseOpt@@QAEHPBGPAH@Z 004902f0 f   PADataBaseOpt.obj
 0001:0008f720       ?DeleteAllImportedStudyRecords@CPADataBaseOpt@@QAEHXZ 00490720 f   PADataBaseOpt.obj
 0001:0008f920       ?CompactDabaBase@CPADataBaseOpt@@QAEHH@Z 00490920 f   PADataBaseOpt.obj
 0001:0008fce0       ?AddJobUIDInfo@CPADataBaseOpt@@AAEHPAVPAJob@@@Z 00490ce0 f   PADataBaseOpt.obj
 0001:000904d0       ?AddJobPssiInfo@CPADataBaseOpt@@AAEHPAVPAJob@@@Z 004914d0 f   PADataBaseOpt.obj
 0001:00090c30       ?AddJobNetworkNodeInfo@CPADataBaseOpt@@AAEHPAVPAJob@@@Z 00491c30 f   PADataBaseOpt.obj
 0001:00091390       ?AddJobDetailInfo@CPADataBaseOpt@@AAEHPAVPAJob@@@Z 00492390 f   PADataBaseOpt.obj
 0001:000918e0       ?AddJobDiscImportImageInfo@CPADataBaseOpt@@AAEHPAVPAJob@@@Z 004928e0 f   PADataBaseOpt.obj
 0001:00092380       ?CompactDB@CPADataBaseOpt@@AAEHPBG0H@Z 00493380 f   PADataBaseOpt.obj
 0001:00092d10       ?CompactDatabase@IJetEngine@@QAEJV_bstr_t@@0@Z 00493d10 f i PADataBaseOpt.obj
 0001:00092e00       ?clear@?$vector@V_variant_t@@V?$allocator@V_variant_t@@@std@@@std@@QAEXXZ 00493e00 f i PADataBaseOpt.obj
 0001:00092e60       ??0?$vector@PAV?$vector@V_variant_t@@V?$allocator@V_variant_t@@@std@@@std@@V?$allocator@PAV?$vector@V_variant_t@@V?$allocator@V_variant_t@@@std@@@std@@@2@@std@@QAE@ABV?$allocator@PAV?$vector@V_variant_t@@V?$allocator@V_variant_t@@@std@@@std@@@1@@Z 00493e60 f i PADataBaseOpt.obj
 0001:00092ed0       ??1?$vector@PAV?$vector@V_variant_t@@V?$allocator@V_variant_t@@@std@@@std@@V?$allocator@PAV?$vector@V_variant_t@@V?$allocator@V_variant_t@@@std@@@std@@@2@@std@@QAE@XZ 00493ed0 f i PADataBaseOpt.obj
 0001:00092f80       ??0?$_com_ptr_t@V?$_com_IIID@UIJetEngine@@$1?_GUID_9f63d980_ff25_11d1_bb6f_00c04fae22da@@3U__s_GUID@@A@@@@QAE@ABU_GUID@@PAUIUnknown@@K@Z 00493f80 f i PADataBaseOpt.obj
 0001:00093010       ??1?$_com_ptr_t@V?$_com_IIID@UIJetEngine@@$1?_GUID_9f63d980_ff25_11d1_bb6f_00c04fae22da@@3U__s_GUID@@A@@@@QAE@XZ 00494010 f i PADataBaseOpt.obj
 0001:00093060       ??C?$_com_ptr_t@V?$_com_IIID@UIJetEngine@@$1?_GUID_9f63d980_ff25_11d1_bb6f_00c04fae22da@@3U__s_GUID@@A@@@@QBEPAUIJetEngine@@XZ 00494060 f i PADataBaseOpt.obj
 0001:000930c0       ?erase@?$vector@V_variant_t@@V?$allocator@V_variant_t@@@std@@@std@@QAEPAV_variant_t@@PAV3@0@Z 004940c0 f i PADataBaseOpt.obj
 0001:00093150       ?CreateInstance@?$_com_ptr_t@V?$_com_IIID@UIJetEngine@@$1?_GUID_9f63d980_ff25_11d1_bb6f_00c04fae22da@@3U__s_GUID@@A@@@@QAEJABU_GUID@@PAUIUnknown@@K@Z 00494150 f i PADataBaseOpt.obj
 0001:00093290       ?_Release@?$_com_ptr_t@V?$_com_IIID@UIJetEngine@@$1?_GUID_9f63d980_ff25_11d1_bb6f_00c04fae22da@@3U__s_GUID@@A@@@@AAEXXZ 00494290 f i PADataBaseOpt.obj
 0001:00093300       ?GetIID@?$_com_ptr_t@V?$_com_IIID@UIJetEngine@@$1?_GUID_9f63d980_ff25_11d1_bb6f_00c04fae22da@@3U__s_GUID@@A@@@@SAABU_GUID@@XZ 00494300 f i PADataBaseOpt.obj
 0001:00093340       ?GetIID@?$_com_IIID@UIJetEngine@@$1?_GUID_9f63d980_ff25_11d1_bb6f_00c04fae22da@@3U__s_GUID@@A@@SAABU_GUID@@XZ 00494340 f i PADataBaseOpt.obj
 0001:00093370       ?copy@std@@YAPAV_variant_t@@PAV2@00@Z 00494370 f i PADataBaseOpt.obj
 0001:000933e0       ??0COleDateTime@@QAE@XZ    004943e0 f i PADataBaseOpt.obj
 0001:00093440       ??0COleDateTime@@QAE@N@Z   00494440 f i PADataBaseOpt.obj
 0001:000934a0       ??0_variant_t@@QAE@ABUtagVARIANT@@@Z 004944a0 f i PADataBaseOpt.obj
 0001:00093520       ??0PAJob@@QAE@XZ           00494520 f   PAJob.obj
 0001:00093740       ??1PAJob@@QAE@XZ           00494740 f   PAJob.obj
 0001:000938a0       ?SetState@PAJob@@QAEXW4_JobState@@@Z 004948a0 f   PAJob.obj
 0001:00093a80       ?SetPhase@PAJob@@QAEXPBG@Z 00494a80 f   PAJob.obj
 0001:00093ba0       ?SetProgress@PAJob@@QAEXW4_JobProgressUsing@@II@Z 00494ba0 f   PAJob.obj
 0001:00093d90       ?SetDetail@PAJob@@QAEXPBG0@Z 00494d90 f   PAJob.obj
 0001:00094030       ?SetDetailByUGID@PAJob@@QAEXJ@Z 00495030 f   PAJob.obj
 0001:000942a0       ?SetDetailOriginal@PAJob@@QAEXPBG@Z 004952a0 f   PAJob.obj
 0001:00094490       ?GetImageCount@PAJob@@QAEHXZ 00495490 f   PAJob.obj
 0001:000944e0       ?ReleaseData@PAJob@@AAEXXZ 004954e0 f   PAJob.obj
 0001:00094680       ??_G_TagTransferJobSettingsStruct@@QAEPAXI@Z 00495680 f i PAJob.obj
 0001:000946f0       ??_G_TagDiscImportJobSettingsStruct@@QAEPAXI@Z 004956f0 f i PAJob.obj
 0001:00094760       ??1_TagTransferJobSettingsStruct@@QAE@XZ 00495760 f i PAJob.obj
 0001:000947b0       ??1_TagDiscImportJobSettingsStruct@@QAE@XZ 004957b0 f i PAJob.obj
 0001:00094840       ??1?$vector@U_tagDiscImport_Image@@V?$allocator@U_tagDiscImport_Image@@@std@@@std@@QAE@XZ 00495840 f i PAJob.obj
 0001:000948f0       ??0?$vector@U_TagJobDetail@@V?$allocator@U_TagJobDetail@@@std@@@std@@QAE@ABV?$allocator@U_TagJobDetail@@@1@@Z 004958f0 f i PAJob.obj
 0001:00094960       ??1?$vector@U_TagJobDetail@@V?$allocator@U_TagJobDetail@@@std@@@std@@QAE@XZ 00495960 f i PAJob.obj
 0001:00094a10       ??0?$vector@UPatientInfoStruct@@V?$allocator@UPatientInfoStruct@@@std@@@std@@QAE@ABV?$allocator@UPatientInfoStruct@@@1@@Z 00495a10 f i PAJob.obj
 0001:00094a80       ??1?$vector@UPatientInfoStruct@@V?$allocator@UPatientInfoStruct@@@std@@@std@@QAE@XZ 00495a80 f i PAJob.obj
 0001:00094b30       ?clear@?$vector@UPatientInfoStruct@@V?$allocator@UPatientInfoStruct@@@std@@@std@@QAEXXZ 00495b30 f i PAJob.obj
 0001:00094b90       ??0?$vector@UStudyInfoStruct@@V?$allocator@UStudyInfoStruct@@@std@@@std@@QAE@ABV?$allocator@UStudyInfoStruct@@@1@@Z 00495b90 f i PAJob.obj
 0001:00094c00       ??1?$vector@UStudyInfoStruct@@V?$allocator@UStudyInfoStruct@@@std@@@std@@QAE@XZ 00495c00 f i PAJob.obj
 0001:00094cb0       ?clear@?$vector@UStudyInfoStruct@@V?$allocator@UStudyInfoStruct@@@std@@@std@@QAEXXZ 00495cb0 f i PAJob.obj
 0001:00094d10       ??0?$vector@USeriesInfoStruct@@V?$allocator@USeriesInfoStruct@@@std@@@std@@QAE@ABV?$allocator@USeriesInfoStruct@@@1@@Z 00495d10 f i PAJob.obj
 0001:00094d80       ??1?$vector@USeriesInfoStruct@@V?$allocator@USeriesInfoStruct@@@std@@@std@@QAE@XZ 00495d80 f i PAJob.obj
 0001:00094e30       ?clear@?$vector@USeriesInfoStruct@@V?$allocator@USeriesInfoStruct@@@std@@@std@@QAEXXZ 00495e30 f i PAJob.obj
 0001:00094e90       ??0?$vector@UImageInfoStruct@@V?$allocator@UImageInfoStruct@@@std@@@std@@QAE@ABV?$allocator@UImageInfoStruct@@@1@@Z 00495e90 f i PAJob.obj
 0001:00094f00       ??1?$vector@UImageInfoStruct@@V?$allocator@UImageInfoStruct@@@std@@@std@@QAE@XZ 00495f00 f i PAJob.obj
 0001:00094fb0       ?clear@?$vector@UImageInfoStruct@@V?$allocator@UImageInfoStruct@@@std@@@std@@QAEXXZ 00495fb0 f i PAJob.obj
 0001:00095010       ??0?$vector@UPostProcessingInfo@@V?$allocator@UPostProcessingInfo@@@std@@@std@@QAE@ABV?$allocator@UPostProcessingInfo@@@1@@Z 00496010 f i PAJob.obj
 0001:00095080       ??1?$vector@UPostProcessingInfo@@V?$allocator@UPostProcessingInfo@@@std@@@std@@QAE@XZ 00496080 f i PAJob.obj
 0001:00095130       ?erase@?$vector@UPatientInfoStruct@@V?$allocator@UPatientInfoStruct@@@std@@@std@@QAEPAUPatientInfoStruct@@PAU3@0@Z 00496130 f i PAJob.obj
 0001:000951c0       ?erase@?$vector@UStudyInfoStruct@@V?$allocator@UStudyInfoStruct@@@std@@@std@@QAEPAUStudyInfoStruct@@PAU3@0@Z 004961c0 f i PAJob.obj
 0001:00095250       ?erase@?$vector@USeriesInfoStruct@@V?$allocator@USeriesInfoStruct@@@std@@@std@@QAEPAUSeriesInfoStruct@@PAU3@0@Z 00496250 f i PAJob.obj
 0001:000952e0       ?erase@?$vector@UImageInfoStruct@@V?$allocator@UImageInfoStruct@@@std@@@std@@QAEPAUImageInfoStruct@@PAU3@0@Z 004962e0 f i PAJob.obj
 0001:00095370       ?copy@std@@YAPAUPatientInfoStruct@@PAU2@00@Z 00496370 f i PAJob.obj
 0001:000953d0       ?copy@std@@YAPAUStudyInfoStruct@@PAU2@00@Z 004963d0 f i PAJob.obj
 0001:00095430       ?copy@std@@YAPAUSeriesInfoStruct@@PAU2@00@Z 00496430 f i PAJob.obj
 0001:00095490       ?copy@std@@YAPAUImageInfoStruct@@PAU2@00@Z 00496490 f i PAJob.obj
 0001:00095500       ??0CPQSink@@QAE@XZ         00496500 f   PQSink.obj
 0001:00095590       ??_GCPQSink@@UAEPAXI@Z     00496590 f i PQSink.obj
 0001:00095590       ??_ECPQSink@@UAEPAXI@Z     00496590 f i PQSink.obj
 0001:00095600       ??0_IPrintQueueChangeEvents@@QAE@XZ 00496600 f i PQSink.obj
 0001:00095650       ??0IDispatch@@QAE@XZ       00496650 f i PQSink.obj
 0001:000956a0       ??1CPQSink@@UAE@XZ         004966a0 f   PQSink.obj
 0001:000956e0       ?AddRef@CPQSink@@UAGKXZ    004966e0 f   PQSink.obj
 0001:00095710       ?Release@CPQSink@@UAGKXZ   00496710 f   PQSink.obj
 0001:00095740       ?QueryInterface@CPQSink@@UAGJABU_GUID@@PAPAX@Z 00496740 f   PQSink.obj
 0001:000957e0       ?SetConnection@CPQSink@@QAEHABU_GUID@@0@Z 004967e0 f   PQSink.obj
 0001:00095930       ?ReleaseConnection@CPQSink@@QAEHXZ 00496930 f   PQSink.obj
 0001:000959e0       ?GetTypeInfoCount@CPQSink@@UAGJPAI@Z 004969e0 f   PQSink.obj
 0001:00095a10       ?GetTypeInfo@CPQSink@@UAGJIKPAPAUITypeInfo@@@Z 00496a10 f   PQSink.obj
 0001:00095a40       ?GetIDsOfNames@CPQSink@@UAGJABU_GUID@@PAPAGIKPAJ@Z 00496a40 f   PQSink.obj
 0001:00095a70       ?Invoke@CPQSink@@UAGJJABU_GUID@@KGPAUtagDISPPARAMS@@PAUtagVARIANT@@PAUtagEXCEPINFO@@PAI@Z 00496a70 f   PQSink.obj
 0001:00095b50       ?StateChangeNotify@CPQSink@@UAGJPAGW4__MIDL___MIDL_itf_PrintQueueManager_0000_0002@@@Z 00496b50 f   PQSink.obj
 0001:00095c10       ?ErrorOutput@CPQSink@@UAGJPAG0@Z 00496c10 f   PQSink.obj
 0001:00095d40       ?Attch@CPQSink@@QAEXPAVCFCPartner@@@Z 00496d40 f   PQSink.obj
 0001:00095d80       ?Detach@CPQSink@@QAEXXZ    00496d80 f   PQSink.obj
 0001:00095dc0       ??0CPrinting@@AAE@XZ       00496dc0 f   Printing.obj
 0001:00095f40       ??_ECPrinting@@UAEPAXI@Z   00496f40 f i Printing.obj
 0001:00095f40       ??_GCPrinting@@UAEPAXI@Z   00496f40 f i Printing.obj
 0001:00095fb0       ??1CPrinting@@UAE@XZ       00496fb0 f   Printing.obj
 0001:00096110       ?GetInstance@CPrinting@@SAPAV1@XZ 00497110 f   Printing.obj
 0001:000961e0       ?ReleaseInstance@CPrinting@@QAEXXZ 004971e0 f   Printing.obj
 0001:00096280       ?Init@CPrinting@@QAEHXZ    00497280 f   Printing.obj
 0001:000963c0       ?CreateJob@CPrinting@@QAEHPAU_tagPrintJobSettings@@@Z 004973c0 f   Printing.obj
 0001:00096790       ?LoadToFC@CPrinting@@QAEHPAV?$vector@VCString@@V?$allocator@VCString@@@std@@@std@@@Z 00497790 f   Printing.obj
 0001:000970b0       ?ShowFCProgressBar@CPrinting@@QAEHH@Z 004980b0 f   Printing.obj
 0001:000970f0       ?HandleMessage@CPrinting@@MAEJPAVNSubject@@IJI@Z 004980f0 f   Printing.obj
 0001:00097200       ?UnInit@CPrinting@@QAEHXZ  00498200 f   Printing.obj
 0001:00097460       ?GetName@ASBasisGetFunctionName@?1??UnInit@CPrinting@@QAEHXZ@QAEXXZ 00498460 f   Printing.obj
 0001:00097490       ?SetSubModuleState@CPrinting@@QAEXW4_SubModuleState@@@Z 00498490 f   Printing.obj
 0001:00097740       ?GetSubModuleState@CPrinting@@QAE?AW4_SubModuleState@@XZ 00498740 f   Printing.obj
 0001:00097780       ?CancelFCPrinting@CPrinting@@QAEHXZ 00498780 f   Printing.obj
 0001:00097850       ?GetNetworkNodes@CPrinting@@QAEHPAPAU_tagNetworkNode@@PAJ@Z 00498850 f   Printing.obj
 0001:00097890       ?HandlePrintBeforeAcq@CPrinting@@QAEHXZ 00498890 f   Printing.obj
 0001:00097950       ?HandlePrintAfterAcq@CPrinting@@QAEXXZ 00498950 f   Printing.obj
 0001:000979a0       ?NotifyUG@CPrinting@@AAEXJW4UserGuidanceType@@W4UserGuidancePriority@@H@Z 004989a0 f   Printing.obj
 0001:00097a50       ?SetPrintWorkingState@CPrinting@@AAEXW4_TagPrintWorkingState@@@Z 00498a50 f   Printing.obj
 0001:00097c30       ??0CSpaceEstimator@@QAE@XZ 00498c30 f   SpaceEstimator.obj
 0001:00097c70       ??_ECSpaceEstimator@@UAEPAXI@Z 00498c70 f i SpaceEstimator.obj
 0001:00097c70       ??_GCSpaceEstimator@@UAEPAXI@Z 00498c70 f i SpaceEstimator.obj
 0001:00097ce0       ??1CSpaceEstimator@@UAE@XZ 00498ce0 f   SpaceEstimator.obj
 0001:00097d20       ?GetConvertNeededSpaceInBytes@CSpaceEstimator@@SA_JKHH@Z 00498d20 f   SpaceEstimator.obj
 0001:00097da0       ?GetBurnContentSizeInBytes@CSpaceEstimator@@SA_JKHHAA_J@Z 00498da0 f   SpaceEstimator.obj
 0001:00097e90       ?GetBurnNeededSpaceInBytes@CSpaceEstimator@@SA_JKHHAA_J@Z 00498e90 f   SpaceEstimator.obj
 0001:00097f30       ?IsBurnJobApplicable@CSpaceEstimator@@SAHKHHAA_J@Z 00498f30 f   SpaceEstimator.obj
 0001:00097fe0       ?IsSendJobApplicable@CSpaceEstimator@@SAHKHH@Z 00498fe0 f   SpaceEstimator.obj
 0001:00098090       ?GetHardDiskFreeSpace@CSpaceEstimator@@SA_JPBG@Z 00499090 f   SpaceEstimator.obj
 0001:00098110       ??_Estringdispid@CComTypeInfoHolder@ATL@@QAEPAXI@Z 00499110 f i StdAfx.obj
 0001:000981d0       ??1stringdispid@CComTypeInfoHolder@ATL@@QAE@XZ 004991d0 f i StdAfx.obj
 0001:00098480       ??0CSystemEventProxy@@AAE@XZ 00499480 f   SystemEventProxy.obj
 0001:000986e0       ?GetName@ASBasisGetFunctionName@?1???0CSystemEventProxy@@AAE@XZ@QAEXXZ 004996e0 f   SystemEventProxy.obj
 0001:00098710       ??_ECSystemEventProxy@@UAEPAXI@Z 00499710 f i SystemEventProxy.obj
 0001:00098710       ??_GCSystemEventProxy@@UAEPAXI@Z 00499710 f i SystemEventProxy.obj
 0001:00098780       ??1CSystemEventProxy@@UAE@XZ 00499780 f   SystemEventProxy.obj
 0001:000989e0       ?GetName@ASBasisGetFunctionName@?1???1CSystemEventProxy@@UAE@XZ@QAEXXZ 004999e0 f   SystemEventProxy.obj
 0001:00098a10       ??0?$CProxyBase@UIStatisticsWorkflowLevel@@VCoSystemEventDB@@@@QAE@XZ 00499a10 f i SystemEventProxy.obj
 0001:00098a60       ??1?$CProxyBase@UIStatisticsWorkflowLevel@@VCoSystemEventDB@@@@UAE@XZ 00499a60 f i SystemEventProxy.obj
 0001:00098ab0       ??_G?$CProxyBase@UIStatisticsWorkflowLevel@@VCoSystemEventDB@@@@UAEPAXI@Z 00499ab0 f i SystemEventProxy.obj
 0001:00098ab0       ??_E?$CProxyBase@UIStatisticsWorkflowLevel@@VCoSystemEventDB@@@@UAEPAXI@Z 00499ab0 f i SystemEventProxy.obj
 0001:00098b20       ?Finalize@?$CProxyBase@UIStatisticsWorkflowLevel@@VCoSystemEventDB@@@@QAEXXZ 00499b20 f i SystemEventProxy.obj
 0001:00099260       ??0CTransfer@@AAE@XZ       0049a260 f   Transfer.obj
 0001:000993c0       ??_ECTransfer@@UAEPAXI@Z   0049a3c0 f i Transfer.obj
 0001:000993c0       ??_GCTransfer@@UAEPAXI@Z   0049a3c0 f i Transfer.obj
 0001:00099430       ??1CTransfer@@UAE@XZ       0049a430 f   Transfer.obj
 0001:000995a0       ?GetInstance@CTransfer@@SAPAV1@XZ 0049a5a0 f   Transfer.obj
 0001:00099670       ?ReleaseInstance@CTransfer@@QAEXXZ 0049a670 f   Transfer.obj
 0001:00099710       ?Init@CTransfer@@QAEHXZ    0049a710 f   Transfer.obj
 0001:00099a00       ?GetName@ASBasisGetFunctionName@?1??Init@CTransfer@@QAEHXZ@QAEXXZ 0049aa00 f   Transfer.obj
 0001:00099a30       ?CreateJobAutoSend@CTransfer@@QAEHPBGW4_PatientAdminUIDType@@@Z 0049aa30 f   Transfer.obj
 0001:0009a0b0       ??0_TagTransferJobSettingsStruct@@QAE@XZ 0049b0b0 f i Transfer.obj
 0001:0009a100       ?CreateJobManualSend@CTransfer@@QAEHPAV?$vector@VCString@@V?$allocator@VCString@@@std@@@std@@W4_PatientAdminUIDType@@AAV?$vector@U_TagNetworkNodeStruct@@V?$allocator@U_TagNetworkNodeStruct@@@std@@@3@@Z 0049b100 f   Transfer.obj
 0001:0009a7e0       ?UnInit@CTransfer@@QAEHXZ  0049b7e0 f   Transfer.obj
 0001:0009a8f0       ?GetSubModuleState@CTransfer@@QAE?AW4_SubModuleState@@XZ 0049b8f0 f   Transfer.obj
 0001:0009a930       ?AttachDcmPartner@CTransfer@@QAEXPAVCDcmPartner@@@Z 0049b930 f   Transfer.obj
 0001:0009a9a0       ?DetachDcmPartner@CTransfer@@QAEXPAVCDcmPartner@@@Z 0049b9a0 f   Transfer.obj
 0001:0009aa00       ?HandleJob@CTransfer@@QAEHPAVPAJob@@@Z 0049ba00 f   Transfer.obj
 0001:0009bdb0       ??ECSendPatientOK@@QAEAAU0@H@Z 0049cdb0 f i Transfer.obj
 0001:0009bed0       ?postug@CSendPatientOK@@QAEXXZ 0049ced0 f i Transfer.obj
 0001:0009bf00       ??ECSendPatientFailed@@QAEAAU0@H@Z 0049cf00 f i Transfer.obj
 0001:0009c020       ?postug@CSendPatientFailed@@QAEXXZ 0049d020 f i Transfer.obj
 0001:0009c050       ??ECSendImageOLOK@@QAEAAU0@H@Z 0049d050 f i Transfer.obj
 0001:0009c170       ?postug@CSendImageOLOK@@QAEXXZ 0049d170 f i Transfer.obj
 0001:0009c1a0       ??ECSendImageOLFailed@@QAEAAU0@H@Z 0049d1a0 f i Transfer.obj
 0001:0009c2c0       ?postug@CSendImageOLFailed@@QAEXXZ 0049d2c0 f i Transfer.obj
 0001:0009c2f0       ??ECSendImageProOK@@QAEAAU0@H@Z 0049d2f0 f i Transfer.obj
 0001:0009c410       ?postug@CSendImageProOK@@QAEXXZ 0049d410 f i Transfer.obj
 0001:0009c440       ??ECSendImageProFailed@@QAEAAU0@H@Z 0049d440 f i Transfer.obj
 0001:0009c560       ?postug@CSendImageProFailed@@QAEXXZ 0049d560 f i Transfer.obj
 0001:0009c590       ??ECSendImageRawOK@@QAEAAU0@H@Z 0049d590 f i Transfer.obj
 0001:0009c6b0       ?postug@CSendImageRawOK@@QAEXXZ 0049d6b0 f i Transfer.obj
 0001:0009c6e0       ??ECSendImageRawFailed@@QAEAAU0@H@Z 0049d6e0 f i Transfer.obj
 0001:0009c800       ?postug@CSendImageRawFailed@@QAEXXZ 0049d800 f i Transfer.obj
 0001:0009c830       ?GetName@ASBasisGetFunctionName@?1??HandleJob@CTransfer@@QAEHPAVPAJob@@@Z@QAEXXZ 0049d830 f   Transfer.obj
 0001:0009c860       ??1CVDcmNetworkInfoStruct@@QAE@XZ 0049d860 f i Transfer.obj
 0001:0009c910       ?PauseTransfer@CTransfer@@QAEXXZ 0049d910 f   Transfer.obj
 0001:0009c970       ?ResumeTransfer@CTransfer@@QAEXXZ 0049d970 f   Transfer.obj
 0001:0009c9d0       ?GetAutoServers@CTransfer@@QAEHPAPAU_tagNetworkNode@@PAJ@Z 0049d9d0 f   Transfer.obj
 0001:0009cc90       ?IsAutoSendValid@CTransfer@@QAEHPAH@Z 0049dc90 f   Transfer.obj
 0001:0009cdf0       ?SetAutoServers@CTransfer@@QAEHPAU_tagNetworkNode@@J@Z 0049ddf0 f   Transfer.obj
 0001:0009d090       ?GetManualServers@CTransfer@@QAEHPAPAU_tagNetworkNode@@PAJ@Z 0049e090 f   Transfer.obj
 0001:0009d330       ?SetManualServers@CTransfer@@QAEHPAU_tagNetworkNode@@J@Z 0049e330 f   Transfer.obj
 0001:0009d5d0       ?ConnectTest@CTransfer@@QAEHPAU_tagNetworkNode@@PAH@Z 0049e5d0 f   Transfer.obj
 0001:0009d800       ?NotifyUG@CTransfer@@QAEXJW4UserGuidanceType@@W4UserGuidancePriority@@H@Z 0049e800 f   Transfer.obj
 0001:0009d8b0       ?HandleMessage@CTransfer@@MAEJPAVNSubject@@IJI@Z 0049e8b0 f   Transfer.obj
 0001:0009d940       ?SetSubModuleState@CTransfer@@QAEXW4_SubModuleState@@@Z 0049e940 f   Transfer.obj
 0001:0009dbd0       ?SetCurrentJobProgress@CTransfer@@AAEXW4_JobProgressUsing@@II@Z 0049ebd0 f   Transfer.obj
 0001:0009dc40       ?SetCurrentJobDetailByUGID@CTransfer@@AAEXJ@Z 0049ec40 f   Transfer.obj
 0001:0009dca0       ?GetJobAutoSendServers@CTransfer@@AAEHPAU_TagTransferJobSettingsStruct@@@Z 0049eca0 f   Transfer.obj
 0001:0009de70       ?GetJobManualSendServers@CTransfer@@AAEHPAU_TagTransferJobSettingsStruct@@AAV?$vector@U_TagNetworkNodeStruct@@V?$allocator@U_TagNetworkNodeStruct@@@std@@@std@@@Z 0049ee70 f   Transfer.obj
 0001:0009e090       ?SetEnableAutoTransferStatus@CTransfer@@QAEHH@Z 0049f090 f   Transfer.obj
 0001:0009e0f0       ?GetEnableAutoTransferStatus@CTransfer@@QAEHPAH@Z 0049f0f0 f   Transfer.obj
 0001:0009e150       ?SetAskforAutoTransfer@CTransfer@@QAEHH@Z 0049f150 f   Transfer.obj
 0001:0009e1b0       ?GetAskforAutoTransfer@CTransfer@@QAEHPAH@Z 0049f1b0 f   Transfer.obj
 0001:0009e210       ?NotifyUIModifyDB@CTransfer@@AAEHPAVPAJob@@@Z 0049f210 f   Transfer.obj
 0001:0009e5d0       ??0CVDcmNetworkInfoStruct@@QAE@XZ 0049f5d0 f i Transfer.obj
 0001:0009e6e0       ??0CTransferXMLParser@@QAE@XZ 0049f6e0 f   TransferXMLParser.obj
 0001:0009e780       ??_GCTransferXMLParser@@UAEPAXI@Z 0049f780 f i TransferXMLParser.obj
 0001:0009e780       ??_ECTransferXMLParser@@UAEPAXI@Z 0049f780 f i TransferXMLParser.obj
 0001:0009e7f0       ??1CTransferXMLParser@@UAE@XZ 0049f7f0 f   TransferXMLParser.obj
 0001:0009e890       ?Init@CTransferXMLParser@@QAEHXZ 0049f890 f   TransferXMLParser.obj
 0001:0009ec10       ?UnInit@CTransferXMLParser@@QAEHXZ 0049fc10 f   TransferXMLParser.obj
 0001:0009ec50       ?GetAutoServers@CTransferXMLParser@@QAEHPAV?$vector@U_TagNetworkNodeStruct@@V?$allocator@U_TagNetworkNodeStruct@@@std@@@std@@@Z 0049fc50 f   TransferXMLParser.obj
 0001:0009edf0       ?GetDefaultAutoServers@CTransferXMLParser@@QAEHPAV?$vector@U_TagNetworkNodeStruct@@V?$allocator@U_TagNetworkNodeStruct@@@std@@@std@@@Z 0049fdf0 f   TransferXMLParser.obj
 0001:0009fc30       ?SetAutoServers@CTransferXMLParser@@QAEHPAV?$vector@U_TagNetworkNodeStruct@@V?$allocator@U_TagNetworkNodeStruct@@@std@@@std@@@Z 004a0c30 f   TransferXMLParser.obj
 0001:0009fea0       ?GetManualServers@CTransferXMLParser@@QAEHPAV?$vector@U_TagNetworkNodeStruct@@V?$allocator@U_TagNetworkNodeStruct@@@std@@@std@@@Z 004a0ea0 f   TransferXMLParser.obj
 0001:000a0040       ?GetManualServer@CTransferXMLParser@@QAEHPBGPAU_TagNetworkNodeStruct@@@Z 004a1040 f   TransferXMLParser.obj
 0001:000a0f50       ?SetManualServers@CTransferXMLParser@@QAEHPAV?$vector@U_TagNetworkNodeStruct@@V?$allocator@U_TagNetworkNodeStruct@@@std@@@std@@@Z 004a1f50 f   TransferXMLParser.obj
 0001:000a11c0       ?SetManualServerState@CTransferXMLParser@@QAEHPAU_TagNetworkNodeStruct@@@Z 004a21c0 f   TransferXMLParser.obj
 0001:000a1e20       ?GetServers@CTransferXMLParser@@AAEHHPAV?$vector@U_TagNetworkNodeStruct@@V?$allocator@U_TagNetworkNodeStruct@@@std@@@std@@@Z 004a2e20 f   TransferXMLParser.obj
 0001:000a2be0       ?SetServers@CTransferXMLParser@@AAEHHPAV?$vector@U_TagNetworkNodeStruct@@V?$allocator@U_TagNetworkNodeStruct@@@std@@@std@@@Z 004a3be0 f   TransferXMLParser.obj
 0001:000a3b70       ?SetDefaultServer@CTransferXMLParser@@AAEHHPBGH@Z 004a4b70 f   TransferXMLParser.obj
 0001:000a4560       ?AddServer@CTransferXMLParser@@AAEHHPAU_TagNetworkNodeStruct@@@Z 004a5560 f   TransferXMLParser.obj
 0001:000a5320       ?ModifyServer@CTransferXMLParser@@AAEHHPBGPAU_TagNetworkNodeStruct@@@Z 004a6320 f   TransferXMLParser.obj
 0001:000a6170       ?RemoveServer@CTransferXMLParser@@AAEHHPBG@Z 004a7170 f   TransferXMLParser.obj
 0001:000a78b0       ?RemoveAllServers@CTransferXMLParser@@AAEHH@Z 004a88b0 f   TransferXMLParser.obj
 0001:000a7ea0       ?IsFileExist@CTransferXMLParser@@AAEHPBG@Z 004a8ea0 f   TransferXMLParser.obj
 0001:000a8010       ?InitXmlFile@CTransferXMLParser@@AAEHPAVCGenXml@@@Z 004a9010 f   TransferXMLParser.obj
 0001:000a8190       ?SetEnableAutoTransferStatus@CTransferXMLParser@@QAEHH@Z 004a9190 f   TransferXMLParser.obj
 0001:000a8510       ?GetEnableAutoTransferStatus@CTransferXMLParser@@QAEHPAH@Z 004a9510 f   TransferXMLParser.obj
 0001:000a8810       ?SetAskforAutoTransfer@CTransferXMLParser@@QAEHH@Z 004a9810 f   TransferXMLParser.obj
 0001:000a8b90       ?GetAskforAutoTransfer@CTransferXMLParser@@QAEHPAH@Z 004a9b90 f   TransferXMLParser.obj
 0001:000a8e90       ?clear@?$vector@U_TagNetworkNodeStruct@@V?$allocator@U_TagNetworkNodeStruct@@@std@@@std@@QAEXXZ 004a9e90 f i TransferXMLParser.obj
 0001:000a8ef0       ?erase@?$vector@U_TagNetworkNodeStruct@@V?$allocator@U_TagNetworkNodeStruct@@@std@@@std@@QAEPAU_TagNetworkNodeStruct@@PAU3@0@Z 004a9ef0 f i TransferXMLParser.obj
 0001:000a8f80       ?copy@std@@YAPAU_TagNetworkNodeStruct@@PAU2@00@Z 004a9f80 f i TransferXMLParser.obj
 0001:000a8ff0       ??0CUserGuidanceOpt@@QAE@XZ 004a9ff0 f   UserGuidanceOpt.obj
 0001:000a9060       ??_ECUserGuidanceOpt@@UAEPAXI@Z 004aa060 f i UserGuidanceOpt.obj
 0001:000a9060       ??_GCUserGuidanceOpt@@UAEPAXI@Z 004aa060 f i UserGuidanceOpt.obj
 0001:000a90d0       ??1CUserGuidanceOpt@@UAE@XZ 004aa0d0 f   UserGuidanceOpt.obj
 0001:000a9130       ?GetInstance@CUserGuidanceOpt@@SAPAV1@XZ 004aa130 f   UserGuidanceOpt.obj
 0001:000a91f0       ?ReleaseInstance@CUserGuidanceOpt@@QAEXXZ 004aa1f0 f   UserGuidanceOpt.obj
 0001:000a9290       ?Init@CUserGuidanceOpt@@QAEHXZ 004aa290 f   UserGuidanceOpt.obj
 0001:000a97b0       ?GetName@ASBasisGetFunctionName@?1??Init@CUserGuidanceOpt@@QAEHXZ@QAEXXZ 004aa7b0 f   UserGuidanceOpt.obj
 0001:000a97e0       ?UnInit@CUserGuidanceOpt@@QAEHXZ 004aa7e0 f   UserGuidanceOpt.obj
 0001:000a9860       ?GetString@CUserGuidanceOpt@@QAEPBGI@Z 004aa860 f   UserGuidanceOpt.obj
 0001:000a9970       ?WorkListQueryThreadProc@@YGKPAX@Z 004aa970 f   WlMpps.obj
 0001:000a9a70       ?SetMppsStatusThreadProc@@YGKPAX@Z 004aaa70 f   WlMpps.obj
 0001:000a9c90       ??_G_tagMppsStatusStruct@@QAEPAXI@Z 004aac90 f i WlMpps.obj
 0001:000a9d00       ??1_tagMppsStatusStruct@@QAE@XZ 004aad00 f i WlMpps.obj
 0001:000a9d90       ??0CWlMpps@@AAE@XZ         004aad90 f   WlMpps.obj
 0001:000a9f30       ??_ECWlMpps@@UAEPAXI@Z     004aaf30 f i WlMpps.obj
 0001:000a9f30       ??_GCWlMpps@@UAEPAXI@Z     004aaf30 f i WlMpps.obj
 0001:000a9fa0       ??1CWlMpps@@UAE@XZ         004aafa0 f   WlMpps.obj
 0001:000aa0e0       ?GetInstance@CWlMpps@@SAPAV1@XZ 004ab0e0 f   WlMpps.obj
 0001:000aa1b0       ?ReleaseInstance@CWlMpps@@QAEXXZ 004ab1b0 f   WlMpps.obj
 0001:000aa250       ?Init@CWlMpps@@QAEHXZ      004ab250 f   WlMpps.obj
 0001:000aa370       ?UnInit@CWlMpps@@QAEHXZ    004ab370 f   WlMpps.obj
 0001:000aa480       ?GetWorkList@CWlMpps@@QAEHXZ 004ab480 f   WlMpps.obj
 0001:000aa520       ?RefreshWorkList@CWlMpps@@QAEHPAU_WorkListQueryCond@@@Z 004ab520 f   WlMpps.obj
 0001:000aa660       ?GetPatientStudyStruct@CWlMpps@@QAEHPBGPAU_tagWLPatientStudyStruct@@@Z 004ab660 f   WlMpps.obj
 0001:000aacd0       ?IsStudyImported@CWlMpps@@QAEHPBGPAU_WLPatientStudyStatusInDB@@@Z 004abcd0 f   WlMpps.obj
 0001:000ab480       ?StudyImported@CWlMpps@@QAEHPBG@Z 004ac480 f   WlMpps.obj
 0001:000ab5a0       ?QueryProc@CWlMpps@@QAEHXZ 004ac5a0 f   WlMpps.obj
 0001:000aba50       ?CancelQuery@CWlMpps@@QAEHXZ 004aca50 f   WlMpps.obj
 0001:000abb60       ?ReportWorkList@CWlMpps@@AAEHXZ 004acb60 f   WlMpps.obj
 0001:000ac420       ?ModifyQueryCondition@CWlMpps@@AAEHAAV?$vector@UWLQueryItem@@V?$allocator@UWLQueryItem@@@std@@@std@@@Z 004ad420 f   WlMpps.obj
 0001:000ac510       ?UpdateWorklistWorkState@CWlMpps@@QAEXH@Z 004ad510 f   WlMpps.obj
 0001:000ac570       ?GetSPSStartDate@CWlMpps@@AAEXW4_WLQuerySPSStartDate@@AAVCString@@@Z 004ad570 f   WlMpps.obj
 0001:000ac710       ?SetQueryCondition@CWlMpps@@AAEXPAU_WorkListQueryCond@@@Z 004ad710 f   WlMpps.obj
 0001:000ac770       ?InitQueryCondition@CWlMpps@@AAEXXZ 004ad770 f   WlMpps.obj
 0001:000ac7b0       ?GetDisplayDateFromDcmDate@CWlMpps@@AAE?AVCString@@PBG@Z 004ad7b0 f   WlMpps.obj
 0001:000ac990       ?GetDisplayTimeFromDcmTime@CWlMpps@@AAE?AVCString@@PBG@Z 004ad990 f   WlMpps.obj
 0001:000acd90       ?ParsePatientNameFromDcmPN@CWlMpps@@AAEXPBGAAVCString@@11@Z 004add90 f   WlMpps.obj
 0001:000ad0d0       ?GetDATEFromDcmDate@CWlMpps@@AAENPBG@Z 004ae0d0 f   WlMpps.obj
 0001:000ad3a0       ?GetDATEByCurrentDateTime@CWlMpps@@AAENXZ 004ae3a0 f   WlMpps.obj
 0001:000ad460       ?GetPatientBirthDateAge@CWlMpps@@AAEXPBG0AAH1AANAAW4_PatientBirthDateAgeUsing@@@Z 004ae460 f   WlMpps.obj
 0001:000ad7d0       ?IsMPPSValid@CWlMpps@@QAEHPAH@Z 004ae7d0 f   WlMpps.obj
 0001:000ad900       ?IsSetMPPSStatusEnabled@CWlMpps@@QAEHPBGPAH@Z 004ae900 f   WlMpps.obj
 0001:000add40       ?GetStudyMppsStatus@CWlMpps@@QAEHPBGPAW4_WorkListStatus@@@Z 004aed40 f   WlMpps.obj
 0001:000adf50       ?SetMppsStatus@CWlMpps@@QAEHPBGW4_WorkListStatus@@@Z 004aef50 f   WlMpps.obj
 0001:000ae6f0       ??0_tagMppsStatusStruct@@QAE@XZ 004af6f0 f i WlMpps.obj
 0001:000ae780       ?SetMppsStatusProc@CWlMpps@@QAEHPAU_tagMppsStatusStruct@@@Z 004af780 f   WlMpps.obj
 0001:000af4f0       ??0CTimeSpan@@QAE@JHHH@Z   004b04f0 f i WlMpps.obj
 0001:000af550       ??0CTimeSpan@@QAE@ABV0@@Z  004b0550 f i WlMpps.obj
 0001:000af590       ??_ECMppsOpt@@UAEPAXI@Z    004b0590 f i WlMpps.obj
 0001:000af590       ??_GCMppsOpt@@UAEPAXI@Z    004b0590 f i WlMpps.obj
 0001:000af610       ?CancelMppsNProc@CWlMpps@@AAEHXZ 004b0610 f   WlMpps.obj
 0001:000af9e0       ??0CTime@@QAE@XZ           004b09e0 f i WlMpps.obj
 0001:000afa10       ??4CTime@@QAEABV0@ABV0@@Z  004b0a10 f i WlMpps.obj
 0001:000afa50       ?GetYear@CTime@@QBEHXZ     004b0a50 f i WlMpps.obj
 0001:000afaa0       ?GetMonth@CTime@@QBEHXZ    004b0aa0 f i WlMpps.obj
 0001:000afaf0       ?GetDay@CTime@@QBEHXZ      004b0af0 f i WlMpps.obj
 0001:000afb40       ?UpdateNCreateItems@CWlMpps@@AAEHAAV?$vector@UWLQueryItem@@V?$allocator@UWLQueryItem@@@std@@@std@@PBG@Z 004b0b40 f   WlMpps.obj
 0001:000b05e0       ??GCTime@@QBE?AV0@VCTimeSpan@@@Z 004b15e0 f i WlMpps.obj
 0001:000b0640       ??0CTime@@QAE@J@Z          004b1640 f i WlMpps.obj
 0001:000b0680       ?UpdateNSetItems@CWlMpps@@AAEHAAV?$vector@UWLQueryItem@@V?$allocator@UWLQueryItem@@@std@@@std@@W4_WorkListStatus@@PBG@Z 004b1680 f   WlMpps.obj
 0001:000b0cc0       ?UpdateMppsWorkState@CWlMpps@@QAEXH@Z 004b1cc0 f   WlMpps.obj
 0001:000b0e40       ?GetDcmPatientNameFromDBPatientName@CWlMpps@@AAEHAAVCString@@PBG@Z 004b1e40 f   WlMpps.obj
 0001:000b1180       ?GetDcmDateTimeByCurrentDateTime@CWlMpps@@AAEXAAVCString@@0@Z 004b2180 f   WlMpps.obj
 0001:000b1260       ?GetDcmDateByDATE@CWlMpps@@AAEXAAVCString@@N@Z 004b2260 f   WlMpps.obj
 0001:000b1330       ?NotifySetMppsFinished@CWlMpps@@QAEXPBGW4_WorkListStatus@@H@Z 004b2330 f   WlMpps.obj
 0001:000b14f0       ?RemoveMppsStatusStruct@CWlMpps@@QAEHPBGW4_WorkListStatus@@@Z 004b24f0 f   WlMpps.obj
 0001:000b1770       ?IsPatientStudySeriesUIDInUse@CWlMpps@@QAEHW4_PatientAdminUIDType@@PAV?$vector@VCString@@V?$allocator@VCString@@@std@@@std@@@Z 004b2770 f   WlMpps.obj
 0001:000b1a40       ?IsWorkListWorking@CWlMpps@@QAEHXZ 004b2a40 f   WlMpps.obj
 0001:000b1a80       ?IsMppsWorking@CWlMpps@@QAEHXZ 004b2a80 f   WlMpps.obj
 0001:000b1ac0       ?IsClosingStudyMPPS@CWlMpps@@QAEHPBG@Z 004b2ac0 f   WlMpps.obj
 0001:000b1c50       ?IsSettingPatientOrStudyMPPS@CWlMpps@@QAEHAAV?$vector@VCString@@V?$allocator@VCString@@@std@@@std@@W4_PatientAdminUIDType@@PAH@Z 004b2c50 f   WlMpps.obj
 0001:000b1f80       ?NotifyUG@CWlMpps@@QAEXJW4UserGuidanceType@@W4UserGuidancePriority@@H@Z 004b2f80 f   WlMpps.obj
 0001:000b2030       ?GetWlServers@CWlMpps@@QAEHPAPAU_tagNetworkNode@@PAJ@Z 004b3030 f   WlMpps.obj
 0001:000b2270       ?SetWlServers@CWlMpps@@QAEHPAU_tagNetworkNode@@J@Z 004b3270 f   WlMpps.obj
 0001:000b2500       ?WlServerConnectTest@CWlMpps@@QAEHPAU_tagNetworkNode@@PAH@Z 004b3500 f   WlMpps.obj
 0001:000b2740       ?GetMppsServers@CWlMpps@@QAEHPAPAU_tagNetworkNode@@PAJ@Z 004b3740 f   WlMpps.obj
 0001:000b2980       ?SetMppsServers@CWlMpps@@QAEHPAU_tagNetworkNode@@J@Z 004b3980 f   WlMpps.obj
 0001:000b2c10       ?MppsServerConnectTest@CWlMpps@@QAEHPAU_tagNetworkNode@@PAH@Z 004b3c10 f   WlMpps.obj
 0001:000b2e90       ?UpdateWlMppsWorkState@CWlMpps@@AAEXXZ 004b3e90 f   WlMpps.obj
 0001:000b2f10       ?SetSubModuleState@CWlMpps@@QAEXW4_SubModuleState@@@Z 004b3f10 f   WlMpps.obj
 0001:000b31a0       ?GetSubModuleState@CWlMpps@@QAE?AW4_SubModuleState@@XZ 004b41a0 f   WlMpps.obj
 0001:000b31e0       ??0?$vector@UWLQueryStruct@@V?$allocator@UWLQueryStruct@@@std@@@std@@QAE@ABV?$allocator@UWLQueryStruct@@@1@@Z 004b41e0 f i WlMpps.obj
 0001:000b3250       ??1?$vector@UWLQueryStruct@@V?$allocator@UWLQueryStruct@@@std@@@std@@QAE@XZ 004b4250 f i WlMpps.obj
 0001:000b3300       ?size@?$vector@UWLQueryStruct@@V?$allocator@UWLQueryStruct@@@std@@@std@@QBEIXZ 004b4300 f i WlMpps.obj
 0001:000b3370       ??A?$vector@UWLQueryStruct@@V?$allocator@UWLQueryStruct@@@std@@@std@@QAEAAUWLQueryStruct@@I@Z 004b4370 f i WlMpps.obj
 0001:000b33c0       ?clear@?$vector@UWLQueryStruct@@V?$allocator@UWLQueryStruct@@@std@@@std@@QAEXXZ 004b43c0 f i WlMpps.obj
 0001:000b3420       ??0?$list@U_tagMppsStatusStruct@@V?$allocator@U_tagMppsStatusStruct@@@std@@@std@@QAE@ABV?$allocator@U_tagMppsStatusStruct@@@1@@Z 004b4420 f i WlMpps.obj
 0001:000b3490       ??1?$list@U_tagMppsStatusStruct@@V?$allocator@U_tagMppsStatusStruct@@@std@@@std@@QAE@XZ 004b4490 f i WlMpps.obj
 0001:000b3530       ?begin@?$list@U_tagMppsStatusStruct@@V?$allocator@U_tagMppsStatusStruct@@@std@@@std@@QAE?AViterator@12@XZ 004b4530 f i WlMpps.obj
 0001:000b3590       ?end@?$list@U_tagMppsStatusStruct@@V?$allocator@U_tagMppsStatusStruct@@@std@@@std@@QAE?AViterator@12@XZ 004b4590 f i WlMpps.obj
 0001:000b35f0       ?size@?$list@U_tagMppsStatusStruct@@V?$allocator@U_tagMppsStatusStruct@@@std@@@std@@QBEIXZ 004b45f0 f i WlMpps.obj
 0001:000b3630       ?push_back@?$list@U_tagMppsStatusStruct@@V?$allocator@U_tagMppsStatusStruct@@@std@@@std@@QAEXABU_tagMppsStatusStruct@@@Z 004b4630 f i WlMpps.obj
 0001:000b36a0       ?erase@?$list@U_tagMppsStatusStruct@@V?$allocator@U_tagMppsStatusStruct@@@std@@@std@@QAE?AViterator@12@V312@@Z 004b46a0 f i WlMpps.obj
 0001:000b37b0       ?clear@?$list@U_tagMppsStatusStruct@@V?$allocator@U_tagMppsStatusStruct@@@std@@@std@@QAEXXZ 004b47b0 f i WlMpps.obj
 0001:000b3820       ??0iterator@?$list@U_tagMppsStatusStruct@@V?$allocator@U_tagMppsStatusStruct@@@std@@@std@@QAE@XZ 004b4820 f i WlMpps.obj
 0001:000b3870       ??Citerator@?$list@U_tagMppsStatusStruct@@V?$allocator@U_tagMppsStatusStruct@@@std@@@std@@QBEPAU_tagMppsStatusStruct@@XZ 004b4870 f i WlMpps.obj
 0001:000b38c0       ??Eiterator@?$list@U_tagMppsStatusStruct@@V?$allocator@U_tagMppsStatusStruct@@@std@@@std@@QAEAAV012@XZ 004b48c0 f i WlMpps.obj
 0001:000b3920       ??Eiterator@?$list@U_tagMppsStatusStruct@@V?$allocator@U_tagMppsStatusStruct@@@std@@@std@@QAE?AV012@H@Z 004b4920 f i WlMpps.obj
 0001:000b3980       ??Fiterator@?$list@U_tagMppsStatusStruct@@V?$allocator@U_tagMppsStatusStruct@@@std@@@std@@QAEAAV012@XZ 004b4980 f i WlMpps.obj
 0001:000b39e0       ??8iterator@?$list@U_tagMppsStatusStruct@@V?$allocator@U_tagMppsStatusStruct@@@std@@@std@@QBE_NABV012@@Z 004b49e0 f i WlMpps.obj
 0001:000b3a30       ??9iterator@?$list@U_tagMppsStatusStruct@@V?$allocator@U_tagMppsStatusStruct@@@std@@@std@@QBE_NABV012@@Z 004b4a30 f i WlMpps.obj
 0001:000b3a90       ??0?$vector@UWLQueryItem@@V?$allocator@UWLQueryItem@@@std@@@std@@QAE@ABV?$allocator@UWLQueryItem@@@1@@Z 004b4a90 f i WlMpps.obj
 0001:000b3b00       ??1?$vector@UWLQueryItem@@V?$allocator@UWLQueryItem@@@std@@@std@@QAE@XZ 004b4b00 f i WlMpps.obj
 0001:000b3bb0       ??A?$vector@UWLQueryItem@@V?$allocator@UWLQueryItem@@@std@@@std@@QAEAAUWLQueryItem@@I@Z 004b4bb0 f i WlMpps.obj
 0001:000b3c00       ?begin@?$vector@UWLQueryStruct@@V?$allocator@UWLQueryStruct@@@std@@@std@@QAEPAUWLQueryStruct@@XZ 004b4c00 f i WlMpps.obj
 0001:000b3c40       ?end@?$vector@UWLQueryStruct@@V?$allocator@UWLQueryStruct@@@std@@@std@@QAEPAUWLQueryStruct@@XZ 004b4c40 f i WlMpps.obj
 0001:000b3c80       ?erase@?$vector@UWLQueryStruct@@V?$allocator@UWLQueryStruct@@@std@@@std@@QAEPAUWLQueryStruct@@PAU3@0@Z 004b4c80 f i WlMpps.obj
 0001:000b3d10       ?_Destroy@?$vector@UWLQueryStruct@@V?$allocator@UWLQueryStruct@@@std@@@std@@IAEXPAUWLQueryStruct@@0@Z 004b4d10 f i WlMpps.obj
 0001:000b3d80       ?deallocate@?$allocator@UWLQueryStruct@@@std@@QAEXPAXI@Z 004b4d80 f i WlMpps.obj
 0001:000b3dd0       ?insert@?$list@U_tagMppsStatusStruct@@V?$allocator@U_tagMppsStatusStruct@@@std@@@std@@QAE?AViterator@12@V312@ABU_tagMppsStatusStruct@@@Z 004b4dd0 f i WlMpps.obj
 0001:000b3ed0       ?erase@?$list@U_tagMppsStatusStruct@@V?$allocator@U_tagMppsStatusStruct@@@std@@@std@@QAE?AViterator@12@V312@0@Z 004b4ed0 f i WlMpps.obj
 0001:000b3f60       ?_Buynode@?$list@U_tagMppsStatusStruct@@V?$allocator@U_tagMppsStatusStruct@@@std@@@std@@IAEPAU_Node@12@PAU312@0@Z 004b4f60 f i WlMpps.obj
 0001:000b4010       ?_Freenode@?$list@U_tagMppsStatusStruct@@V?$allocator@U_tagMppsStatusStruct@@@std@@@std@@IAEXPAU_Node@12@@Z 004b5010 f i WlMpps.obj
 0001:000b4060       ?_Next@_Acc@?$list@U_tagMppsStatusStruct@@V?$allocator@U_tagMppsStatusStruct@@@std@@@std@@SAAAPAU_Node@23@PAU423@@Z 004b5060 f i WlMpps.obj
 0001:000b4090       ?_Prev@_Acc@?$list@U_tagMppsStatusStruct@@V?$allocator@U_tagMppsStatusStruct@@@std@@@std@@SAAAPAU_Node@23@PAU423@@Z 004b5090 f i WlMpps.obj
 0001:000b40c0       ?_Value@_Acc@?$list@U_tagMppsStatusStruct@@V?$allocator@U_tagMppsStatusStruct@@@std@@@std@@SAAAU_tagMppsStatusStruct@@PAU_Node@23@@Z 004b50c0 f i WlMpps.obj
 0001:000b40f0       ?destroy@?$allocator@U_tagMppsStatusStruct@@@std@@QAEXPAU_tagMppsStatusStruct@@@Z 004b50f0 f i WlMpps.obj
 0001:000b4140       ??0const_iterator@?$list@U_tagMppsStatusStruct@@V?$allocator@U_tagMppsStatusStruct@@@std@@@std@@QAE@XZ 004b5140 f i WlMpps.obj
 0001:000b4170       ?_Mynode@const_iterator@?$list@U_tagMppsStatusStruct@@V?$allocator@U_tagMppsStatusStruct@@@std@@@std@@QBEPAU_Node@23@XZ 004b5170 f i WlMpps.obj
 0001:000b41b0       ??0iterator@?$list@U_tagMppsStatusStruct@@V?$allocator@U_tagMppsStatusStruct@@@std@@@std@@QAE@PAU_Node@12@@Z 004b51b0 f i WlMpps.obj
 0001:000b4200       ??Diterator@?$list@U_tagMppsStatusStruct@@V?$allocator@U_tagMppsStatusStruct@@@std@@@std@@QBEAAU_tagMppsStatusStruct@@XZ 004b5200 f i WlMpps.obj
 0001:000b4250       ?destroy@?$allocator@UWLQueryStruct@@@std@@QAEXPAUWLQueryStruct@@@Z 004b5250 f i WlMpps.obj
 0001:000b42a0       ?_Charalloc@?$allocator@U_tagMppsStatusStruct@@@std@@QAEPADI@Z 004b52a0 f i WlMpps.obj
 0001:000b42f0       ?deallocate@?$allocator@U_tagMppsStatusStruct@@@std@@QAEXPAXI@Z 004b52f0 f i WlMpps.obj
 0001:000b4340       ?construct@?$allocator@U_tagMppsStatusStruct@@@std@@QAEXPAU_tagMppsStatusStruct@@ABU3@@Z 004b5340 f i WlMpps.obj
 0001:000b4390       ??0const_iterator@?$list@U_tagMppsStatusStruct@@V?$allocator@U_tagMppsStatusStruct@@@std@@@std@@QAE@PAU_Node@12@@Z 004b5390 f i WlMpps.obj
 0001:000b43d0       ?copy@std@@YAPAUWLQueryStruct@@PAU2@00@Z 004b53d0 f i WlMpps.obj
 0001:000b4440       ?_Destroy@std@@YAXPAU_tagMppsStatusStruct@@@Z 004b5440 f i WlMpps.obj
 0001:000b4480       ?_Destroy@std@@YAXPAUWLQueryStruct@@@Z 004b5480 f i WlMpps.obj
 0001:000b44c0       ?_Construct@std@@YAXPAU_tagMppsStatusStruct@@ABU2@@Z 004b54c0 f i WlMpps.obj
 0001:000b4570       ??4WLQueryStruct@@QAEAAU0@ABU0@@Z 004b5570 f i WlMpps.obj
 0001:000b47b0       ??_GWLQueryStruct@@QAEPAXI@Z 004b57b0 f i WlMpps.obj
 0001:000b4820       ??0_tagMppsStatusStruct@@QAE@ABU0@@Z 004b5820 f i WlMpps.obj
 0001:000b4900       ??1WLQueryStruct@@QAE@XZ   004b5900 f i WlMpps.obj
 0001:000b4b20       ??0CWorklistIniOpt@@AAE@XZ 004b5b20 f   WorklistIniOpt.obj
 0001:000b4b80       ??_GCWorklistIniOpt@@UAEPAXI@Z 004b5b80 f i WorklistIniOpt.obj
 0001:000b4b80       ??_ECWorklistIniOpt@@UAEPAXI@Z 004b5b80 f i WorklistIniOpt.obj
 0001:000b4bf0       ??1CWorklistIniOpt@@UAE@XZ 004b5bf0 f   WorklistIniOpt.obj
 0001:000b4c40       ?GetInstance@CWorklistIniOpt@@SAPAV1@XZ 004b5c40 f   WorklistIniOpt.obj
 0001:000b4d00       ?ReleaseInstance@CWorklistIniOpt@@QAEXXZ 004b5d00 f   WorklistIniOpt.obj
 0001:000b4da0       ?Init@CWorklistIniOpt@@QAEHXZ 004b5da0 f   WorklistIniOpt.obj
 0001:000b4fa0       ?UnInit@CWorklistIniOpt@@QAEXXZ 004b5fa0 f   WorklistIniOpt.obj
 0001:000b4ff0       ?GetDefaultWorklistServer@CWorklistIniOpt@@QAEHPAU_TagNetworkNodeStruct@@@Z 004b5ff0 f   WorklistIniOpt.obj
 0001:000b5320       ?GetQueryItemList@CWorklistIniOpt@@QAEHPAV?$vector@UWLQueryItem@@V?$allocator@UWLQueryItem@@@std@@@std@@@Z 004b6320 f   WorklistIniOpt.obj
 0001:000b5920       ?GetServers@CWorklistIniOpt@@QAEHPAV?$vector@U_TagNetworkNodeStruct@@V?$allocator@U_TagNetworkNodeStruct@@@std@@@std@@@Z 004b6920 f   WorklistIniOpt.obj
 0001:000b5db0       ?SetServers@CWorklistIniOpt@@QAEHPAV?$vector@U_TagNetworkNodeStruct@@V?$allocator@U_TagNetworkNodeStruct@@@std@@@std@@@Z 004b6db0 f   WorklistIniOpt.obj
 0001:000b62e2       ?GenWriteTrace@@YAHW4enumECVTraceLevel@@W4enumECVUnitID@@PBGPBDI@Z 004b72e2 f   ASBasis:ASBasis.dll
 0001:000b62e8       ?GenWriteTrace@@YAHW4enumECVTraceLevel@@W4enumECVUnitID@@PBD2I@Z 004b72e8 f   ASBasis:ASBasis.dll
 0001:000b62ee       ?Attach@NSubject@@UAEXPAVNObserver@@@Z 004b72ee f   ASBasis:ASBasis.dll
 0001:000b62f4       ?Detach@NSubject@@UAEXPAVNObserver@@@Z 004b72f4 f   ASBasis:ASBasis.dll
 0001:000b62fa       ?Notify@NSubject@@UAEXIJI@Z 004b72fa f   ASBasis:ASBasis.dll
 0001:000b6300       ??1NSubject@@QAE@XZ        004b7300 f   ASBasis:ASBasis.dll
 0001:000b6306       ??0NSubject@@QAE@XZ        004b7306 f   ASBasis:ASBasis.dll
 0001:000b630c       ??0NObserver@@QAE@XZ       004b730c f   ASBasis:ASBasis.dll
 0001:000b6312       ?T@CAppUI@@QAE?AVCString@@ABV2@@Z 004b7312 f   ASBasis:ASBasis.dll
 0001:000b6318       ?GetInstance@CAppUI@@SAPAV1@XZ 004b7318 f   ASBasis:ASBasis.dll
 0001:000b631e       ?SetLanguage@CAppUI@@QAEHABVCString@@H@Z 004b731e f   ASBasis:ASBasis.dll
 0001:000b6324       ?GenReadXml@CGenXml@@QAE?AW4enumECVXmlAxMode@@PBG0AAPBG@Z 004b7324 f   ASBasis:ASBasis.dll
 0001:000b632a       ??1CGenXml@@UAE@XZ         004b732a f   ASBasis:ASBasis.dll
 0001:000b6330       ??0CGenXml@@QAE@XZ         004b7330 f   ASBasis:ASBasis.dll
 0001:000b6336       ?GenXmlSave@CGenXml@@QAEHPBD@Z 004b7336 f   ASBasis:ASBasis.dll
 0001:000b633c       ?GenWriteXml@CGenXml@@QAE?AW4enumECVXmlAxMode@@PBG00@Z 004b733c f   ASBasis:ASBasis.dll
 0001:000b6342       ?GenDelXmlTag@CGenXml@@QAE?AW4enumECVXmlAxMode@@PBG@Z 004b7342 f   ASBasis:ASBasis.dll
 0001:000b6348       ?GenXmlIni@CGenXml@@QAEHQBGH0@Z 004b7348 f   ASBasis:ASBasis.dll
 0001:000b634e       ??1CBurnPartner@@UAE@XZ    004b734e f   DVDBurner:DVDBurner.dll
 0001:000b6354       ??0CBurnPartner@@QAE@XZ    004b7354 f   DVDBurner:DVDBurner.dll
 0001:000b635a       ?Init@CBurnPartner@@QAEHP6GXIJI@Z@Z 004b735a f   DVDBurner:DVDBurner.dll
 0001:000b6360       ?SetBurnMediaCheckRetry@CBurnPartner@@QAEXW4_tagBurnMediaCheckRetry@@@Z 004b7360 f   DVDBurner:DVDBurner.dll
 0001:000b6366       ?Burn@CBurnPartner@@QAEIXZ 004b7366 f   DVDBurner:DVDBurner.dll
 0001:000b636c       ?ClearFiles@CBurnPartner@@QAEXXZ 004b736c f   DVDBurner:DVDBurner.dll
 0001:000b6372       ?SetBurnSpeed@CBurnPartner@@QAEXJ@Z 004b7372 f   DVDBurner:DVDBurner.dll
 0001:000b6378       ?SetCloseMedia@CBurnPartner@@QAEXH@Z 004b7378 f   DVDBurner:DVDBurner.dll
 0001:000b637e       ?SetEjectAfterBurn@CBurnPartner@@QAEXH@Z 004b737e f   DVDBurner:DVDBurner.dll
 0001:000b6384       ?SetFileSystem@CBurnPartner@@QAEXW4_tagMediaFileSystem@@@Z 004b7384 f   DVDBurner:DVDBurner.dll
 0001:000b638a       ?SetVolumeLabelW@CBurnPartner@@QAEXPBG@Z 004b738a f   DVDBurner:DVDBurner.dll
 0001:000b6390       ?CancelBurn@CBurnPartner@@QAEHXZ 004b7390 f   DVDBurner:DVDBurner.dll
 0001:000b6396       ?IsBurning@CBurnPartner@@QAEHXZ 004b7396 f   DVDBurner:DVDBurner.dll
 0001:000b639c       ?GetDevices@CBurnPartner@@QAEHPAV?$vector@PAGV?$allocator@PAG@std@@@std@@@Z 004b739c f   DVDBurner:DVDBurner.dll
 0001:000b63a2       ?PostMessageW@CBurnPartner@@QAEHIJI@Z 004b73a2 f   DVDBurner:DVDBurner.dll
 0001:000b63a8       ?SetCurrentDevice@CBurnPartner@@QAEHPBG@Z 004b73a8 f   DVDBurner:DVDBurner.dll
 0001:000b63ae       ?UnInit@CBurnPartner@@QAEHXZ 004b73ae f   DVDBurner:DVDBurner.dll
 0001:000b63b4       ?AddFile@CBurnPartner@@QAEHPBG@Z 004b73b4 f   DVDBurner:DVDBurner.dll
 0001:000b63ba       ??1CDcmGen@@UAE@XZ         004b73ba f   DcmProc:DcmProc.dll
 0001:000b63c0       ??0CDcmGen@@QAE@XZ         004b73c0 f   DcmProc:DcmProc.dll
 0001:000b63c6       ?ReleaseNFFObj@CDcmGen@@QAEXXZ 004b73c6 f   DcmProc:DcmProc.dll
 0001:000b63cc       ??1CDcmDirGen@@UAE@XZ      004b73cc f   DcmProc:DcmProc.dll
 0001:000b63d2       ?CreateDicomDirFile@CDcmDirGen@@QAEHQBG@Z 004b73d2 f   DcmProc:DcmProc.dll
 0001:000b63d8       ??0CDcmDirGen@@QAE@XZ      004b73d8 f   DcmProc:DcmProc.dll
 0001:000b63de       ?GetPixelData@CDcmParser@@QAEHAAPAX@Z 004b73de f   DcmProc:DcmProc.dll
 0001:000b63e4       ??1CDcmParser@@UAE@XZ      004b73e4 f   DcmProc:DcmProc.dll
 0001:000b63ea       ?LoadDXDcmFile@CDcmParser@@QAEHPBG@Z 004b73ea f   DcmProc:DcmProc.dll
 0001:000b63f0       ??0CDcmParser@@QAE@XZ      004b73f0 f   DcmProc:DcmProc.dll
 0001:000b63f6       ?GetDirPatientsInfo@CDcmDirParser@@QAEHPAPAUDICOMDIRPatientsTotalInfo@@@Z 004b73f6 f   DcmProc:DcmProc.dll
 0001:000b63fc       ??1CDcmUIDGen@@UAE@XZ      004b73fc f   DcmProc:DcmProc.dll
 0001:000b6402       ?GetImplementationClassUID@CDcmUIDGen@@QAEPBGXZ 004b7402 f   DcmProc:DcmProc.dll
 0001:000b6408       ??0CDcmUIDGen@@QAE@XZ      004b7408 f   DcmProc:DcmProc.dll
 0001:000b640e       ?GetImplementationClassUID@CDcmDirParser@@QAEHPAPBG@Z 004b740e f   DcmProc:DcmProc.dll
 0001:000b6414       ?LoadDcmDir@CDcmDirParser@@QAEHPBG@Z 004b7414 f   DcmProc:DcmProc.dll
 0001:000b641a       ??0CDcmDirParser@@QAE@XZ   004b741a f   DcmProc:DcmProc.dll
 0001:000b6420       ??1CDcmDirParser@@UAE@XZ   004b7420 f   DcmProc:DcmProc.dll
 0001:000b6426       ?GetPostProcessInfo@CDcmParser@@QAEHPAUPostProcessingInfo@@@Z 004b7426 f   DcmProc:DcmProc.dll
 0001:000b642c       ?GetImageInfo@CDcmParser@@QAEHPAUImageInfoStruct@@@Z 004b742c f   DcmProc:DcmProc.dll
 0001:000b6432       ?GetSeriesInfo@CDcmParser@@QAEHPAUSeriesInfoStruct@@@Z 004b7432 f   DcmProc:DcmProc.dll
 0001:000b6438       ?GetStudyInfo@CDcmParser@@QAEHPAUStudyInfoStruct@@@Z 004b7438 f   DcmProc:DcmProc.dll
 0001:000b643e       ?GetPatientInfo@CDcmParser@@QAEHPAUPatientInfoStruct@@@Z 004b743e f   DcmProc:DcmProc.dll
 0001:000b6444       ??1CDcmModify@@UAE@XZ      004b7444 f   DcmProc:DcmProc.dll
 0001:000b644a       ?ModifyDcm@CDcmModify@@QAEHPBG0PAUPatientInfoStruct@@PAUStudyInfoStruct@@@Z 004b744a f   DcmProc:DcmProc.dll
 0001:000b6450       ??0CDcmModify@@QAE@XZ      004b7450 f   DcmProc:DcmProc.dll
 0001:000b6456       ??1CStoreSCUOpt@@UAE@XZ    004b7456 f   DcmProc:DcmProc.dll
 0001:000b645c       ??0CStoreSCUOpt@@QAE@XZ    004b745c f   DcmProc:DcmProc.dll
 0001:000b6462       ?SetDcmTrasferTimeout@CStoreSCUOpt@@QAEXQBG@Z 004b7462 f   DcmProc:DcmProc.dll
 0001:000b6468       ?GetTransferTimeOut@CDcmUIDGen@@QAEPBGXZ 004b7468 f   DcmProc:DcmProc.dll
 0001:000b646e       ?SetDcmTrasferImpVersionName@CStoreSCUOpt@@QAEXQBG@Z 004b746e f   DcmProc:DcmProc.dll
 0001:000b6474       ?GetImplementationVersionName@CDcmUIDGen@@QAEPBGXZ 004b7474 f   DcmProc:DcmProc.dll
 0001:000b647a       ?SetDcmTrasferImpClassUID@CStoreSCUOpt@@QAEXQBG@Z 004b747a f   DcmProc:DcmProc.dll
 0001:000b6480       ?StoreFile@CStoreSCUOpt@@QAEHQBG@Z 004b7480 f   DcmProc:DcmProc.dll
 0001:000b6486       ?Disconnect@CStoreSCUOpt@@QAEHXZ 004b7486 f   DcmProc:DcmProc.dll
 0001:000b648c       ?Connect@CStoreSCUOpt@@QAEHH@Z 004b748c f   DcmProc:DcmProc.dll
 0001:000b6492       ?SetDcmNetworkInfoStruct@CStoreSCUOpt@@QAEXPBUCVDcmNetworkInfoStruct@@@Z 004b7492 f   DcmProc:DcmProc.dll
 0001:000b6498       ??1CWorklistOpt@@UAE@XZ    004b7498 f   DcmProc:DcmProc.dll
 0001:000b649e       ??0CWorklistOpt@@QAE@XZ    004b749e f   DcmProc:DcmProc.dll
 0001:000b64a4       ?Query@CWorklistOpt@@QAEHPAV?$vector@UWLQueryItem@@V?$allocator@UWLQueryItem@@@std@@@std@@PAV?$vector@UWLQueryStruct@@V?$allocator@UWLQueryStruct@@@std@@@3@@Z 004b74a4 f   DcmProc:DcmProc.dll
 0001:000b64aa       ?SetServer@CWorklistOpt@@QAEXPBG000@Z 004b74aa f   DcmProc:DcmProc.dll
 0001:000b64b0       ?NSet@CMppsOpt@@QAEHPAV?$vector@UWLQueryItem@@V?$allocator@UWLQueryItem@@@std@@@std@@PBG@Z 004b74b0 f   DcmProc:DcmProc.dll
 0001:000b64b6       ?NCreate@CMppsOpt@@QAEHPAV?$vector@UWLQueryItem@@V?$allocator@UWLQueryItem@@@std@@@std@@PBG@Z 004b74b6 f   DcmProc:DcmProc.dll
 0001:000b64bc       ?SetServer@CMppsOpt@@QAEXPBG000@Z 004b74bc f   DcmProc:DcmProc.dll
 0001:000b64c2       ??0CMppsOpt@@QAE@XZ        004b74c2 f   DcmProc:DcmProc.dll
 0001:000b64c8       ?GenMppsSOPInstanceUID@CDcmUIDGen@@QAEPBGPBG@Z 004b74c8 f   DcmProc:DcmProc.dll
 0001:000b64ce       ??1CMppsOpt@@UAE@XZ        004b74ce f   DcmProc:DcmProc.dll
 0001:000b64d4       ?GenStudyInstanceUID@CDcmUIDGen@@QAEPBGPBG@Z 004b74d4 f   DcmProc:DcmProc.dll
 0001:000b64da       ?GenMPPSNSetSeriesInstanceUID@CDcmUIDGen@@QAEPBGPBG@Z 004b74da f   DcmProc:DcmProc.dll
 0001:000b64e0       ?ConnectTest@CWorklistOpt@@QAEHXZ 004b74e0 f   DcmProc:DcmProc.dll
 0001:000b64e6       ?ConnectTest@CMppsOpt@@QAEHXZ 004b74e6 f   DcmProc:DcmProc.dll
 0001:000b64ec       ??4CString@@QAEABV0@PBG@Z  004b74ec f   mfc42u:MFC42u.DLL
 0001:000b64f2       ??1CString@@QAE@XZ         004b74f2 f   mfc42u:MFC42u.DLL
 0001:000b64f8       ??4CString@@QAEABV0@ABV0@@Z 004b74f8 f   mfc42u:MFC42u.DLL
 0001:000b64fe       ??H@YG?AVCString@@ABV0@0@Z 004b74fe f   mfc42u:MFC42u.DLL
 0001:000b6504       ??H@YG?AVCString@@PBGABV0@@Z 004b7504 f   mfc42u:MFC42u.DLL
 0001:000b650a       ?Format@CString@@QAAXPBGZZ 004b750a f   mfc42u:MFC42u.DLL
 0001:000b6510       ??0CString@@QAE@XZ         004b7510 f   mfc42u:MFC42u.DLL
 0001:000b6516       ?Unlock@CSingleLock@@QAEHXZ 004b7516 f   mfc42u:MFC42u.DLL
 0001:000b651c       ?Mid@CString@@QBE?AV1@HH@Z 004b751c f   mfc42u:MFC42u.DLL
 0001:000b6522       ?TrimLeft@CString@@QAEXXZ  004b7522 f   mfc42u:MFC42u.DLL
 0001:000b6528       ?Lock@CSingleLock@@QAEHK@Z 004b7528 f   mfc42u:MFC42u.DLL
 0001:000b652e       ??0CSingleLock@@QAE@PAVCSyncObject@@H@Z 004b752e f   mfc42u:MFC42u.DLL
 0001:000b6534       ?Empty@CString@@QAEXXZ     004b7534 f   mfc42u:MFC42u.DLL
 0001:000b653a       ?Format@COleDateTime@@QBE?AVCString@@PBG@Z 004b753a f   mfc42u:MFC42u.DLL
 0001:000b6540       ??0CString@@QAE@PBG@Z      004b7540 f   mfc42u:MFC42u.DLL
 0001:000b6546       ??4COleCurrency@@QAEABV0@ABV0@@Z 004b7546 f   mfc42u:MFC42u.DLL
 0001:000b654c       ??4COleCurrency@@QAEABV0@TtagCY@@@Z 004b754c f   mfc42u:MFC42u.DLL
 0001:000b6552       ??H@YG?AVCString@@ABV0@G@Z 004b7552 f   mfc42u:MFC42u.DLL
 0001:000b6558       ??YCString@@QAEABV0@PBG@Z  004b7558 f   mfc42u:MFC42u.DLL
 0001:000b655e       ??0CString@@QAE@ABV0@@Z    004b755e f   mfc42u:MFC42u.DLL
 0001:000b6564       ??4CString@@QAEABV0@PBD@Z  004b7564 f   mfc42u:MFC42u.DLL
 0001:000b656a       ?AllocSysString@CString@@QBEPAGXZ 004b756a f   mfc42u:MFC42u.DLL
 0001:000b6570       ?GetRuntimeClass@CCriticalSection@@UBEPAUCRuntimeClass@@XZ 004b7570 f   mfc42u:MFC42u.DLL
 0001:000b6576       ??0CSyncObject@@QAE@PBG@Z  004b7576 f   mfc42u:MFC42u.DLL
 0001:000b657c       ??3@YAXPAX@Z               004b757c f   mfc42u:MFC42u.DLL
 0001:000b6582       ??1CSyncObject@@UAE@XZ     004b7582 f   mfc42u:MFC42u.DLL
 0001:000b6588       ??4COleDateTime@@QAEABV0@ABUtagVARIANT@@@Z 004b7588 f   mfc42u:MFC42u.DLL
 0001:000b658e       ??2@YAPAXI@Z               004b758e f   mfc42u:MFC42u.DLL
 0001:000b6594       ??0CString@@QAE@PBD@Z      004b7594 f   mfc42u:MFC42u.DLL
 0001:000b659a       ??H@YG?AVCString@@ABV0@PBG@Z 004b759a f   mfc42u:MFC42u.DLL
 0001:000b65a0       ?Left@CString@@QBE?AV1@H@Z 004b75a0 f   mfc42u:MFC42u.DLL
 0001:000b65a6       ?ReverseFind@CString@@QBEHG@Z 004b75a6 f   mfc42u:MFC42u.DLL
 0001:000b65ac       ??YCString@@QAEABV0@ABV0@@Z 004b75ac f   mfc42u:MFC42u.DLL
 0001:000b65b2       ?GetRuntimeClass@CObject@@UBEPAUCRuntimeClass@@XZ 004b75b2 f   mfc42u:MFC42u.DLL
 0001:000b65b8       ??1CFileFind@@UAE@XZ       004b75b8 f   mfc42u:MFC42u.DLL
 0001:000b65be       ?Close@CFileFind@@QAEXXZ   004b75be f   mfc42u:MFC42u.DLL
 0001:000b65c4       ?FindFile@CFileFind@@UAEHPBGK@Z 004b75c4 f   mfc42u:MFC42u.DLL
 0001:000b65ca       ??0CFileFind@@QAE@XZ       004b75ca f   mfc42u:MFC42u.DLL
 0001:000b65d0       ??0CString@@QAE@PBGH@Z     004b75d0 f   mfc42u:MFC42u.DLL
 0001:000b65d6       ?SetAt@CString@@QAEXHG@Z   004b75d6 f   mfc42u:MFC42u.DLL
 0001:000b65dc       ?AfxEnableControlContainer@@YAXPAVCOccManager@@@Z 004b75dc f   mfc42u:MFC42u.DLL
 0001:000b65e2       ?AfxWinInit@@YGHPAUHINSTANCE__@@0PAGH@Z 004b75e2 f   mfc42u:MFC42u.DLL
 0001:000b65e8       ?SetDateTime@COleDateTime@@QAEHHHHHHH@Z 004b75e8 f   mfc42u:MFC42u.DLL
 0001:000b65ee       ?Rename@CFile@@SGXPBG0@Z   004b75ee f   mfc42u:MFC42u.DLL
 0001:000b65f4       ?Right@CString@@QBE?AV1@H@Z 004b75f4 f   mfc42u:MFC42u.DLL
 0001:000b65fa       ?GetTickCount@CTime@@SG?AV1@XZ 004b75fa f   mfc42u:MFC42u.DLL
 0001:000b6600       ?Find@CString@@QBEHGH@Z    004b7600 f   mfc42u:MFC42u.DLL
 0001:000b6606       ?Find@CString@@QBEHG@Z     004b7606 f   mfc42u:MFC42u.DLL
 0001:000b660c       ?GetLocalTm@CTime@@QBEPAUtm@@PAU2@@Z 004b760c f   mfc42u:MFC42u.DLL
 0001:000b6612       ?Mid@CString@@QBE?AV1@H@Z  004b7612 f   mfc42u:MFC42u.DLL
 0001:000b6618       ?Find@CString@@QBEHPBG@Z   004b7618 f   mfc42u:MFC42u.DLL
 0001:000b661e       _wWinMainCRTStartup        004b761e f   msvcrt:wcrtexew.obj
 0001:000b67a4       ___CxxFrameHandler         004b77a4 f   msvcrt:MSVCRT.dll
 0001:000b67aa       __chkesp                   004b77aa f   msvcrt:MSVCRT.dll
 0001:000b67b0       ??0type_info@@AAE@ABV0@@Z  004b77b0 f   msvcrt:ti_inst.obj
 0001:000b67bb       ??_Gtype_info@@UAEPAXI@Z   004b77bb f i msvcrt:ti_inst.obj
 0001:000b67bb       ??_Etype_info@@UAEPAXI@Z   004b77bb f i msvcrt:ti_inst.obj
 0001:000b67d7       ??4type_info@@AAEAAV0@ABV0@@Z 004b77d7 f   msvcrt:ti_inst.obj
 0001:000b67dc       _wcscmp                    004b77dc f   msvcrt:MSVCRT.dll
 0001:000b67e2       _strlen                    004b77e2 f   msvcrt:MSVCRT.dll
 0001:000b67e8       _pow                       004b77e8 f   msvcrt:MSVCRT.dll
 0001:000b67ee       _wcscpy                    004b77ee f   msvcrt:MSVCRT.dll
 0001:000b67f4       _memset                    004b77f4 f   msvcrt:MSVCRT.dll
 0001:000b67fa       __wcsicmp                  004b77fa f   msvcrt:MSVCRT.dll
 0001:000b6800       _wcslen                    004b7800 f   msvcrt:MSVCRT.dll
 0001:000b6806       __gcvt                     004b7806 f   msvcrt:MSVCRT.dll
 0001:000b680c       _memcpy                    004b780c f   msvcrt:MSVCRT.dll
 0001:000b6812       __onexit                   004b7812 f   msvcrt:atonexit.obj
 0001:000b683e       _atexit                    004b783e f   msvcrt:atonexit.obj
 0001:000b6850       __alldiv                   004b7850 f   msvcrt:lldiv.obj
 0001:000b68fa       _floor                     004b78fa f   msvcrt:MSVCRT.dll
 0001:000b6900       __allmul                   004b7900 f   msvcrt:llmul.obj
 0001:000b6934       __ftol                     004b7934 f   msvcrt:MSVCRT.dll
 0001:000b693a       ?name@type_info@@QBEPBDXZ  004b793a f   msvcrt:MSVCRT.dll
 0001:000b6940       _memcmp                    004b7940 f   msvcrt:MSVCRT.dll
 0001:000b6946       _wcschr                    004b7946 f   msvcrt:MSVCRT.dll
 0001:000b694c       _ceil                      004b794c f   msvcrt:MSVCRT.dll
 0001:000b6952       _wcsrchr                   004b7952 f   msvcrt:MSVCRT.dll
 0001:000b6958       _wcstoul                   004b7958 f   msvcrt:MSVCRT.dll
 0001:000b6960       __chkstk                   004b7960 f   msvcrt:chkstk.obj
 0001:000b6960       __alloca_probe             004b7960 f   msvcrt:chkstk.obj
 0001:000b6990       __purecall                 004b7990 f   msvcrt:MSVCRT.dll
 0001:000b6996       _realloc                   004b7996 f   msvcrt:MSVCRT.dll
 0001:000b699c       _malloc                    004b799c f   msvcrt:MSVCRT.dll
 0001:000b69a2       _free                      004b79a2 f   msvcrt:MSVCRT.dll
 0001:000b69a8       ??_M@YGXPAXIHP6EX0@Z@Z     004b79a8 f   msvcrt:ehvecdtr.obj
 0001:000b6a28       ?__ArrayUnwind@@YGXPAXIHP6EX0@Z@Z 004b7a28 f   msvcrt:ehvecdtr.obj
 0001:000b6a9c       __wtoi                     004b7a9c f   msvcrt:MSVCRT.dll
 0001:000b6aa2       __wrename                  004b7aa2 f   msvcrt:MSVCRT.dll
 0001:000b6aa8       __exit                     004b7aa8 f   msvcrt:MSVCRT.dll
 0001:000b6aae       __XcptFilter               004b7aae f   msvcrt:MSVCRT.dll
 0001:000b6ab4       _exit                      004b7ab4 f   msvcrt:MSVCRT.dll
 0001:000b6aba       ___wgetmainargs            004b7aba f   msvcrt:MSVCRT.dll
 0001:000b6ac0       __initterm                 004b7ac0 f   msvcrt:MSVCRT.dll
 0001:000b6ac6       __setdefaultprecision      004b7ac6 f   msvcrt:fp8.obj
 0001:000b6ad8       ___setusermatherr          004b7ad8 f   msvcrt:MSVCRT.dll
 0001:000b6ade       __matherr                  004b7ade f   msvcrt:merr.obj
 0001:000b6ae1       __wsetargv                 004b7ae1 f   msvcrt:wdllargv.obj
 0001:000b6ae2       ___p__commode              004b7ae2 f   msvcrt:MSVCRT.dll
 0001:000b6ae8       ___p__fmode                004b7ae8 f   msvcrt:MSVCRT.dll
 0001:000b6aee       ___set_app_type            004b7aee f   msvcrt:MSVCRT.dll
 0001:000b6af4       __except_handler3          004b7af4 f   msvcrt:MSVCRT.dll
 0001:000b6afa       ??1type_info@@UAE@XZ       004b7afa f   msvcrt:MSVCRT.dll
 0001:000b6b00       ___dllonexit               004b7b00 f   msvcrt:MSVCRT.dll
 0001:000b6b06       ?terminate@@YAXXZ          004b7b06 f   msvcrt:MSVCRT.dll
 0001:000b6b0c       __controlfp                004b7b0c f   msvcrt:MSVCRT.dll
 0001:000b6b12       _InitializeCriticalSection@4 004b7b12 f   kernel32:KERNEL32.dll
 0001:000b6b18       _DeleteCriticalSection@4   004b7b18 f   kernel32:KERNEL32.dll
 0001:000b6b1e       _EnterCriticalSection@4    004b7b1e f   kernel32:KERNEL32.dll
 0001:000b6b24       _LeaveCriticalSection@4    004b7b24 f   kernel32:KERNEL32.dll
 0001:000b6b2a       _InterlockedIncrement@4    004b7b2a f   kernel32:KERNEL32.dll
 0001:000b6b30       _InterlockedDecrement@4    004b7b30 f   kernel32:KERNEL32.dll
 0001:000b6b36       _LocalAlloc@8              004b7b36 f   kernel32:KERNEL32.dll
 0001:000b6b3c       _lstrlenW@4                004b7b3c f   kernel32:KERNEL32.dll
 0001:000b6b42       _FormatMessageW@28         004b7b42 f   kernel32:KERNEL32.dll
 0001:000b6b48       _FindClose@4               004b7b48 f   kernel32:KERNEL32.dll
 0001:000b6b4e       _FindFirstFileW@8          004b7b4e f   kernel32:KERNEL32.dll
 0001:000b6b54       _GetModuleFileNameW@12     004b7b54 f   kernel32:KERNEL32.dll
 0001:000b6b5a       _GetLocalTime@4            004b7b5a f   kernel32:KERNEL32.dll
 0001:000b6b60       _WaitForSingleObject@8     004b7b60 f   kernel32:KERNEL32.dll
 0001:000b6b66       _CreateThread@24           004b7b66 f   kernel32:KERNEL32.dll
 0001:000b6b6c       _CloseHandle@4             004b7b6c f   kernel32:KERNEL32.dll
 0001:000b6b72       _GetTickCount@0            004b7b72 f   kernel32:KERNEL32.dll
 0001:000b6b78       _GetLastError@0            004b7b78 f   kernel32:KERNEL32.dll
 0001:000b6b7e       _FindNextFileW@8           004b7b7e f   kernel32:KERNEL32.dll
 0001:000b6b84       _SetFileAttributesW@8      004b7b84 f   kernel32:KERNEL32.dll
 0001:000b6b8a       _GetFileAttributesW@4      004b7b8a f   kernel32:KERNEL32.dll
 0001:000b6b90       _CopyFileW@12              004b7b90 f   kernel32:KERNEL32.dll
 0001:000b6b96       _CreateDirectoryW@8        004b7b96 f   kernel32:KERNEL32.dll
 0001:000b6b9c       _GetDriveTypeW@4           004b7b9c f   kernel32:KERNEL32.dll
 0001:000b6ba2       _RemoveDirectoryW@4        004b7ba2 f   kernel32:KERNEL32.dll
 0001:000b6ba8       _DeleteFileW@4             004b7ba8 f   kernel32:KERNEL32.dll
 0001:000b6bae       _GetPrivateProfileIntW@16  004b7bae f   kernel32:KERNEL32.dll
 0001:000b6bb4       _GetLogicalDriveStringsW@8 004b7bb4 f   kernel32:KERNEL32.dll
 0001:000b6bba       _TerminateThread@8         004b7bba f   kernel32:KERNEL32.dll
 0001:000b6bc0       _WaitForMultipleObjects@16 004b7bc0 f   kernel32:KERNEL32.dll
 0001:000b6bc6       _CreateEventW@16           004b7bc6 f   kernel32:KERNEL32.dll
 0001:000b6bcc       _SetEvent@4                004b7bcc f   kernel32:KERNEL32.dll
 0001:000b6bd2       _Sleep@4                   004b7bd2 f   kernel32:KERNEL32.dll
 0001:000b6bd8       _CreateProcessW@40         004b7bd8 f   kernel32:KERNEL32.dll
 0001:000b6bde       _Process32NextW@8          004b7bde f   kernel32:KERNEL32.dll
 0001:000b6be4       _TerminateProcess@8        004b7be4 f   kernel32:KERNEL32.dll
 0001:000b6bea       _OpenProcess@12            004b7bea f   kernel32:KERNEL32.dll
 0001:000b6bf0       _Process32FirstW@8         004b7bf0 f   kernel32:KERNEL32.dll
 0001:000b6bf6       _CreateToolhelp32Snapshot@8 004b7bf6 f   kernel32:KERNEL32.dll
 0001:000b6bfc       _WinExec@8                 004b7bfc f   kernel32:KERNEL32.dll
 0001:000b6c02       _WideCharToMultiByte@32    004b7c02 f   kernel32:KERNEL32.dll
 0001:000b6c08       _ResetEvent@4              004b7c08 f   kernel32:KERNEL32.dll
 0001:000b6c0e       _GetPrivateProfileStringW@24 004b7c0e f   kernel32:KERNEL32.dll
 0001:000b6c14       _WritePrivateProfileStringW@16 004b7c14 f   kernel32:KERNEL32.dll
 0001:000b6c1a       _lstrcmpiW@8               004b7c1a f   kernel32:KERNEL32.dll
 0001:000b6c20       _GetCurrentThreadId@0      004b7c20 f   kernel32:KERNEL32.dll
 0001:000b6c26       _GetCommandLineW@0         004b7c26 f   kernel32:KERNEL32.dll
 0001:000b6c2c       _HeapDestroy@4             004b7c2c f   kernel32:KERNEL32.dll
 0001:000b6c32       _GetShortPathNameW@12      004b7c32 f   kernel32:KERNEL32.dll
 0001:000b6c38       _GetModuleHandleW@4        004b7c38 f   kernel32:KERNEL32.dll
 0001:000b6c3e       _FreeLibrary@4             004b7c3e f   kernel32:KERNEL32.dll
 0001:000b6c44       _GetProcAddress@8          004b7c44 f   kernel32:KERNEL32.dll
 0001:000b6c4a       _LoadLibraryW@4            004b7c4a f   kernel32:KERNEL32.dll
 0001:000b6c50       _lstrcpyW@8                004b7c50 f   kernel32:KERNEL32.dll
 0001:000b6c56       _lstrcatW@8                004b7c56 f   kernel32:KERNEL32.dll
 0001:000b6c5c       _GetSystemTime@4           004b7c5c f   kernel32:KERNEL32.dll
 0001:000b6c62       _GetDiskFreeSpaceExW@16    004b7c62 f   kernel32:KERNEL32.dll
 0001:000b6c68       _GetStartupInfoW@4         004b7c68 f   kernel32:KERNEL32.dll
 0001:000b6c6e       _wsprintfW                 004b7c6e f   user32:USER32.dll
 0001:000b6c74       _SetWindowPos@28           004b7c74 f   user32:USER32.dll
 0001:000b6c7a       _GetWindowRect@8           004b7c7a f   user32:USER32.dll
 0001:000b6c80       _FindWindowW@8             004b7c80 f   user32:USER32.dll
 0001:000b6c86       _PostThreadMessageW@16     004b7c86 f   user32:USER32.dll
 0001:000b6c8c       _CharNextW@4               004b7c8c f   user32:USER32.dll
 0001:000b6c92       _DispatchMessageW@4        004b7c92 f   user32:USER32.dll
 0001:000b6c98       _GetMessageW@16            004b7c98 f   user32:USER32.dll
 0001:000b6c9e       _LoadStringW@16            004b7c9e f   user32:USER32.dll
 0001:000b6ca4       _OleRun@4                  004b7ca4 f   ole32:ole32.dll
 0001:000b6caa       _CoCreateInstance@20       004b7caa f   ole32:ole32.dll
 0001:000b6cb0       _CoTaskMemAlloc@4          004b7cb0 f   ole32:ole32.dll
 0001:000b6cb6       _CoTaskMemFree@4           004b7cb6 f   ole32:ole32.dll
 0001:000b6cbc       _CoInitializeEx@8          004b7cbc f   ole32:ole32.dll
 0001:000b6cc2       _CoSuspendClassObjects@0   004b7cc2 f   ole32:ole32.dll
 0001:000b6cc8       _CoUninitialize@0          004b7cc8 f   ole32:ole32.dll
 0001:000b6cce       _CoResumeClassObjects@0    004b7cce f   ole32:ole32.dll
 0001:000b6cd4       _CoRegisterClassObject@20  004b7cd4 f   ole32:ole32.dll
 0001:000b6cda       _CoRevokeClassObject@4     004b7cda f   ole32:ole32.dll
 0001:000b6ce0       _CoDisconnectObject@8      004b7ce0 f   ole32:ole32.dll
 0001:000b6ce6       _SafeArrayGetElement@12    004b7ce6 f   oleaut32:OLEAUT32.dll
 0001:000b6cec       _SafeArrayPutElement@12    004b7cec f   oleaut32:OLEAUT32.dll
 0001:000b6cf2       _SafeArrayCreate@12        004b7cf2 f   oleaut32:OLEAUT32.dll
 0001:000b6cf8       _SysAllocString@4          004b7cf8 f   oleaut32:OLEAUT32.dll
 0001:000b6cfe       _SysFreeString@4           004b7cfe f   oleaut32:OLEAUT32.dll
 0001:000b6d04       _VariantInit@4             004b7d04 f   oleaut32:OLEAUT32.dll
 0001:000b6d0a       _VariantCopy@8             004b7d0a f   oleaut32:OLEAUT32.dll
 0001:000b6d10       _VariantClear@4            004b7d10 f   oleaut32:OLEAUT32.dll
 0001:000b6d16       _SysAllocStringByteLen@8   004b7d16 f   oleaut32:OLEAUT32.dll
 0001:000b6d1c       _SysStringByteLen@4        004b7d1c f   oleaut32:OLEAUT32.dll
 0001:000b6d22       _LoadTypeLib@8             004b7d22 f   oleaut32:OLEAUT32.dll
 0001:000b6d28       _RegisterTypeLib@12        004b7d28 f   oleaut32:OLEAUT32.dll
 0001:000b6d2e       ?_com_issue_error@@YGXJ@Z  004b7d2e f   comsupp:comsupp.obj
 0001:000b6d3c       ?_com_issue_errorex@@YGXJPAUIUnknown@@ABU_GUID@@@Z 004b7d3c f   comsupp:comsupp.obj
 0001:000b6d9d       ?_com_dispatch_raw_method@@YAJPAUIDispatch@@JGGPAXPBGZZ 004b7d9d f   comsupp:comsupp.obj
 0001:000b72be       ?_com_dispatch_method@@YAJPAUIDispatch@@JGGPAXPBGZZ 004b82be f   comsupp:comsupp.obj
 0001:000b72f8       ?_com_dispatch_raw_propget@@YGJPAUIDispatch@@JGPAX@Z 004b82f8 f   comsupp:comsupp.obj
 0001:000b7317       ?_com_dispatch_propget@@YGJPAUIDispatch@@JGPAX@Z 004b8317 f   comsupp:comsupp.obj
 0001:000b7336       ?_com_dispatch_raw_propput@@YAJPAUIDispatch@@JGZZ 004b8336 f   comsupp:comsupp.obj
 0001:000b738f       ?_com_dispatch_propput@@YAJPAUIDispatch@@JGZZ 004b838f f   comsupp:comsupp.obj
 0001:000b7424       ?ConvertStringToBSTR@_com_util@@YGPAGPBD@Z 004b8424 f   comsupp:comutil.obj
 0001:000b7499       ?ConvertBSTRToString@_com_util@@YGPADPAG@Z 004b8499 f   comsupp:comutil.obj
 0001:000b750d       ??0_variant_t@@QAE@JG@Z    004b850d f i comsupp:comutil.obj
 0001:000b7569       ?_com_raise_error@@YGXJPAUIErrorInfo@@@Z 004b8569 f   comsupp:comraise.obj
 0001:000b758d       ??0_com_error@@QAE@JPAUIErrorInfo@@_N@Z 004b858d f i comsupp:comraise.obj
 0001:000b75bf       ??_E_com_error@@UAEPAXI@Z  004b85bf f i comsupp:comraise.obj
 0001:000b75bf       ??_G_com_error@@UAEPAXI@Z  004b85bf f i comsupp:comraise.obj
 0001:000b75db       ??0_com_error@@QAE@ABV0@@Z 004b85db f i comsupp:comraise.obj
 0001:000b7608       ??1_com_error@@UAE@XZ      004b8608 f i comsupp:comraise.obj
 0001:000b762e       ??0Init@ios_base@std@@QAE@XZ 004b862e f   msvcprt:MSVCP60.dll
 0001:000b7634       ??1Init@ios_base@std@@QAE@XZ 004b8634 f   msvcprt:MSVCP60.dll
 0001:000b763a       ??0_Winit@std@@QAE@XZ      004b863a f   msvcprt:MSVCP60.dll
 0001:000b7640       ??1_Winit@std@@QAE@XZ      004b8640 f   msvcprt:MSVCP60.dll
 0001:000b7650       __CxxThrowException@8      004b8650 f   msvcrt:MSVCRT.dll
 0001:000b7656       __itoa                     004b8656 f   msvcrt:MSVCRT.dll
 0001:000b765c       __ltoa                     004b865c f   msvcrt:MSVCRT.dll
 0001:000b7662       __ultoa                    004b8662 f   msvcrt:MSVCRT.dll
 0001:000b7668       _MultiByteToWideChar@24    004b8668 f   kernel32:KERNEL32.dll
 0001:000b766e       _lstrlenA@4                004b866e f   kernel32:KERNEL32.dll
 0001:000b7674       _LocalFree@4               004b8674 f   kernel32:KERNEL32.dll
 0001:000b767a       _GetErrorInfo@8            004b867a f   oleaut32:OLEAUT32.dll
 0001:000b7680       _SetErrorInfo@8            004b8680 f   oleaut32:OLEAUT32.dll
 0001:000b7686       _VariantChangeType@16      004b8686 f   oleaut32:OLEAUT32.dll
 0001:000b768c       _CreateErrorInfo@4         004b868c f   oleaut32:OLEAUT32.dll
 0001:000c4930       __enc$textbss$begin        004c5930     <linker-defined>
 0001:0012ec30       __enc$textbss$end          0052fc30     <linker-defined>
 0002:0000001c       ??_C@_11A@?$AA?$AA@        0053001c     ado.obj
 0002:00000020       ??_C@_0DB@KKNN@E?3?2DX0806?2N?5Series?2PrintingArchi@ 00530020     ado.obj
 0002:0000005c       ??_C@_1CK@BJJP@?$AAC?$AAo?$AAn?$AAn?$AAe?$AAc?$AAt?$AAi?$AAo?$AAn?$AA?5?$AAS?$AAt?$AAr?$AAi?$AAn?$AAg?$AA?5?$AA?$DN?$AA?5@ 0053005c     ado.obj
 0002:00000090       ??_C@_1KI@IFGN@?$AAC?$AAA?$AAD?$AAO?$AAD?$AAa?$AAt?$AAa?$AAB?$AAa?$AAs?$AAe?$AA?5?$AAE?$AAr?$AAr?$AAo?$AAr?$AA?6?$AA?7@ 00530090     ado.obj
 0002:0000015c       ??_C@_1CM@IANP@?$AAU?$AAn?$AAk?$AAn?$AAo?$AAw?$AAn?$AA?5?$AAp?$AAa?$AAr?$AAa?$AAm?$AAe?$AAt?$AAe?$AAr?$AA?4?$AA?5?$AA?$CF@ 0053015c     ado.obj
 0002:00000190       ??_C@_1BA@CGEA@?$AAs?$AAe?$AAl?$AAe?$AAc?$AAt?$AA?5?$AA?$AA@ 00530190     ado.obj
 0002:000001a4       ??_C@_07MOGN@Select?5?$AA@ 005301a4     ado.obj
 0002:000001b0       ??_C@_1CE@CFOL@?$AA?$CF?$AAY?$AA?9?$AA?$CF?$AAm?$AA?9?$AA?$CF?$AAd?$AA?5?$AA?$CF?$AAH?$AA?3?$AA?$CF?$AAM?$AA?3?$AA?$CF?$AAS?$AA?$AA@ 005301b0     ado.obj
 0002:000001dc       ??_C@_01FEHD@?$AN?$AA@     005301dc     ado.obj
 0002:000001e0       ??_C@_01POCP@?7?$AA@       005301e0     ado.obj
 0002:000001e4       ??_C@_00A@?$AA@            005301e4     ado.obj
 0002:000001ec       ??_7CCriticalSection@@6B@  005301ec     ado.obj
 0002:00000214       ??_C@_0BE@EDKF@Provider?$DNMSPersist?$DL?$AA@ 00530214     ado.obj
 0002:0000022c       ??_C@_1BC@NFAA@?$AAQ?$AAu?$AAe?$AAr?$AAy?$AA?5?$AA?$DN?$AA?5?$AA?$AA@ 0053022c     ado.obj
 0002:00000244       ??_C@_1KK@MMLG@?$AAC?$AAA?$AAD?$AAO?$AAR?$AAe?$AAc?$AAo?$AAr?$AAd?$AAs?$AAe?$AAt?$AA?5?$AAE?$AAr?$AAr?$AAo?$AAr?$AA?6@ 00530244     ado.obj
 0002:00000310       ??_C@_1KG@LEHM@?$AAC?$AAA?$AAD?$AAO?$AAC?$AAo?$AAm?$AAm?$AAa?$AAn?$AAd?$AA?5?$AAE?$AAr?$AAr?$AAo?$AAr?$AA?6?$AA?7?$AAC@ 00530310     ado.obj
 0002:000003d8       ??_C@_1KK@LEJF@?$AAC?$AAA?$AAD?$AAO?$AAP?$AAa?$AAr?$AAa?$AAm?$AAe?$AAt?$AAe?$AAr?$AA?5?$AAE?$AAr?$AAr?$AAo?$AAr?$AA?6@ 005303d8     ado.obj
 0002:000004a4       ??_C@_1CK@IFBA@?$AAU?$AAn?$AAk?$AAn?$AAo?$AAw?$AAn?$AA?5?$AAe?$AAr?$AAr?$AAo?$AAr?$AA?5?$AA0?$AAx?$AA?$CF?$AA0?$AAl?$AAX@ 005304a4     ado.obj
 0002:000004d8       ??_C@_1CI@EFIJ@?$AAI?$AAD?$AAi?$AAs?$AAp?$AAa?$AAt?$AAc?$AAh?$AA?5?$AAe?$AAr?$AAr?$AAo?$AAr?$AA?5?$AA?$CD?$AA?$CF?$AAd?$AA?$AA@ 005304d8     ado.obj
 0002:0000050c       ??_7CBSTROpt@@6B@          0053050c     BSTROpt.obj
 0002:00000518       ??_7CBuffer@@6B@           00530518     Buffer.obj
 0002:00000520       ??_C@_1CM@GBOM@?$AAC?$AAa?$AAt?$AAc?$AAh?$AA?5?$AAe?$AAx?$AAc?$AAe?$AAp?$AAt?$AAi?$AAo?$AAn?$AA?5?$AAe?$AAr?$AAr?$AAo@ 00530520     Burner.obj
 0002:00000554       ??_C@_0DE@IEM@E?3?2DX0806?2N?5Series?2PrintingArchi@ 00530554     Burner.obj
 0002:00000594       ??_C@_0CA@FAON@pBurner?9?$DOGetPreBurnJob?$CI?$CJ?5failed?$AA@ 00530594     Burner.obj
 0002:000005bc       ??_C@_0CB@LOND@pBurner?9?$DOGetPreBurnJob?$CI?$CJ?5succeed@ 005305bc     Burner.obj
 0002:000005e8       ??_7CBurner@@6BNSubject@@@ 005305e8     Burner.obj
 0002:000005fc       ??_7CBurner@@6BNObserver@@@ 005305fc     Burner.obj
 0002:00000608       ??_C@_0BO@KPIJ@m_BurnerControl?4Init?$CI?$CJ?5failed?$AA@ 00530608     Burner.obj
 0002:0000062c       ??_C@_0BP@OECM@m_BurnerControl?4Init?$CI?$CJ?5succeed?$AA@ 0053062c     Burner.obj
 0002:00000654       ??_C@_1BE@PLCB@?$AA?2?$AAA?$AAu?$AAt?$AAo?$AAV?$AAi?$AAe?$AAw?$AA?$AA@ 00530654     Burner.obj
 0002:0000066c       ??_C@_1O@NPOJ@?$AAU?$AAn?$AAk?$AAn?$AAo?$AAw?$AA?$AA@ 0053066c     Burner.obj
 0002:0000067c       ??_C@_1M@HFOH@?$AAE?$AAr?$AAr?$AAo?$AAr?$AA?$AA@ 0053067c     Burner.obj
 0002:0000068c       ??_C@_1BO@CLDJ@?$AAU?$AAn?$AAI?$AAn?$AAi?$AAt?$AAi?$AAa?$AAl?$AAi?$AAz?$AAi?$AAn?$AAg?$AA?$AA@ 0053068c     Burner.obj
 0002:000006b0       ??_C@_19NNPI@?$AAW?$AAo?$AAr?$AAk?$AA?$AA@ 005306b0     Burner.obj
 0002:000006bc       ??_C@_1M@DOOB@?$AAR?$AAe?$AAa?$AAd?$AAy?$AA?$AA@ 005306bc     Burner.obj
 0002:000006cc       ??_C@_1BC@NNIF@?$AAU?$AAn?$AAI?$AAn?$AAi?$AAt?$AAe?$AAd?$AA?$AA@ 005306cc     Burner.obj
 0002:000006e4       ??_C@_1CO@CJPO@?$AAB?$AAu?$AAr?$AAn?$AA?5?$AAS?$AAu?$AAb?$AAM?$AAo?$AAd?$AAu?$AAl?$AAe?$AA?5?$AAs?$AAt?$AAa?$AAt?$AAe@ 005306e4     Burner.obj
 0002:0000071c       ??_C@_0CK@JFNK@CJobHandler?3?3GetInstance?$CI?$CJ?9?$DOPush@ 0053071c     Burner.obj
 0002:00000750       ??_C@_1BK@FMPO@?$AAJ?$AAo?$AAb?$AA?5?$AAs?$AAu?$AAb?$AAm?$AAi?$AAt?$AAe?$AAd?$AA?$AA@ 00530750     Burner.obj
 0002:00000770       ??_C@_1DK@EFG@?$AA?$CF?$AA0?$AA4?$AAd?$AA?$CF?$AA0?$AA2?$AAd?$AA?$CF?$AA0?$AA2?$AAd?$AA?$CF?$AA0?$AA2?$AAd?$AA?$CF?$AA0?$AA2?$AAd@ 00530770     Burner.obj
 0002:000007b8       ??_C@_0CF@CMPA@0?5?$DN?$DN?5m_pPreBurnJob?9?$DOvtrImages?4si@ 005307b8     Burner.obj
 0002:000007e4       ??_C@_1GE@EGJO@?$AAU?$AAn?$AAk?$AAn?$AAo?$AAw?$AA?5?$AAM?$AAe?$AAs?$AAs?$AAa?$AAg?$AAe?$AA?3?$AA?5?$AAu?$AAM?$AAe?$AAs@ 005307e4     Burner.obj
 0002:0000085c       ??_C@_1BC@BKMI@?$AAN?$AAo?$AA?5?$AAm?$AAe?$AAd?$AAi?$AAa?$AA?$AA@ 0053085c     Burner.obj
 0002:00000874       ??_C@_17DABH@?$AA0?$AA?5?$AAM?$AA?$AA@ 00530874     Burner.obj
 0002:00000880       ??_C@_1CE@PPHN@?$AA?$CI?$AAN?$AAo?$AAt?$AA?5?$AAb?$AAl?$AAa?$AAn?$AAk?$AA?5?$AAm?$AAe?$AAd?$AAi?$AAa?$AA?$CJ?$AA?$AA@ 00530880     Burner.obj
 0002:000008ac       ??_C@_19EEBO@?$AA?$CF?$AAd?$AA?5?$AAM?$AA?$AA@ 005308ac     Burner.obj
 0002:000008b8       ??_C@_1BM@JAME@?$AA?$CI?$AAB?$AAl?$AAa?$AAn?$AAk?$AA?5?$AAm?$AAe?$AAd?$AAi?$AAa?$AA?$CJ?$AA?$AA@ 005308b8     Burner.obj
 0002:000008dc       ??_C@_1BM@BIOM@?$AA?$CF?$AAs?$AAx?$AA?5?$AA?$FL?$AA?$CF?$AAd?$AA?5?$AAK?$AAB?$AA?1?$AAs?$AA?$FN?$AA?$AA@ 005308dc     Burner.obj
 0002:00000900       ??_C@_19EONL@?$AA?$CF?$AA?4?$AA1?$AAf?$AA?$AA@ 00530900     Burner.obj
 0002:00000910       __real@8@4002a000000000000000 00530910     Burner.obj
 0002:00000920       __real@8@3ffe8000000000000000 00530920     Burner.obj
 0002:0000092c       __real@4@4002a000000000000000 0053092c     Burner.obj
 0002:00000930       ??_C@_1BE@GLPD@?$AAM?$AAi?$AAn?$AA?5?$AAS?$AAp?$AAe?$AAe?$AAd?$AA?$AA@ 00530930     Burner.obj
 0002:00000948       ??_C@_1BE@GPDJ@?$AAM?$AAa?$AAx?$AA?5?$AAS?$AAp?$AAe?$AAe?$AAd?$AA?$AA@ 00530948     Burner.obj
 0002:00000960       ??_C@_1FA@KHKD@?$AAM?$AAS?$AAG?$AA_?$AAO?$AAU?$AAT?$AA_?$AAB?$AAU?$AAR?$AAN?$AA_?$AAF?$AAI?$AAN?$AAI?$AAS?$AAH?$AAE@ 00530960     Burner.obj
 0002:000009c0       ??_C@_1BG@FGAE@?$AAJ?$AAo?$AAb?$AA?5?$AAf?$AAa?$AAi?$AAl?$AAe?$AAd?$AA?$AA@ 005309c0     Burner.obj
 0002:000009dc       ??_C@_1BM@FBNH@?$AAJ?$AAo?$AAb?$AA?5?$AAc?$AAa?$AAn?$AAc?$AAe?$AAl?$AAl?$AAe?$AAd?$AA?$AA@ 005309dc     Burner.obj
 0002:00000a00       ??_C@_1BM@JJJK@?$AAJ?$AAo?$AAb?$AA?5?$AAc?$AAo?$AAm?$AAp?$AAl?$AAe?$AAt?$AAe?$AAd?$AA?$AA@ 00530a00     Burner.obj
 0002:00000a24       ??_C@_1DK@OABF@?$AAM?$AAS?$AAG?$AA_?$AAO?$AAU?$AAT?$AA_?$AAB?$AAU?$AAR?$AAN?$AA_?$AAS?$AAT?$AAA?$AAT?$AAU?$AAS?$AA_@ 00530a24     Burner.obj
 0002:00000a6c       ??_C@_1BE@IDJA@?$AAE?$AAR?$AAR?$AAO?$AAR?$AA?3?$AA?5?$AA?$CF?$AAs?$AA?$AA@ 00530a6c     Burner.obj
 0002:00000a84       ??_C@_1BK@HGAB@?$AAW?$AAA?$AAR?$AAN?$AAN?$AAI?$AAN?$AAG?$AA?3?$AA?5?$AA?$CF?$AAs?$AA?$AA@ 00530a84     Burner.obj
 0002:00000aa4       ??_C@_1BC@KMGJ@?$AAI?$AAN?$AAF?$AAO?$AA?3?$AA?5?$AA?$CF?$AAs?$AA?$AA@ 00530aa4     Burner.obj
 0002:00000abc       ??_C@_1EE@FPCL@?$AAB?$AAu?$AAr?$AAn?$AA?5?$AAm?$AAa?$AAk?$AAe?$AA?5?$AAn?$AAo?$AAt?$AAi?$AAf?$AAy?$AA?5?$AAU?$AAI?$AA?5@ 00530abc     Burner.obj
 0002:00000b10       ??_C@_1FC@LDBG@?$AAB?$AAu?$AAr?$AAn?$AA?5?$AAG?$AAe?$AAt?$AAJ?$AAo?$AAb?$AAI?$AAm?$AAa?$AAg?$AAe?$AAI?$AAn?$AAf?$AAo@ 00530b10     Burner.obj
 0002:00000b74       ??_C@_0EE@PAFD@m_pDBController?9?$DOGetImagesInfo?$CI?$CJ@ 00530b74     Burner.obj
 0002:00000bc8       ??_C@_06OCG@Leave?5?$AA@   00530bc8     Burner.obj
 0002:00000bd0       ??_C@_0CC@JEA@m_BurnerControl?4Burn?$CI?$CJ?5completed@ 00530bd0     Burner.obj
 0002:00000bf8       ??_C@_0BH@FF@m_BurnerControl?4Burn?$CI?$CJ?$AA@ 00530bf8     Burner.obj
 0002:00000c14       ??_C@_0EO@PMCH@m_BurnerControl?4SetBurnSettings?$CI@ 00530c14     Burner.obj
 0002:00000c74       ??_C@_1O@JFJB@?$AAE?$AAx?$AAp?$AAo?$AAr?$AAt?$AA?$AA@ 00530c74     Burner.obj
 0002:00000c84       ??_C@_1DA@GIKH@?$AAP?$AAr?$AAe?$AAp?$AAr?$AAo?$AAc?$AAe?$AAs?$AAs?$AAi?$AAn?$AAg?$AA?5?$AAc?$AAo?$AAm?$AAp?$AAl?$AAe@ 00530c84     Burner.obj
 0002:00000cc0       ??_C@_0BL@LOIN@m_pCurrentJob?9?$DObCancelFlag?$AA@ 00530cc0     Burner.obj
 0002:00000ce0       ??_C@_1CK@GEMO@?$AAP?$AAr?$AAe?$AAp?$AAr?$AAo?$AAc?$AAe?$AAs?$AAs?$AAi?$AAn?$AAg?$AA?5?$AAf?$AAa?$AAi?$AAl?$AAe?$AAd@ 00530ce0     Burner.obj
 0002:00000d14       ??_C@_0BL@JBIF@m_pDcmPartner?4ConvertBFS?$CI?$CJ?$AA@ 00530d14     Burner.obj
 0002:00000d34       ??_C@_0CH@DMIM@CSpaceEstimator?3?3IsBurnJobApplic@ 00530d34     Burner.obj
 0002:00000d64       ??_C@_1HM@MHBG@?$AAT?$AAo?$AAo?$AA?5?$AAm?$AAa?$AAn?$AAy?$AA?5?$AAi?$AAm?$AAa?$AAg?$AAe?$AAs?$AA?5?$AAc?$AAo?$AAn?$AAt@ 00530d64     Burner.obj
 0002:00000df8       ??_C@_0BI@BECB@CDirHandler?3?3CheckDir?$CI?$CJ?$AA@ 00530df8     Burner.obj
 0002:00000e14       ??_C@_1BO@DIIL@?$AAE?$AAr?$AAr?$AAo?$AAr?$AA?5?$AAo?$AAc?$AAc?$AAu?$AAr?$AAr?$AAe?$AAd?$AA?$AA@ 00530e14     Burner.obj
 0002:00000e38       ??_C@_1CC@CBCK@?$AAF?$AA?3?$AA?2?$AAD?$AAc?$AAm?$AAC?$AAa?$AAc?$AAh?$AAe?$AA?2?$AAB?$AAu?$AAr?$AAn?$AA?$AA@ 00530e38     Burner.obj
 0002:00000e60       ??_C@_1CC@BMKH@?$AAP?$AAr?$AAe?$AAp?$AAr?$AAo?$AAc?$AAe?$AAs?$AAs?$AAi?$AAn?$AAg?$AA?4?$AA?4?$AA?4?$AA?$AA@ 00530e60     Burner.obj
 0002:00000e88       ??_C@_1BM@HNKC@?$AAP?$AAr?$AAe?$AAp?$AAr?$AAo?$AAc?$AAe?$AAs?$AAs?$AAi?$AAn?$AAg?$AA?$AA@ 00530e88     Burner.obj
 0002:00000eac       ??_C@_1BE@BHJG@?$AAJ?$AAo?$AAb?$AA?5?$AAs?$AAt?$AAa?$AAr?$AAt?$AA?$AA@ 00530eac     Burner.obj
 0002:00000ec4       ??_C@_06OOFE@Enter?5?$AA@  00530ec4     Burner.obj
 0002:00000ecc       ??_C@_1CC@BCOK@?$AAc?$AAa?$AAl?$AAl?$AA?5?$AAa?$AAd?$AAd?$AA?5?$AAf?$AAa?$AAi?$AAl?$AAe?$AAd?$AA?4?$AA?$AA@ 00530ecc     Burner.obj
 0002:00000ef4       ??_C@_1DG@OMJI@?$AAi?$AAn?$AAt?$AAe?$AAr?$AAf?$AAa?$AAc?$AAe?$AA?5?$AAn?$AAo?$AAt?$AA?5?$AAi?$AAn?$AAi?$AAt?$AAi?$AAa@ 00530ef4     Burner.obj
 0002:00000f34       ??_C@_1CM@LBPA@?$AAp?$AAr?$AAo?$AAx?$AAy?$AA?5?$AAp?$AAo?$AAi?$AAn?$AAt?$AAe?$AAr?$AA?5?$AAn?$AAo?$AAt?$AA?5?$AAs?$AAe@ 00530f34     Burner.obj
 0002:00000f68       ??_C@_0DD@LEEJ@e?3?2dx0806?2n?5series?2printingarchi@ 00530f68     Burner.obj
 0002:00000fa8       ??_C@_0CF@IDHE@FALSE?5?$DN?$DN?5m_BurnerControl?4IsBurni@ 00530fa8     Burner.obj
 0002:00000fd4       ??_C@_1EG@CCBK@?$AAC?$AAB?$AAu?$AAr?$AAn?$AAe?$AAr?$AA?3?$AA?3?$AAG?$AAe?$AAt?$AAE?$AAs?$AAt?$AAi?$AAm?$AAa?$AAt?$AAe@ 00530fd4     Burner.obj
 0002:00001028       ??_C@_0CO@HEHD@m_BurnerControl?4GetDevices?$CIpDevi@ 00531028     Burner.obj
 0002:00001060       ??_C@_0EC@INPN@m_BurnerControl?4PostMessage?$CIMSG_@ 00531060     Burner.obj
 0002:000010b0       ??_C@_0DC@NELP@m_BurnerControl?4SetDevice?$CI?$CILPCTS@ 005310b0     Burner.obj
 0002:000010ec       ??_C@_0CB@OPGO@m_BurnerControl?4UnInit?$CI?$CJ?5succeed@ 005310ec     Burner.obj
 0002:00001114       ??_C@_0CA@ONPE@m_BurnerControl?4UnInit?$CI?$CJ?5failed?$AA@ 00531114     Burner.obj
 0002:0000113c       ??_C@_1BK@BCHI@?$AA?2?$AAA?$AAu?$AAt?$AAo?$AAR?$AAu?$AAn?$AA?4?$AAi?$AAn?$AAf?$AA?$AA@ 0053113c     Burner.obj
 0002:0000115c       ??_C@_1BG@NBHP@?$AA?2?$AAM?$AAa?$AAx?$AAV?$AAi?$AAe?$AAw?$AAe?$AAr?$AA?$AA@ 0053115c     Burner.obj
 0002:00001178       ??_C@_13HMCP@?$AA?2?$AA?$AA@ 00531178     Burner.obj
 0002:0000117c       ??_C@_15PLEI@?$AA?4?$AA?4?$AA?$AA@ 0053117c     Burner.obj
 0002:00001184       ??_C@_13DOBH@?$AA?4?$AA?$AA@ 00531184     Burner.obj
 0002:00001188       ??_C@_15PMPD@?$AA?2?$AA?$CK?$AA?$AA@ 00531188     Burner.obj
 0002:00001190       ??_C@_1M@CILF@?$AA?2?$AAW?$AAo?$AAr?$AAk?$AA?$AA@ 00531190     Burner.obj
 0002:000011a0       ??_C@_1BE@GKP@?$AAM?$AAa?$AAx?$AAV?$AAi?$AAe?$AAw?$AAe?$AAr?$AA?$AA@ 005311a0     Burner.obj
 0002:000011bc       ??_7CDBController@@6B@     005311bc     DBController.obj
 0002:000011c4       ??_C@_0DB@OAHE@ERROR?3?5m_pIGeneral?9?$DOGetWorkState@ 005311c4     DBController.obj
 0002:00001200       ??_C@_0CA@MAED@ERROR?3?5m_DBSink?4SetConnection?$CI?$CJ?$AA@ 00531200     DBController.obj
 0002:00001228       ??_C@_0CE@LJND@ERROR?3?5CoCreateInstance?5m_pIGene@ 00531228     DBController.obj
 0002:00001254       ??_C@_0CG@OPJF@ERROR?3?5CoCreateInstance?5m_pIDBSe@ 00531254     DBController.obj
 0002:00001284       ??_C@_0CF@MEIO@ERROR?3?5CoCreateInstance?5m_pIDBCo@ 00531284     DBController.obj
 0002:000012b0       ??_C@_0CC@IGMG@ERROR?3?5CoCreateInstance?5m_pIDBPI@ 005312b0     DBController.obj
 0002:000012d8       ??_C@_0DK@JKOB@E?3?2DX0806?2N?5Series?2PrintingArchi@ 005312d8     DBController.obj
 0002:00001320       ??_C@_1GE@LHFP@?$AAE?$AAR?$AAR?$AAO?$AAR?$AA?3?$AA?5?$AAm?$AA_?$AAp?$AAI?$AAD?$AAB?$AAC?$AAo?$AAn?$AAf?$AAi?$AAg?$AA?9@ 00531320     DBController.obj
 0002:00001398       ??_C@_0CP@JBGL@enumSTARTUPRESULT_SUCCESS?5?$CB?$DN?5m_D@ 00531398     DBController.obj
 0002:000013d0       ??_C@_0BH@DPON@m_pIDBPIM?9?$DOGetImagenfo?$AA@ 005313d0     DBController.obj
 0002:000013ec       ??_C@_0BK@JDA@AddJobImageInfoByImageUID?$AA@ 005313ec     DBController.obj
 0002:0000140c       ??_C@_0BJ@LBHM@m_pIDBPIM?9?$DOGetSeriesInfo?$AA@ 0053140c     DBController.obj
 0002:0000142c       ??_C@_0BO@OGEI@AddJobImageInfoBySeriesUIDBFS?$AA@ 0053142c     DBController.obj
 0002:00001450       ??_C@_0BI@MHBD@m_pIDBPIM?9?$DOGetStudyInfo?$AA@ 00531450     DBController.obj
 0002:0000146c       ??_C@_0BN@LMMP@AddJobImageInfoByStudyUIDBFS?$AA@ 0053146c     DBController.obj
 0002:00001490       ??_C@_0BP@HKPN@AddJobImageInfoByPatientUIDBFS?$AA@ 00531490     DBController.obj
 0002:000014b8       ??_C@_0BK@MEOM@m_pIDBPIM?9?$DOGetImageInfo?$CI?$CJ?$AA@ 005314b8     DBController.obj
 0002:000014d8       ??_C@_0BL@NJEK@m_pIDBPIM?9?$DOGetSeriesInfo?$CI?$CJ?$AA@ 005314d8     DBController.obj
 0002:000014f8       ??_C@_0BK@DCPF@m_pIDBPIM?9?$DOGetStudyInfo?$CI?$CJ?$AA@ 005314f8     DBController.obj
 0002:00001518       ??_C@_0BK@IIBE@m_pIDBPIM?9?$DOGetPatientInfo?$AA@ 00531518     DBController.obj
 0002:00001538       ??_C@_0BC@INIC@PatientName?5is?5?3?5?$AA@ 00531538     DBController.obj
 0002:00001550       ??_C@_0BA@DIGP@PatientID?5is?5?3?5?$AA@ 00531550     DBController.obj
 0002:00001564       ??_C@_1DI@BFLA@?$AAG?$AAe?$AAt?$AAP?$AAa?$AAt?$AAi?$AAe?$AAn?$AAt?$AAI?$AAn?$AAf?$AAo?$AA?5?$AAr?$AAe?$AAs?$AAu?$AAl@ 00531564     DBController.obj
 0002:000015a8       ??_C@_0O@IKFM@PatientUID?5?3?5?$AA@ 005315a8     DBController.obj
 0002:000015b8       ??_C@_0M@IOIP@StudyUID?5?3?5?$AA@ 005315b8     DBController.obj
 0002:000015c8       ??_C@_0N@FIHA@SeriseUID?5?3?5?$AA@ 005315c8     DBController.obj
 0002:000015d8       ??_C@_1GG@CPDD@?$AAC?$AAD?$AAB?$AAC?$AAo?$AAn?$AAt?$AAr?$AAo?$AAl?$AAl?$AAe?$AAr?$AA?3?$AA?3?$AAG?$AAe?$AAt?$AAJ?$AAo@ 005315d8     DBController.obj
 0002:00001654       ??_C@_0CH@EBNC@enumWORKSTATE_WORKING?5?$CB?$DN?5m_DBWor@ 00531654     DBController.obj
 0002:00001684       ??_C@_0BF@FFE@0?5?$DN?$DN?5pvtrUID?9?$DOsize?$CI?$CJ?$AA@ 00531684     DBController.obj
 0002:000016a0       ??_C@_0CA@GEOA@NULL?5?$DN?$DN?5pvtrUID?5?$HM?$HM?5NULL?5?$DN?$DN?5pJob?$AA@ 005316a0     DBController.obj
 0002:000016c8       ??_C@_0BK@OPIG@AddJobImageInfoByStudyUID?$AA@ 005316c8     DBController.obj
 0002:000016e8       ??_C@_1GI@IPOK@?$AAm?$AA_?$AAp?$AAI?$AAD?$AAB?$AAP?$AAI?$AAM?$AA?9?$AA?$DO?$AAG?$AAe?$AAt?$AAS?$AAe?$AAr?$AAi?$AAe?$AAs@ 005316e8     DBController.obj
 0002:00001764       ??_C@_0BF@NJPD@NULL?5?$DN?$DN?5szPatientUID?$AA@ 00531764     DBController.obj
 0002:00001780       ??_C@_0BL@BKOI@AddJobImageInfoBySeriesUID?$AA@ 00531780     DBController.obj
 0002:000017a0       ??_C@_1GK@NIJP@?$AAm?$AA_?$AAp?$AAI?$AAD?$AAB?$AAP?$AAI?$AAM?$AA?9?$AA?$DO?$AAG?$AAe?$AAt?$AAA?$AAl?$AAl?$AAS?$AAe?$AAr@ 005317a0     DBController.obj
 0002:00001820       ??_C@_1GG@MLDM@?$AAm?$AA_?$AAp?$AAI?$AAD?$AAB?$AAP?$AAI?$AAM?$AA?9?$AA?$DO?$AAG?$AAe?$AAt?$AAI?$AAm?$AAa?$AAg?$AAe?$AAL@ 00531820     DBController.obj
 0002:0000189c       ??_C@_0BE@JKDC@NULL?5?$DN?$DN?5szSereisUID?$AA@ 0053189c     DBController.obj
 0002:000018b4       ??_C@_0CB@MJCE@m_pIDBPIM?9?$DOGetPostProcessingInfo@ 005318b4     DBController.obj
 0002:000018dc       ??_C@_1M@GDAM@?$AA?5?$AAa?$AAn?$AAd?$AA?5?$AA?$AA@ 005318dc     DBController.obj
 0002:000018ec       ??_C@_1DM@CJJP@?$AAI?$AAs?$AAS?$AAe?$AAr?$AAi?$AAe?$AAs?$AAU?$AAI?$AAD?$AAE?$AAx?$AAi?$AAs?$AAt?$AAe?$AAd?$AA?0?$AA?5@ 005318ec     DBController.obj
 0002:00001934       ??_C@_1DM@NPGO@?$AAI?$AAs?$AAS?$AAt?$AAu?$AAd?$AAy?$AAs?$AAU?$AAI?$AAD?$AAE?$AAx?$AAi?$AAs?$AAt?$AAe?$AAd?$AA?0?$AA?5@ 00531934     DBController.obj
 0002:0000197c       ??_C@_0BN@DFBB@FALSE?5?$DN?$DN?5m_bEnableGetJobInfo?$AA@ 0053197c     DBController.obj
 0002:000019a0       ??_C@_1FG@JOBA@?$AAm?$AA_?$AAp?$AAI?$AAD?$AAB?$AAP?$AAI?$AAM?$AA?9?$AA?$DO?$AAM?$AAo?$AAd?$AAi?$AAf?$AAy?$AAS?$AAt?$AAu@ 005319a0     DBController.obj
 0002:00001a08       ??_C@_1FO@DGJP@?$AAm?$AA_?$AAp?$AAI?$AAD?$AAB?$AAP?$AAI?$AAM?$AA?9?$AA?$DO?$AAM?$AAo?$AAd?$AAi?$AAf?$AAy?$AAP?$AAa?$AAt@ 00531a08     DBController.obj
 0002:00001a78       ??_C@_1EI@OGHG@?$AAm?$AA_?$AAp?$AAI?$AAD?$AAB?$AAS?$AAe?$AAs?$AAs?$AAi?$AAo?$AAn?$AA?9?$AA?$DO?$AAG?$AAe?$AAt?$AAC?$AAu@ 00531a78     DBController.obj
 0002:00001ad0       ??_C@_1HA@GCIE@?$AAm?$AA_?$AAp?$AAI?$AAD?$AAB?$AAP?$AAI?$AAM?$AA?9?$AA?$DO?$AAS?$AAe?$AAt?$AAM?$AAP?$AAP?$AAS?$AAS?$AAt@ 00531ad0     DBController.obj
 0002:00001b5c       ??_7DBDatabaseBasisOpt@@6B@ 00531b5c     DBDatabaseBasisOpt.obj
 0002:00001b74       ??_C@_0EA@DAEB@E?3?2DX0806?2N?5Series?2PrintingArchi@ 00531b74     DBDatabaseBasisOpt.obj
 0002:00001bc0       ??_C@_1HG@LHME@?$AA?$DL?$AAP?$AAe?$AAr?$AAs?$AAi?$AAs?$AAt?$AA?5?$AAS?$AAe?$AAc?$AAu?$AAr?$AAi?$AAt?$AAy?$AA?5?$AAI?$AAn@ 00531bc0     DBDatabaseBasisOpt.obj
 0002:00001c50       ??_C@_1FO@JACI@?$AAP?$AAr?$AAo?$AAv?$AAi?$AAd?$AAe?$AAr?$AA?$DN?$AAM?$AAi?$AAc?$AAr?$AAo?$AAs?$AAo?$AAf?$AAt?$AA?4?$AAJ@ 00531c50     DBDatabaseBasisOpt.obj
 0002:00001cc0       ??_C@_1DE@BJHE@?$AAQ?$AAu?$AAe?$AAr?$AAy?$AAL?$AAo?$AAa?$AAd?$AAR?$AAe?$AAc?$AAo?$AAr?$AAd?$AA?5?$AAo?$AAp?$AAe?$AAn@ 00531cc0     DBDatabaseBasisOpt.obj
 0002:00001d00       ??_C@_13ECNF@?$AA?5?$AA?$AA@ 00531d00     DBDatabaseBasisOpt.obj
 0002:00001d04       ??_C@_13JKDK@?$AA?0?$AA?$AA@ 00531d04     DBDatabaseBasisOpt.obj
 0002:00001d08       ??_C@_1EM@LNPM@?$AAQ?$AAu?$AAe?$AAr?$AAy?$AAL?$AAo?$AAa?$AAd?$AAR?$AAe?$AAc?$AAo?$AAr?$AAd?$AA?5?$AAi?$AAn?$AAp?$AAu@ 00531d08     DBDatabaseBasisOpt.obj
 0002:00001d64       ??_C@_1EO@KAOL@?$AA?5?$AA?9?$AA?9?$AA?5?$AAc?$AAa?$AAt?$AAc?$AAh?$AA?5?$AAe?$AAr?$AAr?$AAo?$AAr?$AA?5?$AAi?$AAn?$AA?5?$AAD@ 00531d64     DBDatabaseBasisOpt.obj
 0002:00001dc4       ??_C@_1BE@GDFD@?$AAs?$AAe?$AAl?$AAe?$AAc?$AAt?$AA?5?$AA?$CK?$AA?5?$AA?$AA@ 00531dc4     DBDatabaseBasisOpt.obj
 0002:00001ddc       ??_C@_1BC@CHEP@?$AAs?$AAe?$AAl?$AAe?$AAc?$AAt?$AA?5?$AA?$CK?$AA?$AA@ 00531ddc     DBDatabaseBasisOpt.obj
 0002:00001df4       ??_C@_1BE@KDPM@?$AAd?$AAe?$AAl?$AAe?$AAt?$AAe?$AA?5?$AA?$CK?$AA?5?$AA?$AA@ 00531df4     DBDatabaseBasisOpt.obj
 0002:00001e0c       ??_C@_19KF@?$AAN?$AAU?$AAL?$AAL?$AA?$AA@ 00531e0c     DBDatabaseBasisOpt.obj
 0002:00001e18       ??_C@_1BA@JBBE@?$AAS?$AAE?$AAL?$AAE?$AAC?$AAT?$AA?5?$AA?$AA@ 00531e18     DBDatabaseBasisOpt.obj
 0002:00001e30       ??_7CObject@@6B@           00531e30     DBDatabaseBasisOpt.obj
 0002:00001e4c       ??_7DBDatabaseOpt@@6B@     00531e4c     DBDatabaseOpt.obj
 0002:00001e54       ??_C@_1EC@DPJF@?$AAC?$AAr?$AAe?$AAa?$AAt?$AAe?$AA?5?$AAC?$AAA?$AAD?$AAO?$AAD?$AAa?$AAt?$AAa?$AAb?$AAa?$AAs?$AAe?$AA?5@ 00531e54     DBDatabaseOpt.obj
 0002:00001ea4       ??_C@_0DL@FBAK@E?3?2DX0806?2N?5Series?2PrintingArchi@ 00531ea4     DBDatabaseOpt.obj
 0002:00001ef0       ??_7CDBSink@@6B@           00531ef0     DBSink.obj
 0002:00001f18       ??_7CDBStructInitor@@6B@   00531f18     DBStructInitor.obj
 0002:00001f60       ??_7CDcmPartner@@6BCDcmGen@@@ 00531f60     DcmPartner.obj
 0002:00001f6c       ??_7CDcmPartner@@6BNSubject@@@ 00531f6c     DcmPartner.obj
 0002:00001f7c       ??_C@_0DI@GBBO@E?3?2DX0806?2N?5Series?2PrintingArchi@ 00531f7c     DcmPartner.obj
 0002:00001fc0       ??_C@_0CJ@DIGL@0?5?$DN?$DN?5pvtrSeriesPostProcessStruct@ 00531fc0     DcmPartner.obj
 0002:00001ff4       ??_C@_0DG@NKM@ConvertSFImagesBFS?$CIenumDownscale@ 00531ff4     DcmPartner.obj
 0002:00002034       ??_C@_0BB@BFAK@CheckDiskSpace?$CI?$CJ?$AA@ 00532034     DcmPartner.obj
 0002:00002048       ??_C@_0CC@EMBK@CheckTaskDir?$CIm_szStorePath?0?5TRUE@ 00532048     DcmPartner.obj
 0002:00002070       ??_C@_0CE@PCGL@CreateDicomDirFile?$CIstrDICOMDIRpa@ 00532070     DcmPartner.obj
 0002:0000209c       ??_C@_0BJ@CLCO@ConvertOneImageToDXImage?$AA@ 0053209c     DcmPartner.obj
 0002:000020bc       ??_C@_1DM@MOLC@?$AAE?$AAR?$AAR?$AAO?$AAR?$AA?3?$AA?5?$AAG?$AAe?$AAt?$AAP?$AAa?$AAt?$AAi?$AAe?$AAn?$AAt?$AAI?$AAn?$AAf@ 005320bc     DcmPartner.obj
 0002:00002104       ??_C@_1DK@DDOD@?$AAE?$AAR?$AAR?$AAO?$AAR?$AA?3?$AA?5?$AAG?$AAe?$AAt?$AAS?$AAe?$AAr?$AAi?$AAe?$AAs?$AAI?$AAn?$AAf?$AAo@ 00532104     DcmPartner.obj
 0002:0000214c       ??_C@_1EE@KPDN@?$AAE?$AAR?$AAR?$AAO?$AAR?$AA?3?$AA?5?$AAG?$AAe?$AAt?$AAP?$AAo?$AAs?$AAt?$AAP?$AAr?$AAo?$AAc?$AAe?$AAs@ 0053214c     DcmPartner.obj
 0002:000021a0       ??_C@_0DI@EBKB@Image?5conversion?5cancelled?5becau@ 005321a0     DcmPartner.obj
 0002:000021e4       ??_C@_0FF@JKLH@m_pConfigInfo?5?$DN?5CDBController?3?3G@ 005321e4     DcmPartner.obj
 0002:0000224c       ??_C@_1BK@JGEH@?$AAD?$AAc?$AAm?$AA?5?$AAT?$AAi?$AAm?$AAe?$AA?3?$AA?5?$AA?$CF?$AAd?$AA?$AA@ 0053224c     DcmPartner.obj
 0002:0000226c       ??_C@_1FK@PPJO@?$AAC?$AAo?$AAp?$AAy?$AAF?$AAi?$AAl?$AAe?$AA?$CI?$AAs?$AAt?$AAr?$AAS?$AAr?$AAc?$AAP?$AAS?$AAP?$AAa?$AAt@ 0053226c     DcmPartner.obj
 0002:000022d8       ??_C@_1GK@EAIL@?$AAC?$AAh?$AAe?$AAc?$AAk?$AAT?$AAa?$AAs?$AAk?$AAD?$AAi?$AAr?$AA?$CI?$AAs?$AAt?$AAr?$AAD?$AAc?$AAm?$AAI@ 005322d8     DcmPartner.obj
 0002:00002358       ??_C@_19NKKA@?$AA?4?$AAp?$AAr?$AAe?$AA?$AA@ 00532358     DcmPartner.obj
 0002:00002364       ??_C@_1DI@OAEE@?$AAF?$AAa?$AAi?$AAl?$AAe?$AAd?$AA?5?$AAt?$AAo?$AA?5?$AAC?$AAl?$AAe?$AAa?$AAr?$AA?5?$AAT?$AAa?$AAs?$AAk@ 00532364     DcmPartner.obj
 0002:000023a8       ??_C@_1DK@HJOE@?$AAS?$AAu?$AAc?$AAc?$AAe?$AAe?$AAd?$AA?5?$AAt?$AAo?$AA?5?$AAC?$AAl?$AAe?$AAa?$AAr?$AA?5?$AAT?$AAa?$AAs@ 005323a8     DcmPartner.obj
 0002:000023f0       ??_C@_1DA@BIFD@?$AAF?$AAa?$AAi?$AAl?$AAe?$AAd?$AA?5?$AAt?$AAo?$AA?5?$AAD?$AAe?$AAl?$AAe?$AAt?$AAe?$AA?5?$AAD?$AAi?$AAr@ 005323f0     DcmPartner.obj
 0002:0000242c       ??_C@_1BM@HOOC@?$AAD?$AAe?$AAl?$AAe?$AAt?$AAe?$AA?5?$AAD?$AAi?$AAr?$AA?5?$AA?3?$AA?5?$AA?$AA@ 0053242c     DcmPartner.obj
 0002:00002450       ??_C@_1DC@KBJI@?$AAF?$AAa?$AAi?$AAl?$AAe?$AAd?$AA?5?$AAt?$AAo?$AA?5?$AAD?$AAe?$AAl?$AAe?$AAt?$AAe?$AA?5?$AAf?$AAi?$AAl@ 00532450     DcmPartner.obj
 0002:0000248c       ??_C@_1BO@EHNI@?$AAD?$AAe?$AAl?$AAe?$AAt?$AAe?$AA?5?$AAf?$AAi?$AAl?$AAe?$AA?5?$AA?3?$AA?5?$AA?$AA@ 0053248c     DcmPartner.obj
 0002:000024b0       ??_C@_1DE@DLMI@?$AAF?$AAa?$AAi?$AAl?$AAe?$AAd?$AA?5?$AAt?$AAo?$AA?5?$AAC?$AAl?$AAe?$AAa?$AAr?$AAT?$AAa?$AAs?$AAk?$AAD@ 005324b0     DcmPartner.obj
 0002:000024f0       ??_C@_1CA@MAGP@?$AAC?$AAl?$AAe?$AAa?$AAr?$AAT?$AAa?$AAs?$AAk?$AAD?$AAi?$AAr?$AA?5?$AA?3?$AA?5?$AA?$AA@ 005324f0     DcmPartner.obj
 0002:00002518       __real@8@40138000000000000000 00532518     DcmPartner.obj
 0002:00002524       ??_C@_1O@HJLA@?$AA?2?$AAD?$AAI?$AAC?$AAO?$AAM?$AA?$AA@ 00532524     DcmPartner.obj
 0002:00002534       ??_C@_1BA@LBIC@?$AA?2?$AA?$CF?$AAs?$AA?$CF?$AA0?$AA2?$AAd?$AA?$AA@ 00532534     DcmPartner.obj
 0002:00002548       ??_C@_1O@OLAE@?$AAS?$AAE?$AAR?$AAI?$AAE?$AAS?$AA?$AA@ 00532548     DcmPartner.obj
 0002:00002558       ??_C@_1BA@BBKH@?$AA?2?$AA?$CF?$AAs?$AA?$CF?$AA0?$AA3?$AAd?$AA?$AA@ 00532558     DcmPartner.obj
 0002:0000256c       ??_C@_1M@LMGG@?$AAS?$AAT?$AAU?$AAD?$AAY?$AA?$AA@ 0053256c     DcmPartner.obj
 0002:0000257c       ??_C@_1BA@JBDC@?$AA?2?$AA?$CF?$AAs?$AA?$CF?$AA0?$AA7?$AAd?$AA?$AA@ 0053257c     DcmPartner.obj
 0002:00002590       ??_C@_13KEMA@?$AAP?$AA?$AA@ 00532590     DcmPartner.obj
 0002:00002594       ??_C@_19NJKF@?$AA?2?$AAB?$AAM?$AAP?$AA?$AA@ 00532594     DcmPartner.obj
 0002:000025a0       ??_C@_1M@KPIK@?$AA?2?$AAJ?$AAP?$AAE?$AAG?$AA?$AA@ 005325a0     DcmPartner.obj
 0002:000025b0       ??_C@_19DGHC@?$AA?4?$AAb?$AAm?$AAp?$AA?$AA@ 005325b0     DcmPartner.obj
 0002:000025bc       ??_C@_19LAMM@?$AA?$CF?$AA0?$AA4?$AAd?$AA?$AA@ 005325bc     DcmPartner.obj
 0002:000025c8       ??_C@_1M@DDOA@?$AA?$CF?$AA0?$AA3?$AAd?$AA_?$AA?$AA@ 005325c8     DcmPartner.obj
 0002:000025d8       ??_C@_1M@PNKP@?$AA?4?$AAj?$AAp?$AAe?$AAg?$AA?$AA@ 005325d8     DcmPartner.obj
 0002:000025e8       ??_C@_1O@KEFM@?$AA?$CF?$AAc?$AA?$CF?$AA0?$AA7?$AAd?$AA?$AA@ 005325e8     DcmPartner.obj
 0002:000025f8       ??_C@_1FE@PKID@?$AAa?$AAD?$AAc?$AAm?$AAP?$AAa?$AAr?$AAs?$AAe?$AAr?$AA?4?$AAL?$AAo?$AAa?$AAd?$AAD?$AAX?$AAD?$AAc?$AAm@ 005325f8     DcmPartner.obj
 0002:0000265c       ??_C@_1DK@DIHG@?$AAI?$AAs?$AAF?$AAi?$AAl?$AAe?$AAE?$AAx?$AAi?$AAs?$AAt?$AA?$CI?$AAs?$AAt?$AAr?$AAF?$AAi?$AAl?$AAe?$AAN@ 0053265c     DcmPartner.obj
 0002:000026a4       ??_C@_0CE@JCGI@GetImageFileName?$CIbRaw?0?5strFileNa@ 005326a4     DcmPartner.obj
 0002:000026d0       ??_C@_1BE@EBNF@?$AAE?$AA?3?$AA?2?$AAi?$AAm?$AAa?$AAg?$AAe?$AAs?$AA?$AA@ 005326d0     DcmPartner.obj
 0002:000026e8       ??_C@_1CG@BGOB@?$AAL?$AAA?$AAN?$AAG?$AAU?$AAA?$AAG?$AAE?$AA_?$AAT?$AAR?$AAA?$AAN?$AAS?$AAL?$AAA?$AAT?$AAE?$AA?$AA@ 005326e8     DcmPartner.obj
 0002:00002718       ??_C@_1CI@FJCE@?$AAI?$AAs?$AAT?$AAr?$AAa?$AAn?$AAs?$AAl?$AAa?$AAt?$AAe?$AAL?$AAa?$AAn?$AAg?$AAu?$AAa?$AAg?$AAe?$AA?$AA@ 00532718     DcmPartner.obj
 0002:00002748       ??_C@_1CM@IBIA@?$AA?2?$AAS?$AAe?$AAt?$AAt?$AAi?$AAn?$AAg?$AA?2?$AAU?$AAI?$AAS?$AAc?$AAh?$AAe?$AAm?$AAe?$AA?4?$AAi?$AAn@ 00532748     DcmPartner.obj
 0002:0000277c       ??_C@_1DI@HLKC@?$AAF?$AAi?$AAn?$AAd?$AAF?$AAi?$AAr?$AAs?$AAt?$AAF?$AAi?$AAl?$AAe?$AA?$CI?$AA?$CJ?$AA?0?$AA?5?$AAs?$AAz?$AAF@ 0053277c     DcmPartner.obj
 0002:000027c4       ??_7CDirHandler@@6B@       005327c4     DirHandler.obj
 0002:000027cc       ??_C@_0DI@OEGA@E?3?2DX0806?2N?5Series?2PrintingArchi@ 005327cc     DirHandler.obj
 0002:00002810       ??_C@_1CM@NNHE@?$AAC?$AAr?$AAe?$AAa?$AAt?$AAe?$AAD?$AAi?$AAr?$AAe?$AAc?$AAt?$AAo?$AAr?$AAy?$AA?$CI?$AA?$CJ?$AA?3?$AA?5?$AA?$CF@ 00532810     DirHandler.obj
 0002:00002844       ??_C@_1CO@INH@?$AAF?$AAa?$AAi?$AAl?$AAe?$AAd?$AA?5?$AAt?$AAo?$AA?5?$AAD?$AAe?$AAl?$AAe?$AAt?$AAe?$AAD?$AAi?$AAr?$AA?5@ 00532844     DirHandler.obj
 0002:0000287c       ??_C@_1CA@HJMD@?$AA?$CF?$AAs?$AA?5?$AAi?$AAs?$AA?5?$AAn?$AAo?$AAt?$AA?5?$AAa?$AA?5?$AAd?$AAi?$AAr?$AA?$AA@ 0053287c     DirHandler.obj
 0002:000028a4       ??_C@_1FK@GHCH@?$AAh?$AAF?$AAi?$AAn?$AAd?$AA?5?$AA?$DN?$AA?5?$AAF?$AAi?$AAn?$AAd?$AAF?$AAi?$AAr?$AAs?$AAt?$AAF?$AAi?$AAl@ 005328a4     DirHandler.obj
 0002:00002910       ??_C@_1DA@MOGA@?$AAD?$AAi?$AAr?$AA?5?$AAn?$AAo?$AA?5?$AAf?$AAo?$AAu?$AAn?$AAd?$AA?0?$AA?5?$AAs?$AAz?$AAD?$AAi?$AAr?$AA?3@ 00532910     DirHandler.obj
 0002:0000294c       ??_C@_1DA@KLGI@?$AAC?$AAr?$AAe?$AAa?$AAt?$AAe?$AAD?$AAi?$AAr?$AA?$CI?$AA?$CJ?$AA?0?$AA?5?$AAs?$AAz?$AAD?$AAi?$AAr?$AA?5?$AA?$DN@ 0053294c     DirHandler.obj
 0002:00002988       ??_C@_1CO@EOJE@?$AAC?$AAl?$AAe?$AAa?$AAr?$AAD?$AAi?$AAr?$AA?$CI?$AA?$CJ?$AA?0?$AA?5?$AAs?$AAz?$AAD?$AAi?$AAr?$AA?5?$AA?$DN?$AA?5@ 00532988     DirHandler.obj
 0002:000029c0       ??_C@_1BK@HBJO@?$AAD?$AAe?$AAl?$AAe?$AAt?$AAe?$AAD?$AAi?$AAr?$AA?5?$AA?3?$AA?5?$AA?$AA@ 005329c0     DirHandler.obj
 0002:000029e0       ??_C@_1CA@PDCK@?$AAD?$AAe?$AAl?$AAe?$AAt?$AAe?$AA?5?$AAf?$AAi?$AAl?$AAe?$AA?3?$AA?5?$AA?$CF?$AAs?$AA?$AA@ 005329e0     DirHandler.obj
 0002:00002a08       ??_C@_1BI@GOMH@?$AA?$CF?$AAs?$AA?5?$AAi?$AAs?$AA?5?$AAa?$AA?5?$AAd?$AAi?$AAr?$AA?$AA@ 00532a08     DirHandler.obj
 0002:00002a24       ??_C@_1FO@BIMD@?$AAh?$AAF?$AAi?$AAn?$AAd?$AA?5?$AA?$DN?$AA?5?$AAF?$AAi?$AAn?$AAd?$AAF?$AAi?$AAr?$AAs?$AAt?$AAF?$AAi?$AAl@ 00532a24     DirHandler.obj
 0002:00002a94       ??_C@_1GK@JEAA@?$AAS?$AAe?$AAt?$AAF?$AAi?$AAl?$AAe?$AAA?$AAt?$AAt?$AAr?$AAi?$AAb?$AAu?$AAt?$AAe?$AAs?$AA?$CI?$AAs?$AAz@ 00532a94     DirHandler.obj
 0002:00002b14       ??_C@_0DI@NAEP@E?3?2DX0806?2N?5Series?2PrintingArchi@ 00532b14     DiscImport.obj
 0002:00002b5c       ??_7CDiscImport@@6BNSubject@@@ 00532b5c     DiscImport.obj
 0002:00002b70       ??_7CDiscImport@@6BNObserver@@@ 00532b70     DiscImport.obj
 0002:00002b7c       ??_C@_0CN@ELKB@TerminateThread?$CIm_vtrGetDiscInfo@ 00532b7c     DiscImport.obj
 0002:00002bb4       ??_C@_0BI@GIPL@CancelGetImportDiscInfo?$AA@ 00532bb4     DiscImport.obj
 0002:00002bd0       ??_C@_1KM@MEDG@?$AAI?$AAm?$AAp?$AAo?$AAr?$AAt?$AAe?$AAd?$AA?0?$AA?5?$AAP?$AAa?$AAt?$AAi?$AAe?$AAn?$AAt?$AA?5?$AAI?$AAD@ 00532bd0     DiscImport.obj
 0002:00002ca0       ??_C@_15KLDP@?$AA?$CF?$AAd?$AA?$AA@ 00532ca0     DiscImport.obj
 0002:00002ca8       ??_C@_1HI@JAKK@?$AAC?$AAD?$AAB?$AAC?$AAo?$AAn?$AAt?$AAr?$AAo?$AAl?$AAl?$AAe?$AAr?$AA?3?$AA?3?$AAG?$AAe?$AAt?$AAI?$AAn@ 00532ca8     DiscImport.obj
 0002:00002d38       ??_C@_1HO@PFEE@?$AAC?$AAD?$AAB?$AAC?$AAo?$AAn?$AAt?$AAr?$AAo?$AAl?$AAl?$AAe?$AAr?$AA?3?$AA?3?$AAG?$AAe?$AAt?$AAI?$AAn@ 00532d38     DiscImport.obj
 0002:00002dd0       ??_C@_0CE@GAGM@RemoveInfoOfUnproperlyImportedIm@ 00532dd0     DiscImport.obj
 0002:00002dfc       ??_C@_1HK@CADK@?$AAC?$AAD?$AAB?$AAC?$AAo?$AAn?$AAt?$AAr?$AAo?$AAl?$AAl?$AAe?$AAr?$AA?3?$AA?3?$AAG?$AAe?$AAt?$AAI?$AAn@ 00532dfc     DiscImport.obj
 0002:00002e90       ??_C@_1GM@LNMB@?$AAC?$AAD?$AAB?$AAC?$AAo?$AAn?$AAt?$AAr?$AAo?$AAl?$AAl?$AAe?$AAr?$AA?3?$AA?3?$AAG?$AAe?$AAt?$AAI?$AAn@ 00532e90     DiscImport.obj
 0002:00002f14       ??_C@_1HI@IBM@?$AAC?$AAD?$AAB?$AAC?$AAo?$AAn?$AAt?$AAr?$AAo?$AAl?$AAl?$AAe?$AAr?$AA?3?$AA?3?$AAG?$AAe?$AAt?$AAI?$AAn@ 00532f14     DiscImport.obj
 0002:00002fa4       ??_C@_1IE@EOPA@?$AAC?$AAD?$AAB?$AAC?$AAo?$AAn?$AAt?$AAr?$AAo?$AAl?$AAl?$AAe?$AAr?$AA?3?$AA?3?$AAG?$AAe?$AAt?$AAI?$AAn@ 00532fa4     DiscImport.obj
 0002:00003044       ??_C@_1HM@OOCH@?$AAC?$AAD?$AAB?$AAC?$AAo?$AAn?$AAt?$AAr?$AAo?$AAl?$AAl?$AAe?$AAr?$AA?3?$AA?3?$AAG?$AAe?$AAt?$AAI?$AAn@ 00533044     DiscImport.obj
 0002:000030d8       ??_C@_1HE@OPIB@?$AAC?$AAD?$AAB?$AAC?$AAo?$AAn?$AAt?$AAr?$AAo?$AAl?$AAl?$AAe?$AAr?$AA?3?$AA?3?$AAG?$AAe?$AAt?$AAI?$AAn@ 005330d8     DiscImport.obj
 0002:00003164       ??_C@_1HC@DEBD@?$AAC?$AAD?$AAB?$AAC?$AAo?$AAn?$AAt?$AAr?$AAo?$AAl?$AAl?$AAe?$AAr?$AA?3?$AA?3?$AAG?$AAe?$AAt?$AAI?$AAn@ 00533164     DiscImport.obj
 0002:000031ec       ??_C@_1IE@MHAN@?$AAC?$AAD?$AAB?$AAC?$AAo?$AAn?$AAt?$AAr?$AAo?$AAl?$AAl?$AAe?$AAr?$AA?3?$AA?3?$AAG?$AAe?$AAt?$AAI?$AAn@ 005331ec     DiscImport.obj
 0002:0000328c       ??_C@_1IC@EJEA@?$AAC?$AAD?$AAB?$AAC?$AAo?$AAn?$AAt?$AAr?$AAo?$AAl?$AAl?$AAe?$AAr?$AA?3?$AA?3?$AAG?$AAe?$AAt?$AAI?$AAn@ 0053328c     DiscImport.obj
 0002:00003328       ??_C@_1IG@GBLL@?$AAC?$AAD?$AAB?$AAC?$AAo?$AAn?$AAt?$AAr?$AAo?$AAl?$AAl?$AAe?$AAr?$AA?3?$AA?3?$AAG?$AAe?$AAt?$AAI?$AAn@ 00533328     DiscImport.obj
 0002:000033c8       ??_C@_0BE@LGMB@GetPatientInfoInDcm?$AA@ 005333c8     DiscImport.obj
 0002:000033e0       ??_C@_1HK@OPNH@?$AAC?$AAI?$AAS?$AAC?$AAo?$AAn?$AAt?$AAr?$AAo?$AAl?$AAl?$AAe?$AAr?$AA?3?$AA?3?$AAG?$AAe?$AAt?$AAI?$AAn@ 005333e0     DiscImport.obj
 0002:00003474       ??_C@_1DG@OMEF@?$AAN?$AAo?$AAt?$AA?5?$AAe?$AAn?$AAo?$AAu?$AAg?$AAh?$AA?5?$AAf?$AAr?$AAe?$AAe?$AA?5?$AAd?$AAi?$AAs?$AAk@ 00533474     DiscImport.obj
 0002:000034b4       ??_C@_1GI@GIFF@?$AAC?$AAI?$AAS?$AAC?$AAo?$AAn?$AAt?$AAr?$AAo?$AAl?$AAl?$AAe?$AAr?$AA?3?$AA?3?$AAG?$AAe?$AAt?$AAI?$AAn@ 005334b4     DiscImport.obj
 0002:00003530       ??_C@_1HG@HKFI@?$AAC?$AAD?$AAB?$AAC?$AAo?$AAn?$AAt?$AAr?$AAo?$AAl?$AAl?$AAe?$AAr?$AA?3?$AA?3?$AAG?$AAe?$AAt?$AAI?$AAn@ 00533530     DiscImport.obj
 0002:000035c0       ??_C@_1MI@JMJH@?$AAI?$AAm?$AAa?$AAg?$AAe?$AA?5?$AAe?$AAx?$AAi?$AAs?$AAt?$AAs?$AA?5?$AAi?$AAn?$AA?5?$AAs?$AAy?$AAs?$AAt@ 005335c0     DiscImport.obj
 0002:000036b0       ??_C@_1IC@ECAC@?$AAC?$AAD?$AAB?$AAC?$AAo?$AAn?$AAt?$AAr?$AAo?$AAl?$AAl?$AAe?$AAr?$AA?3?$AA?3?$AAG?$AAe?$AAt?$AAI?$AAn@ 005336b0     DiscImport.obj
 0002:0000374c       ??_C@_1CC@EPKL@?$AAI?$AAm?$AAp?$AAo?$AAr?$AAt?$AAi?$AAn?$AAg?$AA?5?$AAF?$AAa?$AAi?$AAl?$AAe?$AAd?$AA?$AA@ 0053374c     DiscImport.obj
 0002:00003774       ??_C@_1CO@DDK@?$AAI?$AAm?$AAp?$AAo?$AAr?$AAt?$AAi?$AAn?$AAg?$AA?5?$AAt?$AAo?$AA?5?$AAs?$AAy?$AAs?$AAt?$AAe?$AAm?$AA?4@ 00533774     DiscImport.obj
 0002:000037ac       ??_C@_1O@LDAF@?$AAI?$AAm?$AAp?$AAo?$AAr?$AAt?$AA?$AA@ 005337ac     DiscImport.obj
 0002:000037bc       ??_C@_1EI@OHNP@?$AAE?$AAr?$AAr?$AAo?$AAr?$AA?5?$AAo?$AAc?$AAc?$AAu?$AAr?$AAr?$AAe?$AAd?$AA?0?$AA?5?$AAf?$AAa?$AAi?$AAl@ 005337bc     DiscImport.obj
 0002:00003814       ??_C@_1DE@LCNH@?$AAR?$AAe?$AAa?$AAd?$AAi?$AAn?$AAg?$AA?5?$AAi?$AAm?$AAp?$AAo?$AAr?$AAt?$AAi?$AAn?$AAg?$AA?5?$AAd?$AAi@ 00533814     DiscImport.obj
 0002:00003854       ??_C@_1EI@MIGD@?$AAS?$AAu?$AAc?$AAc?$AAe?$AAe?$AAd?$AAe?$AAd?$AA?5?$AAi?$AAn?$AA?5?$AAr?$AAe?$AAa?$AAd?$AAi?$AAn?$AAg@ 00533854     DiscImport.obj
 0002:000038ac       ??_C@_1JC@JBPO@?$AAm?$AA_?$AAp?$AAD?$AAc?$AAm?$AAD?$AAi?$AAr?$AAP?$AAa?$AAr?$AAs?$AAe?$AAr?$AA?9?$AA?$DO?$AAG?$AAe?$AAt@ 005338ac     DiscImport.obj
 0002:00003960       ??_SCDcmDirParser@@6B@     00533960     DiscImport.obj
 0002:00003968       ??_C@_1HK@HOAE@?$AA?$CF?$AAd?$AA?5?$AA?$DN?$AA?$DN?$AA?5?$AAG?$AAe?$AAt?$AAL?$AAa?$AAs?$AAt?$AAE?$AAr?$AAr?$AAo?$AAr?$AA?$CI?$AA?$CJ@ 00533968     DiscImport.obj
 0002:000039fc       ??_C@_1CO@PPB@?$AAI?$AAn?$AAv?$AAa?$AAl?$AAi?$AAd?$AA?5?$AAi?$AAm?$AAp?$AAo?$AAr?$AAt?$AAi?$AAn?$AAg?$AA?5?$AAd?$AAi@ 005339fc     DiscImport.obj
 0002:00003a34       ??_C@_1CE@KPDI@?$AAN?$AAo?$AA?5?$AAi?$AAm?$AAp?$AAo?$AAr?$AAt?$AAi?$AAn?$AAg?$AA?5?$AAd?$AAi?$AAs?$AAc?$AA?$AA@ 00533a34     DiscImport.obj
 0002:00003a60       ??_C@_1BC@JBAG@?$AAD?$AAI?$AAC?$AAO?$AAM?$AAD?$AAI?$AAR?$AA?$AA@ 00533a60     DiscImport.obj
 0002:00003a78       ??_C@_13DBKJ@?$AA1?$AA?$AA@ 00533a78     DiscImport.obj
 0002:00003a7c       ??_C@_13GDLP@?$AA0?$AA?$AA@ 00533a7c     DiscImport.obj
 0002:00003a80       ??_C@_1HK@GEAE@?$AAI?$AAm?$AAa?$AAg?$AAe?$AAU?$AAI?$AAD?$AAs?$AA?5?$AAa?$AAr?$AAe?$AA?5?$AAn?$AAo?$AAt?$AA?5?$AAm?$AAa@ 00533a80     DiscImport.obj
 0002:00003b14       ??_C@_1GG@DJLH@?$AAD?$AAc?$AAm?$AAP?$AAa?$AAr?$AAs?$AAe?$AAr?$AA?4?$AAG?$AAe?$AAt?$AAP?$AAa?$AAt?$AAi?$AAe?$AAn?$AAt@ 00533b14     DiscImport.obj
 0002:00003b90       ??_C@_1GI@MJC@?$AAD?$AAc?$AAm?$AAP?$AAa?$AAr?$AAs?$AAe?$AAr?$AA?4?$AAL?$AAo?$AAa?$AAd?$AAX?$AAA?$AAD?$AAc?$AAm?$AAF@ 00533b90     DiscImport.obj
 0002:00003c10       ??_SCDcmParser@@6B@        00533c10     DiscImport.obj
 0002:00003c18       ??_C@_1NK@PDBH@?$AAC?$AAo?$AAp?$AAy?$AAF?$AAi?$AAl?$AAe?$AA?$CI?$AAs?$AAt?$AAr?$AAP?$AAS?$AAF?$AAi?$AAl?$AAe?$AAI?$AAn@ 00533c18     DiscImport.obj
 0002:00003d20       ??_C@_1BAG@DJBO@?$AAa?$AAD?$AAc?$AAm?$AAM?$AAo?$AAd?$AAi?$AAf?$AAy?$AA?4?$AAM?$AAo?$AAd?$AAi?$AAf?$AAy?$AAD?$AAc?$AAm@ 00533d20     DiscImport.obj
 0002:00003e5c       ??_C@_1PA@LMNA@?$AAa?$AAD?$AAc?$AAm?$AAM?$AAo?$AAd?$AAi?$AAf?$AAy?$AA?4?$AAM?$AAo?$AAd?$AAi?$AAf?$AAy?$AAD?$AAc?$AAm@ 00533e5c     DiscImport.obj
 0002:00003f7c       ??_C@_1GC@MHNC@?$AAC?$AAD?$AAi?$AAr?$AAH?$AAa?$AAn?$AAd?$AAl?$AAe?$AAr?$AA?3?$AA?3?$AAC?$AAr?$AAe?$AAa?$AAt?$AAe?$AAD@ 00533f7c     DiscImport.obj
 0002:00003ff4       ??_C@_0CM@NIAP@CJobHandler?3?3GetInstance?$CI?$CJ?9?$DOGetJ@ 00533ff4     DiscImport.obj
 0002:00004028       ??_C@_1BE@HFBN@?$AAC?$AAa?$AAn?$AAc?$AAe?$AAl?$AAl?$AAe?$AAd?$AA?$AA@ 00534028     DiscImport.obj
 0002:00004040       ??_C@_1DK@NODL@?$AAD?$AAi?$AAs?$AAc?$AAI?$AAm?$AAp?$AAo?$AAr?$AAt?$AA?5?$AAS?$AAu?$AAb?$AAM?$AAo?$AAd?$AAu?$AAl?$AAe@ 00534040     DiscImport.obj
 0002:00004088       ??_C@_1O@LENK@?$AAF?$AAa?$AAi?$AAl?$AAe?$AAd?$AA?$AA@ 00534088     DiscImport.obj
 0002:00004098       ??_C@_1BA@EEHH@?$AAS?$AAk?$AAi?$AAp?$AAp?$AAe?$AAd?$AA?$AA@ 00534098     DiscImport.obj
 0002:000040ac       ??_C@_1BE@LNFA@?$AAC?$AAo?$AAm?$AAp?$AAl?$AAe?$AAt?$AAe?$AAd?$AA?$AA@ 005340ac     DiscImport.obj
 0002:000040c4       ??_C@_1BE@POCD@?$AAI?$AAm?$AAp?$AAo?$AAr?$AAt?$AAi?$AAn?$AAg?$AA?$AA@ 005340c4     DiscImport.obj
 0002:000040dc       ??_C@_1BA@MKHO@?$AAW?$AAa?$AAi?$AAt?$AAi?$AAn?$AAg?$AA?$AA@ 005340dc     DiscImport.obj
 0002:000040f0       ??_C@_19DDGE@?$AA?$CF?$AAd?$AA?$CF?$AA?$CF?$AA?$AA@ 005340f0     DiscImport.obj
 0002:000040fc       ??_C@_1GM@HGHO@?$AAC?$AAD?$AAi?$AAr?$AAH?$AAa?$AAn?$AAd?$AAl?$AAe?$AAr?$AA?3?$AA?3?$AAD?$AAe?$AAl?$AAe?$AAt?$AAe?$AAD@ 005340fc     DiscImport.obj
 0002:00004180       ??_C@_1GI@KHBD@?$AAC?$AAD?$AAi?$AAr?$AAH?$AAa?$AAn?$AAd?$AAl?$AAe?$AAr?$AA?3?$AA?3?$AAD?$AAe?$AAl?$AAe?$AAt?$AAe?$AAD@ 00534180     DiscImport.obj
 0002:000041fc       ??_C@_1GA@DIHI@?$AAC?$AAD?$AAi?$AAr?$AAH?$AAa?$AAn?$AAd?$AAl?$AAe?$AAr?$AA?3?$AA?3?$AAD?$AAe?$AAl?$AAe?$AAt?$AAe?$AAD@ 005341fc     DiscImport.obj
 0002:00004270       ??_C@_1HE@NBGJ@?$AAC?$AAD?$AAB?$AAC?$AAo?$AAn?$AAt?$AAr?$AAo?$AAl?$AAl?$AAe?$AAr?$AA?3?$AA?3?$AAI?$AAs?$AAI?$AAm?$AAa@ 00534270     DiscImport.obj
 0002:000042fc       ??_C@_1HK@HKDB@?$AAC?$AAD?$AAB?$AAC?$AAo?$AAn?$AAt?$AAr?$AAo?$AAl?$AAl?$AAe?$AAr?$AA?3?$AA?3?$AAD?$AAe?$AAl?$AAe?$AAt@ 005342fc     DiscImport.obj
 0002:00004390       ??_C@_1GC@OLHN@?$AAC?$AAD?$AAi?$AAr?$AAH?$AAa?$AAn?$AAd?$AAl?$AAe?$AAr?$AA?3?$AA?3?$AAD?$AAe?$AAl?$AAe?$AAt?$AAe?$AAD@ 00534390     DiscImport.obj
 0002:00004408       ??_C@_1HI@EKIE@?$AAC?$AAD?$AAB?$AAC?$AAo?$AAn?$AAt?$AAr?$AAo?$AAl?$AAl?$AAe?$AAr?$AA?3?$AA?3?$AAI?$AAs?$AAS?$AAe?$AAr@ 00534408     DiscImport.obj
 0002:00004498       ??_C@_1HE@KNIC@?$AAC?$AAD?$AAB?$AAC?$AAo?$AAn?$AAt?$AAr?$AAo?$AAl?$AAl?$AAe?$AAr?$AA?3?$AA?3?$AAD?$AAe?$AAl?$AAe?$AAt@ 00534498     DiscImport.obj
 0002:00004524       ??_C@_1GA@BKA@?$AAC?$AAD?$AAi?$AAr?$AAH?$AAa?$AAn?$AAd?$AAl?$AAe?$AAr?$AA?3?$AA?3?$AAD?$AAe?$AAl?$AAe?$AAt?$AAe?$AAD@ 00534524     DiscImport.obj
 0002:00004598       ??_C@_1HE@PIJL@?$AAC?$AAD?$AAB?$AAC?$AAo?$AAn?$AAt?$AAr?$AAo?$AAl?$AAl?$AAe?$AAr?$AA?3?$AA?3?$AAI?$AAs?$AAS?$AAt?$AAu@ 00534598     DiscImport.obj
 0002:00004624       ??_C@_1HK@IDMD@?$AAC?$AAD?$AAB?$AAC?$AAo?$AAn?$AAt?$AAr?$AAo?$AAl?$AAl?$AAe?$AAr?$AA?3?$AA?3?$AAD?$AAe?$AAl?$AAe?$AAt@ 00534624     DiscImport.obj
 0002:000046b8       ??_C@_1GE@CMKE@?$AAC?$AAD?$AAi?$AAr?$AAH?$AAa?$AAn?$AAd?$AAl?$AAe?$AAr?$AA?3?$AA?3?$AAD?$AAe?$AAl?$AAe?$AAt?$AAe?$AAD@ 005346b8     DiscImport.obj
 0002:00004730       ??_C@_1HM@MCIE@?$AAC?$AAD?$AAB?$AAC?$AAo?$AAn?$AAt?$AAr?$AAo?$AAl?$AAl?$AAe?$AAr?$AA?3?$AA?3?$AAI?$AAs?$AAP?$AAa?$AAt@ 00534730     DiscImport.obj
 0002:000047c4       ??_C@_1IC@DCGH@?$AAC?$AAD?$AAB?$AAC?$AAo?$AAn?$AAt?$AAr?$AAo?$AAl?$AAl?$AAe?$AAr?$AA?3?$AA?3?$AAD?$AAe?$AAl?$AAe?$AAt@ 005347c4     DiscImport.obj
 0002:00004860       ??_C@_0DH@LELB@E?3?2DX0806?2N?5Series?2PrintingArchi@ 00534860     FCPartner.obj
 0002:000048a8       ??_7CFCPartner@@6B@        005348a8     FCPartner.obj
 0002:000048bc       ??_C@_0BA@HFKB@SetConnection?$CI?$CJ?$AA@ 005348bc     FCPartner.obj
 0002:000048d0       ??_C@_0BG@HBGN@StartUpFilmComposer?$CI?$CJ?$AA@ 005348d0     FCPartner.obj
 0002:000048ec       ??_C@_0CK@HHPG@CFCPartner?5ShutDownFilmComposer?$CI@ 005348ec     FCPartner.obj
 0002:00004920       ??_C@_0CJ@HFAE@CFCPartner?5ShutDownFilmComposer?$CI@ 00534920     FCPartner.obj
 0002:00004954       ??_C@_0CD@PFKN@CFCPartner?5Disconnection?$CI?$CJ?5succe@ 00534954     FCPartner.obj
 0002:00004980       ??_C@_0CC@COHD@CFCPartner?5Disconnection?$CI?$CJ?5faile@ 00534980     FCPartner.obj
 0002:000049a8       ??_C@_0CG@IACG@TerminateThread?$CIm_FCMonitorHandl@ 005349a8     FCPartner.obj
 0002:000049d8       ??_C@_0ED@IIB@Filmcoposer?5proc?5Created?3?5Create@ 005349d8     FCPartner.obj
 0002:00004a28       ??_C@_1CC@LMK@?$AAi?$AAR?$AAe?$AAt?$AAr?$AAy?$AAT?$AAi?$AAm?$AAe?$AAs?$AA?5?$AA?$DN?$AA?5?$AA?$CF?$AAd?$AA?$AA@ 00534a28     FCPartner.obj
 0002:00004a50       ??_C@_1CE@GNID@?$AAP?$AAN?$AAM?$AAS?$AA_?$AAF?$AAi?$AAl?$AAm?$AAC?$AAo?$AAm?$AAp?$AAo?$AAs?$AAe?$AAr?$AA?$AA@ 00534a50     FCPartner.obj
 0002:00004a7c       ??_C@_0BC@PMBG@iRetryTimes?5?$DO?5100?$AA@ 00534a7c     FCPartner.obj
 0002:00004a94       ??_C@_0CB@EKLF@?3?3CreateProcess?$CIstrFCFullPath?4?4?4@ 00534a94     FCPartner.obj
 0002:00004abc       ??_C@_0BM@HGEA@TerminateProcess?$CIPQ?$CJ?5failed?$AA@ 00534abc     FCPartner.obj
 0002:00004ae0       ??_C@_0BH@CGOH@OpenProcess?$CIPQ?$CJ?5failed?$AA@ 00534ae0     FCPartner.obj
 0002:00004afc       ??_C@_1CM@FOI@?$AAP?$AAr?$AAi?$AAn?$AAt?$AAQ?$AAu?$AAe?$AAu?$AAe?$AAM?$AAa?$AAn?$AAa?$AAg?$AAe?$AAr?$AA?4?$AAe?$AAx@ 00534afc     FCPartner.obj
 0002:00004b30       ??_C@_0BI@INIP@SendCMDLine?$CIstrCMDLine?$CJ?$AA@ 00534b30     FCPartner.obj
 0002:00004b4c       ??_C@_1O@EHJB@?$AA?9?$AAc?$AAl?$AAo?$AAs?$AAe?$AA?$AA@ 00534b4c     FCPartner.obj
 0002:00004b5c       ??_C@_1CC@KBFD@?$AAF?$AAi?$AAl?$AAm?$AAC?$AAo?$AAm?$AAp?$AAo?$AAs?$AAe?$AAr?$AA?4?$AAe?$AAx?$AAe?$AA?$AA@ 00534b5c     FCPartner.obj
 0002:00004b84       ??_C@_0EI@MOHP@m_PQSink?4SetConnection?$CICLSID_Pri@ 00534b84     FCPartner.obj
 0002:00004bdc       ??_C@_0HA@EJJL@CoCreateInstance?$CICLSID_PrintQueu@ 00534bdc     FCPartner.obj
 0002:00004c64       ??_C@_15ODI@?$AA?9?$AAf?$AA?$AA@ 00534c64     FCPartner.obj
 0002:00004c6c       ??_C@_1BI@DBAG@?$AA?9?$AAa?$AAu?$AAt?$AAo?$AAr?$AAe?$AAm?$AAo?$AAv?$AAe?$AA?$AA@ 00534c6c     FCPartner.obj
 0002:00004c88       ??_C@_0CK@JIGK@?3?3WinExec?$CIszCMDLineBuffer?0?5SW_SH@ 00534c88     FCPartner.obj
 0002:00004cbc       ??_C@_0CJ@IIOE@?3?3WinExec?$CIszCMDLineBuffer?0?5SW_SH@ 00534cbc     FCPartner.obj
 0002:00004cf0       ??_C@_19OHPA@?$AA?9?$AAc?$AAo?$AAl?$AA?$AA@ 00534cf0     FCPartner.obj
 0002:00004cfc       ??_C@_19GHNL@?$AA?9?$AAr?$AAo?$AAw?$AA?$AA@ 00534cfc     FCPartner.obj
 0002:00004d08       ??_C@_17HJIL@?$AA?5?$AA?$CF?$AAd?$AA?$AA@ 00534d08     FCPartner.obj
 0002:00004d14       ??_C@_19MAMM@?$AA?5?$AA?$CF?$AAd?$AA?5?$AA?$AA@ 00534d14     FCPartner.obj
 0002:00004d20       ??_C@_1EC@BNDL@?$AAP?$AAr?$AAi?$AAn?$AAt?$AA?5?$AAQ?$AAu?$AAe?$AAu?$AAe?$AA?5?$AAs?$AAt?$AAa?$AAt?$AAe?$AA?5?$AAc?$AAh@ 00534d20     FCPartner.obj
 0002:00004d70       ??_C@_1CK@FGNL@?$AAu?$AAn?$AAk?$AAn?$AAo?$AAw?$AA?5?$AAs?$AAt?$AAa?$AAt?$AAu?$AAs?$AA?5?$AAc?$AAh?$AAa?$AAn?$AAg?$AAe@ 00534d70     FCPartner.obj
 0002:00004da4       ??_C@_1EI@MLPG@?$AAS?$AAT?$AAA?$AAT?$AAU?$AAS?$AA_?$AAC?$AAH?$AAA?$AAN?$AAG?$AAE?$AA_?$AAJ?$AAO?$AAB?$AA_?$AAS?$AAT@ 00534da4     FCPartner.obj
 0002:00004dfc       ??_C@_1EA@PFPP@?$AAS?$AAT?$AAA?$AAT?$AAU?$AAS?$AA_?$AAC?$AAH?$AAA?$AAN?$AAG?$AAE?$AA_?$AAJ?$AAO?$AAB?$AA_?$AAS?$AAT@ 00534dfc     FCPartner.obj
 0002:00004e48       ??_C@_1DG@DGHJ@?$AAS?$AAT?$AAA?$AAT?$AAU?$AAS?$AA_?$AAC?$AAH?$AAA?$AAN?$AAG?$AAE?$AA_?$AAJ?$AAO?$AAB?$AA_?$AAM?$AAO@ 00534e48     FCPartner.obj
 0002:00004e88       ??_C@_1DC@GEGE@?$AAS?$AAT?$AAA?$AAT?$AAU?$AAS?$AA_?$AAC?$AAH?$AAA?$AAN?$AAG?$AAE?$AA_?$AAJ?$AAO?$AAB?$AA_?$AAM?$AAO@ 00534e88     FCPartner.obj
 0002:00004ec4       ??_C@_1DG@PENL@?$AAS?$AAT?$AAA?$AAT?$AAU?$AAS?$AA_?$AAC?$AAH?$AAA?$AAN?$AAG?$AAE?$AA_?$AAJ?$AAO?$AAB?$AA_?$AAM?$AAO@ 00534ec4     FCPartner.obj
 0002:00004f04       ??_C@_1DI@LMHJ@?$AAS?$AAT?$AAA?$AAT?$AAU?$AAS?$AA_?$AAC?$AAH?$AAA?$AAN?$AAG?$AAE?$AA_?$AAJ?$AAO?$AAB?$AA_?$AAR?$AAE@ 00534f04     FCPartner.obj
 0002:00004f48       ??_C@_1DC@EMGB@?$AAS?$AAT?$AAA?$AAT?$AAU?$AAS?$AA_?$AAC?$AAH?$AAA?$AAN?$AAG?$AAE?$AA_?$AAJ?$AAO?$AAB?$AA_?$AAR?$AAE@ 00534f48     FCPartner.obj
 0002:00004f84       ??_C@_1DO@MBFL@?$AAS?$AAT?$AAA?$AAT?$AAU?$AAS?$AA_?$AAC?$AAH?$AAA?$AAN?$AAG?$AAE?$AA_?$AAO?$AAN?$AAE?$AAF?$AAI?$AAL@ 00534f84     FCPartner.obj
 0002:00004fd0       ??_C@_1DM@FGCA@?$AAS?$AAT?$AAA?$AAT?$AAU?$AAS?$AA_?$AAC?$AAH?$AAA?$AAN?$AAG?$AAE?$AA_?$AAF?$AAA?$AAI?$AAL?$AAU?$AAR@ 00534fd0     FCPartner.obj
 0002:00005018       ??_C@_1EC@FDMD@?$AAS?$AAT?$AAA?$AAT?$AAU?$AAS?$AA_?$AAC?$AAH?$AAA?$AAN?$AAG?$AAE?$AA_?$AAP?$AAR?$AAI?$AAN?$AAT?$AAI@ 00535018     FCPartner.obj
 0002:00005068       ??_C@_1EC@MMFG@?$AAS?$AAT?$AAA?$AAT?$AAU?$AAS?$AA_?$AAC?$AAH?$AAA?$AAN?$AAG?$AAE?$AA_?$AAP?$AAR?$AAI?$AAN?$AAT?$AAI@ 00535068     FCPartner.obj
 0002:000050b8       ??_C@_1EE@LD@?$AAS?$AAT?$AAA?$AAT?$AAU?$AAS?$AA_?$AAC?$AAH?$AAA?$AAN?$AAG?$AAE?$AA_?$AAP?$AAR?$AAI?$AAN?$AAT?$AAI@ 005350b8     FCPartner.obj
 0002:0000510c       ??_C@_1DO@FEKC@?$AAS?$AAT?$AAA?$AAT?$AAU?$AAS?$AA_?$AAC?$AAH?$AAA?$AAN?$AAG?$AAE?$AA_?$AAR?$AAE?$AAA?$AAD?$AAY?$AA_@ 0053510c     FCPartner.obj
 0002:00005158       ??_C@_1DI@CHMG@?$AAm?$AA_?$AAi?$AAA?$AAc?$AAt?$AAi?$AAv?$AAe?$AAP?$AAr?$AAi?$AAn?$AAt?$AAJ?$AAo?$AAb?$AAC?$AAo?$AAu@ 00535158     FCPartner.obj
 0002:0000519c       ??_C@_1DM@LFCK@?$AAS?$AAT?$AAA?$AAT?$AAU?$AAS?$AA_?$AAC?$AAH?$AAA?$AAN?$AAG?$AAE?$AA_?$AAS?$AAU?$AAS?$AAP?$AAE?$AAN@ 0053519c     FCPartner.obj
 0002:000051e4       ??_C@_1CM@HBBF@?$AAS?$AAT?$AAA?$AAT?$AAU?$AAS?$AA_?$AAC?$AAH?$AAA?$AAN?$AAG?$AAE?$AA_?$AAN?$AAE?$AAW?$AA_?$AAJ?$AAO@ 005351e4     FCPartner.obj
 0002:00005218       ??_C@_1BA@FBOI@?$AA?2?$AAd?$AAr?$AAa?$AAg?$AAo?$AAn?$AA?$AA@ 00535218     FCPartner.obj
 0002:00005230       ??_7CFilePicker@@6B@       00535230     FilePicker.obj
 0002:0000523c       ??_7CFireMsgQueue@@6B@     0053523c     FireMsgQueue.obj
 0002:00005248       _IID_IRegistrar            00535248     FireMsgQueueMng.obj
 0002:00005260       _CLSID_Registrar           00535260     FireMsgQueueMng.obj
 0002:00005274       ??_C@_0DN@IODL@E?3?2DX0806?2N?5Series?2PrintingArchi@ 00535274     FireMsgQueueMng.obj
 0002:000052c4       ??_7CFireMsgQueueMng@@6B@  005352c4     FireMsgQueueMng.obj
 0002:000052cc       ??_C@_0DJ@PHHB@ERROR?3?5CFireMsgQueueMng?5CreateTh@ 005352cc     FireMsgQueueMng.obj
 0002:00005310       ??_C@_0EE@DMFO@failed?5to?5TerminateThread?3?5Handl@ 00535310     FireMsgQueueMng.obj
 0002:00005364       ??_C@_0EC@CFOJ@TerminateThread?3?5HandleMsgThread@ 00535364     FireMsgQueueMng.obj
 0002:000053b4       ??_C@_1DM@BMHL@?$AAU?$AAn?$AAH?$AAa?$AAn?$AAd?$AAl?$AAe?$AAd?$AA?5?$AAm?$AAs?$AAg?$AA?0?$AA?5?$AAu?$AAi?$AAM?$AAe?$AAs@ 005353b4     FireMsgQueueMng.obj
 0002:000053fc       ??_C@_0CE@NFAN@m_pPA?5Fire_ReportUITransferChang@ 005353fc     FireMsgQueueMng.obj
 0002:00005428       ??_C@_0CA@HCKI@m_pPA?9?$DOHandleBackGroundJobAcq?$CI?$CJ?$AA@ 00535428     FireMsgQueueMng.obj
 0002:00005450       ??_C@_0BF@GIJF@SubModule?5para?5error?$AA@ 00535450     FireMsgQueueMng.obj
 0002:0000546c       ??_C@_0CM@HAGL@pIPATransferEvent?9?$DOReportUITrans@ 0053546c     FireMsgQueueMng.obj
 0002:000054a0       ??_C@_0CE@MFNO@enter?5Fire_ReportUITransferChang@ 005354a0     FireMsgQueueMng.obj
 0002:000054cc       ??_C@_0EA@CIMG@e?3?2dx0806?2n?5series?2printingarchi@ 005354cc     FireMsgQueueMng.obj
 0002:0000551c       ??_7CIDPathGen@@6B@        0053551c     IDPathGen.obj
 0002:00005524       ??_C@_1EC@GNPE@?$AA?$CF?$AA0?$AA4?$AAd?$AA?$CF?$AA0?$AA2?$AAd?$AA?$CF?$AA0?$AA2?$AAd?$AA?$CF?$AA0?$AA2?$AAd?$AA?$CF?$AA0?$AA2?$AAd@ 00535524     IDPathGen.obj
 0002:00005574       ??_C@_1EG@BLIK@?$AA?2?$AAP?$AA?$CF?$AA0?$AA4?$AAd?$AA?$CF?$AA0?$AA2?$AAd?$AA?$CF?$AA0?$AA2?$AAd?$AA?$CF?$AA0?$AA2?$AAd?$AA?$CF?$AA0@ 00535574     IDPathGen.obj
 0002:000055c8       ??_C@_1EK@FHJL@?$AA?$CF?$AAs?$AA?2?$AAS?$AA?$CF?$AA0?$AA4?$AAd?$AA?$CF?$AA0?$AA2?$AAd?$AA?$CF?$AA0?$AA2?$AAd?$AA?$CF?$AA0?$AA2?$AAd@ 005355c8     IDPathGen.obj
 0002:00005620       ??_C@_1EI@NHBM@?$AA?$CF?$AAs?$AA?2?$AA?$CF?$AA0?$AA4?$AAd?$AA?$CF?$AA0?$AA2?$AAd?$AA?$CF?$AA0?$AA2?$AAd?$AA?$CF?$AA0?$AA2?$AAd?$AA?$CF@ 00535620     IDPathGen.obj
 0002:00005678       ??_C@_1BG@NOKI@?$AA?$CF?$AAs?$AA?2?$AAI?$AA?$CF?$AAs?$AA?4?$AAd?$AAc?$AAm?$AA?$AA@ 00535678     IDPathGen.obj
 0002:00005694       ??_C@_1BO@MNF@?$AA?$CF?$AAs?$AA?2?$AAI?$AA?$CF?$AAs?$AA_?$AAp?$AAr?$AAo?$AA?4?$AAd?$AAc?$AAm?$AA?$AA@ 00535694     IDPathGen.obj
 0002:000056bc       ??_7CIniOpt@@6B@           005356bc     IniOpt.obj
 0002:000056c8       ??_7CISController@@6B@     005356c8     ISController.obj
 0002:000056d0       ??_C@_0CL@JAEA@ERROR?3?5CoCreateInstance?5m_pISDis@ 005356d0     ISController.obj
 0002:00005704       ??_C@_0DK@NKJJ@E?3?2DX0806?2N?5Series?2PrintingArchi@ 00535704     ISController.obj
 0002:0000574c       ??_C@_0CE@IJOE@m_pISFSDisk?9?$DOGetDiskCapacity?$CIplN@ 0053574c     ISController.obj
 0002:00005778       ??_C@_0DI@BOMI@E?3?2DX0806?2N?5Series?2PrintingArchi@ 00535778     JobHandler.obj
 0002:000057c0       ??_7CJobHandler@@6BNSubject@@@ 005357c0     JobHandler.obj
 0002:000057d4       ??_7CJobHandler@@6BNObserver@@@ 005357d4     JobHandler.obj
 0002:000057e0       ??_C@_0BP@MKEM@create?5PrintJobQueueThreadProc?$AA@ 005357e0     JobHandler.obj
 0002:00005808       ??_C@_0CG@DKCB@create?5PrintJobQueueThreadProc?5f@ 00535808     JobHandler.obj
 0002:00005838       ??_C@_0CB@GBPB@m_JobQueue?4ClearQueque?$CI?$CJ?5succeed@ 00535838     JobHandler.obj
 0002:00005860       ??_C@_0CA@HCLM@m_JobQueue?4ClearQueque?$CI?$CJ?5failed?$AA@ 00535860     JobHandler.obj
 0002:00005888       ??_C@_0CJ@GENB@Terminate?5m_hJobQueueHandleThrea@ 00535888     JobHandler.obj
 0002:000058bc       ??_C@_0EI@CPHO@CDiscImport?3?3GetInstance?$CI?$CJ?9?$DOCanc@ 005358bc     JobHandler.obj
 0002:00005914       ??_C@_0CM@HPBA@m_hJobQueueHandleThread?5thread?5a@ 00535914     JobHandler.obj
 0002:00005948       ??_C@_1EI@HHIH@?$AAU?$AAn?$AAe?$AAx?$AAp?$AAe?$AAc?$AAt?$AAe?$AAd?$AA?5?$AAJ?$AAo?$AAb?$AA?5?$AAt?$AAy?$AAp?$AAe?$AA?0@ 00535948     JobHandler.obj
 0002:000059a0       ??_C@_0EE@GCGJ@CDiscImport?3?3GetInstance?$CI?$CJ?9?$DOHand@ 005359a0     JobHandler.obj
 0002:000059f4       ??_C@_0EC@ONGD@CTransfer?3?3GetInstance?$CI?$CJ?9?$DOHandle@ 005359f4     JobHandler.obj
 0002:00005a44       ??_C@_0EA@DCKM@CBurner?3?3GetInstance?$CI?$CJ?9?$DOHandleJo@ 00535a44     JobHandler.obj
 0002:00005a90       ??_C@_1GO@BAHG@?$AAG?$AAo?$AAt?$AA?5?$AAa?$AA?5?$AAs?$AAu?$AAb?$AAm?$AAi?$AAt?$AAt?$AAe?$AAd?$AA?5?$AAj?$AAo?$AAb?$AA?5@ 00535a90     JobHandler.obj
 0002:00005b14       ??_C@_0EJ@GHKB@m_pCurrentJob?5?$DN?5m_JobQueue?4GetAS@ 00535b14     JobHandler.obj
 0002:00005b6c       ??_C@_0FJ@HMFC@HandlePrintJobQueue?5will?5exit?5fo@ 00535b6c     JobHandler.obj
 0002:00005bd8       ??_C@_0BJ@KPAA@m_JobQueue?4PushJob?$CIpJob?$CJ?$AA@ 00535bd8     JobHandler.obj
 0002:00005bf8       ??_C@_0CL@CFCF@m_JobQueue?4GetJobList?$CIppJobInfoL@ 00535bf8     JobHandler.obj
 0002:00005c2c       ??_C@_0FB@BDLP@Can?8t?5Cancel?5the?5Burn?5Job?5since?5@ 00535c2c     JobHandler.obj
 0002:00005c90       ??_C@_0DJ@CDBH@Set?5the?5UnCurrent?5Job?5State?5to?5b@ 00535c90     JobHandler.obj
 0002:00005cd4       ??_C@_0DP@MHJP@CDiscImport?3?3GetInstance?$CI?$CJ?9?$DOCanc@ 00535cd4     JobHandler.obj
 0002:00005d20       ??_C@_0CE@HBBP@No?5Job?5found?5with?5specified?5szJo@ 00535d20     JobHandler.obj
 0002:00005d4c       ??_C@_1BO@ECFI@?$AA?$CF?$AA0?$AA2?$AAd?$AA?3?$AA?$CF?$AA0?$AA2?$AAd?$AA?3?$AA?$CF?$AA0?$AA2?$AAd?$AA?$AA@ 00535d4c     JobHandler.obj
 0002:00005d74       ??_7CJobQueue@@6B@         00535d74     JobQueue.obj
 0002:00005d7c       ??_C@_0CM@ONNM@CPADataBaseOpt?3?3GetInstance?$CI?$CJ?9?$DOA@ 00535d7c     JobQueue.obj
 0002:00005db0       ??_C@_0DG@HGGM@E?3?2DX0806?2N?5Series?2PrintingArchi@ 00535db0     JobQueue.obj
 0002:00005df0       ??_C@_0CJ@DEIK@No?5Job?5in?5job?5queue?0?5NULL?5?$DN?$DN?5m_p@ 00535df0     JobQueue.obj
 0002:00005e24       ??_C@_0BM@DDNF@No?5Job?5with?5specified?5JobID?$AA@ 00535e24     JobQueue.obj
 0002:00005e48       ??_C@_0O@MGOC@A?5Job?5deleted?$AA@ 00535e48     JobQueue.obj
 0002:00005e58       ??_C@_1GM@JBCA@?$AAC?$AAP?$AAA?$AAD?$AAa?$AAt?$AAa?$AAB?$AAa?$AAs?$AAe?$AAO?$AAp?$AAt?$AA?3?$AA?3?$AAG?$AAe?$AAt?$AAI@ 00535e58     JobQueue.obj
 0002:00005edc       ??_C@_0CP@LHCM@Can?8t?5delete?5Job?5since?5it?8s?5stat@ 00535edc     JobQueue.obj
 0002:00005f14       ??_C@_0CP@HHLM@Can?8t?5delete?5Job?5since?5it?8s?5stat@ 00535f14     JobQueue.obj
 0002:00005f4c       ??_C@_1BE@CJDC@?$AAE?$AAx?$AAe?$AAc?$AAu?$AAt?$AAi?$AAn?$AAg?$AA?$AA@ 00535f4c     JobQueue.obj
 0002:00005f64       ??_C@_1BE@CACM@?$AAS?$AAu?$AAb?$AAm?$AAi?$AAt?$AAt?$AAe?$AAd?$AA?$AA@ 00535f64     JobQueue.obj
 0002:00005f7c       ??_C@_1CE@BKND@?$AA?$CF?$AAs?$AA?9?$AA?$CF?$AAs?$AA?9?$AA?$CF?$AAs?$AA?5?$AA?$CF?$AAs?$AA?3?$AA?$CF?$AAs?$AA?3?$AA?$CF?$AAs?$AA?$AA@ 00535f7c     JobQueue.obj
 0002:00005fa8       ??_C@_1BK@JAIJ@?$AAS?$AAe?$AAn?$AAd?$AA?$CI?$AAm?$AAa?$AAn?$AAu?$AAa?$AAl?$AA?$CJ?$AA?$AA@ 00535fa8     JobQueue.obj
 0002:00005fc8       ??_C@_1BG@EEKB@?$AAS?$AAe?$AAn?$AAd?$AA?$CI?$AAa?$AAu?$AAt?$AAo?$AA?$CJ?$AA?$AA@ 00535fc8     JobQueue.obj
 0002:00005fe8       ??_7CLanguageIniOpt@@6B@   00535fe8     LanguageIniOpt.obj
 0002:00005ff0       ??_C@_1CC@LLJG@?$AAL?$AAA?$AAN?$AAG?$AAU?$AAA?$AAG?$AAE?$AA_?$AAS?$AAE?$AAT?$AAT?$AAI?$AAN?$AAG?$AA?$AA@ 00535ff0     LanguageIniOpt.obj
 0002:00006018       ??_C@_1DA@GINK@?$AAC?$AAu?$AAr?$AAr?$AAe?$AAn?$AAt?$AAL?$AAa?$AAn?$AAg?$AAu?$AAa?$AAg?$AAe?$AAF?$AAi?$AAl?$AAe?$AAN@ 00536018     LanguageIniOpt.obj
 0002:00006058       ??_7CMPPSIniOpt@@6B@       00536058     MPPSIniOpt.obj
 0002:00006060       ??_C@_1BA@HDG@?$AA?2?$AAC?$AAo?$AAn?$AAf?$AAi?$AAg?$AA?$AA@ 00536060     MPPSIniOpt.obj
 0002:00006074       ??_C@_1BC@EEDG@?$AAM?$AAP?$AAP?$AAS?$AA?4?$AAi?$AAn?$AAi?$AA?$AA@ 00536074     MPPSIniOpt.obj
 0002:0000608c       ??_C@_1BE@CEAN@?$AAC?$AAa?$AAl?$AAl?$AAi?$AAn?$AAg?$AAA?$AAE?$AA?$AA@ 0053608c     MPPSIniOpt.obj
 0002:000060a4       ??_C@_19JNLO@?$AAP?$AAo?$AAr?$AAt?$AA?$AA@ 005360a4     MPPSIniOpt.obj
 0002:000060b0       ??_C@_15MJL@?$AAI?$AAP?$AA?$AA@ 005360b0     MPPSIniOpt.obj
 0002:000060b8       ??_C@_1BC@HFIB@?$AAC?$AAa?$AAl?$AAl?$AAe?$AAd?$AAA?$AAE?$AA?$AA@ 005360b8     MPPSIniOpt.obj
 0002:000060d0       ??_C@_19MEGK@?$AA?$CF?$AAs?$AA?$CF?$AAd?$AA?$AA@ 005360d0     MPPSIniOpt.obj
 0002:000060dc       ??_C@_1BI@BJGF@?$AAM?$AAP?$AAP?$AAS?$AA_?$AAS?$AAe?$AAr?$AAv?$AAe?$AAr?$AA?$AA@ 005360dc     MPPSIniOpt.obj
 0002:000060f8       ??_C@_1O@MEMG@?$AAC?$AAu?$AAr?$AAS?$AAe?$AAl?$AA?$AA@ 005360f8     MPPSIniOpt.obj
 0002:00006108       ??_C@_1CC@BBLI@?$AAM?$AAP?$AAP?$AAS?$AA_?$AAS?$AAe?$AAr?$AAv?$AAe?$AAr?$AA_?$AAI?$AAn?$AAf?$AAo?$AA?$AA@ 00536108     MPPSIniOpt.obj
 0002:00006130       ??_C@_1BI@OKC@?$AAS?$AAe?$AAr?$AAv?$AAe?$AAr?$AAC?$AAo?$AAu?$AAn?$AAt?$AA?$AA@ 00536130     MPPSIniOpt.obj
 0002:0000614c       ??_C@_1M@HHJN@?$AAv?$AAa?$AAl?$AAu?$AAe?$AA?$AA@ 0053614c     MPPSIniOpt.obj
 0002:0000615c       ??_C@_19OAIK@?$AAt?$AAy?$AAp?$AAe?$AA?$AA@ 0053615c     MPPSIniOpt.obj
 0002:00006168       ??_C@_1BA@LNOE@?$AAe?$AAl?$AAe?$AAm?$AAe?$AAn?$AAt?$AA?$AA@ 00536168     MPPSIniOpt.obj
 0002:0000617c       ??_C@_1M@BPCM@?$AAg?$AAr?$AAo?$AAu?$AAp?$AA?$AA@ 0053617c     MPPSIniOpt.obj
 0002:0000618c       ??_C@_1BA@BGEJ@?$AAI?$AAs?$AAC?$AAh?$AAe?$AAc?$AAk?$AA?$AA@ 0053618c     MPPSIniOpt.obj
 0002:000061a0       ??_C@_1BC@ILFI@?$AAS?$AAe?$AAt?$AA_?$AAI?$AAt?$AAe?$AAm?$AA?$AA@ 005361a0     MPPSIniOpt.obj
 0002:000061b8       ??_C@_1CK@OFP@?$AAS?$AAe?$AAt?$AA_?$AAS?$AAe?$AAq?$AAu?$AAe?$AAn?$AAc?$AAe?$AA_?$AAS?$AAu?$AAb?$AAI?$AAt?$AAe?$AAm@ 005361b8     MPPSIniOpt.obj
 0002:000061ec       ??_C@_1CK@FCNN@?$AAM?$AAP?$AAP?$AAS?$AA_?$AAS?$AAe?$AAt?$AA_?$AAI?$AAn?$AAf?$AAo?$AAr?$AAm?$AAa?$AAt?$AAi?$AAo?$AAn@ 005361ec     MPPSIniOpt.obj
 0002:00006220       ??_C@_1BI@KFFL@?$AAC?$AAr?$AAe?$AAa?$AAt?$AAe?$AA_?$AAI?$AAt?$AAe?$AAm?$AA?$AA@ 00536220     MPPSIniOpt.obj
 0002:0000623c       ??_C@_1DA@OMCN@?$AAC?$AAr?$AAe?$AAa?$AAt?$AAe?$AA_?$AAS?$AAe?$AAq?$AAu?$AAe?$AAn?$AAc?$AAe?$AA_?$AAS?$AAu?$AAb?$AAI@ 0053623c     MPPSIniOpt.obj
 0002:00006278       ??_C@_1BE@DKIP@?$AAI?$AAt?$AAe?$AAm?$AAC?$AAo?$AAu?$AAn?$AAt?$AA?$AA@ 00536278     MPPSIniOpt.obj
 0002:00006290       ??_C@_1DA@LEDJ@?$AAM?$AAP?$AAP?$AAS?$AA_?$AAC?$AAr?$AAe?$AAa?$AAt?$AAe?$AA_?$AAI?$AAn?$AAf?$AAo?$AAr?$AAm?$AAa?$AAt@ 00536290     MPPSIniOpt.obj
 0002:000062cc       ??_C@_1CG@BKEP@?$AAS?$AAe?$AAq?$AAu?$AAe?$AAn?$AAc?$AAe?$AA_?$AAI?$AAt?$AAe?$AAm?$AAC?$AAo?$AAu?$AAn?$AAt?$AA?$AA@ 005362cc     MPPSIniOpt.obj
 0002:000062fc       ??_C@_1BA@ELIM@?$AAT?$AAi?$AAm?$AAe?$AAO?$AAu?$AAt?$AA?$AA@ 005362fc     MPPSIniOpt.obj
 0002:00006310       ??_C@_15CFAK@?$AA2?$AA0?$AA?$AA@ 00536310     MPPSIniOpt.obj
 0002:00006318       _IID_IGeneralInterface     00536318     PA.obj
 0002:00006328       _IID_IGeneralEvent         00536328     PA.obj
 0002:00006338       _IID_IGeneralSys           00536338     PA.obj
 0002:00006348       _IID_IPing                 00536348     PA.obj
 0002:00006358       _IID_IUserGuidanceEvent    00536358     PA.obj
 0002:00006368       _IID_IUserWorkingMode      00536368     PA.obj
 0002:00006378       _IID_IPAGeneral            00536378     PA.obj
 0002:00006388       _IID_IPAGeneralEvent       00536388     PA.obj
 0002:00006398       _IID_IPAPrint              00536398     PA.obj
 0002:000063a8       _IID_IPAPrintEvent         005363a8     PA.obj
 0002:000063b8       _IID_IPABurn               005363b8     PA.obj
 0002:000063c8       _IID_IPABurnEvent          005363c8     PA.obj
 0002:000063d8       _IID_IPATransfer           005363d8     PA.obj
 0002:000063e8       _IID_IPATransferEvent      005363e8     PA.obj
 0002:000063f8       _IID_IPADiscImport         005363f8     PA.obj
 0002:00006408       _IID_IPADiscImportEvent    00536408     PA.obj
 0002:00006418       _IID_IPAWLMPPS             00536418     PA.obj
 0002:00006428       _IID_IPAWLMPPSEvent        00536428     PA.obj
 0002:00006438       _LIBID_PALib               00536438     PA.obj
 0002:00006448       _CLSID_PA                  00536448     PA.obj
 0002:00006498       ??_C@_1BE@OAKD@?$AAR?$AAe?$AAg?$AAS?$AAe?$AAr?$AAv?$AAe?$AAr?$AA?$AA@ 00536498     PA.obj
 0002:000064b0       ??_C@_1BI@HOLH@?$AAU?$AAn?$AAr?$AAe?$AAg?$AAS?$AAe?$AAr?$AAv?$AAe?$AAr?$AA?$AA@ 005364b0     PA.obj
 0002:000064cc       ??_C@_15EJDB@?$AA?9?$AA?1?$AA?$AA@ 005364cc     PA.obj
 0002:000064d4       ??_C@_1BC@BJHN@?$AAR?$AAE?$AAG?$AAI?$AAS?$AAT?$AAR?$AAY?$AA?$AA@ 005364d4     PA.obj
 0002:000064ec       ??_C@_1O@HOAP@?$AAM?$AAo?$AAd?$AAu?$AAl?$AAe?$AA?$AA@ 005364ec     PA.obj
 0002:000064fc       ??_C@_0BC@FJNM@UnRegisterTypeLib?$AA@ 005364fc     PA.obj
 0002:00006514       ??_C@_1BK@CNNE@?$AAo?$AAl?$AAe?$AAa?$AAu?$AAt?$AA3?$AA2?$AA?4?$AAd?$AAl?$AAl?$AA?$AA@ 00536514     PA.obj
 0002:00006534       ??_C@_19BNDH@?$AA?4?$AAt?$AAl?$AAb?$AA?$AA@ 00536534     PA.obj
 0002:00006544       ??_7?$CComObjectNoLock@V?$CComClassFactorySingleton@VCPA@@@ATL@@@ATL@@6B@ 00536544     PA.obj
 0002:00006560       ??_7?$CComClassFactorySingleton@VCPA@@@ATL@@6B@ 00536560     PA.obj
 0002:0000657c       ??_7?$CComObjectGlobal@VCPA@@@ATL@@6BNObserver@@@ 0053657c     PA.obj
 0002:00006588       ??_7?$CComObjectGlobal@VCPA@@@ATL@@6B?$IConnectionPointContainerImpl@VCPA@@@1@@ 00536588     PA.obj
 0002:000065a4       ??_7?$CComObjectGlobal@VCPA@@@ATL@@6B?$CProxyIUserGuidanceEvent@VCPA@@@@@ 005365a4     PA.obj
 0002:000065d0       ??_7?$CComObjectGlobal@VCPA@@@ATL@@6B?$CProxyIPAWLMPPSEvent@VCPA@@@@@ 005365d0     PA.obj
 0002:000065fc       ??_7?$CComObjectGlobal@VCPA@@@ATL@@6B?$CProxyIPADiscImportEvent@VCPA@@@@@ 005365fc     PA.obj
 0002:00006628       ??_7?$CComObjectGlobal@VCPA@@@ATL@@6B?$CProxyIPATransferEvent@VCPA@@@@@ 00536628     PA.obj
 0002:00006654       ??_7?$CComObjectGlobal@VCPA@@@ATL@@6B?$CProxyIPAPrintEvent@VCPA@@@@@ 00536654     PA.obj
 0002:00006680       ??_7?$CComObjectGlobal@VCPA@@@ATL@@6B?$CProxyIPAGeneralEvent@VCPA@@@@@ 00536680     PA.obj
 0002:000066ac       ??_7?$CComObjectGlobal@VCPA@@@ATL@@6B?$CProxyIGeneralEvent@VCPA@@@@@ 005366ac     PA.obj
 0002:000066d8       ??_7?$CComObjectGlobal@VCPA@@@ATL@@6B?$CProxyIPABurnEvent@VCPA@@@@@ 005366d8     PA.obj
 0002:00006704       ??_7?$CComObjectGlobal@VCPA@@@ATL@@6BIPAWLMPPS@@@ 00536704     PA.obj
 0002:0000677c       ??_7?$CComObjectGlobal@VCPA@@@ATL@@6BIPADiscImport@@@ 0053677c     PA.obj
 0002:000067b8       ??_7?$CComObjectGlobal@VCPA@@@ATL@@6BIPATransfer@@@ 005367b8     PA.obj
 0002:00006818       ??_7?$CComObjectGlobal@VCPA@@@ATL@@6BIPABurn@@@ 00536818     PA.obj
 0002:00006864       ??_7?$CComObjectGlobal@VCPA@@@ATL@@6BIPAPrint@@@ 00536864     PA.obj
 0002:00006894       ??_7?$CComObjectGlobal@VCPA@@@ATL@@6BIPAGeneral@@@ 00536894     PA.obj
 0002:000068f4       ??_7?$CComObjectGlobal@VCPA@@@ATL@@6BIUserWorkingMode@@@ 005368f4     PA.obj
 0002:00006910       ??_7?$CComObjectGlobal@VCPA@@@ATL@@6BIPing@@@ 00536910     PA.obj
 0002:00006928       ??_7?$CComObjectGlobal@VCPA@@@ATL@@6BIGeneralSys@@@ 00536928     PA.obj
 0002:00006944       ??_7?$CComObjectGlobal@VCPA@@@ATL@@6BIGeneralInterface@@@ 00536944     PA.obj
 0002:00006970       ??_7?$CComObject@V?$CComEnum@UIEnumConnectionPoints@@$1?IID_IEnumConnectionPoints@@3U_GUID@@BPAUIConnectionPoint@@V?$_CopyInterface@UIConnectionPoint@@@ATL@@VCComMultiThreadModel@6@@ATL@@@ATL@@6B@ 00536970     PA.obj
 0002:00006998       ?_entries@?1??_GetEntries@CPA@@SGPBU_ATL_INTMAP_ENTRY@ATL@@XZ@4QBU34@B 00536998     PA.obj
 0002:00006a48       ??_7CComClassFactory@ATL@@6B@ 00536a48     PA.obj
 0002:00006a64       ??_7?$CComObject@VCPA@@@ATL@@6BNObserver@@@ 00536a64     PA.obj
 0002:00006a70       ??_7?$CComObject@VCPA@@@ATL@@6B?$IConnectionPointContainerImpl@VCPA@@@1@@ 00536a70     PA.obj
 0002:00006a8c       ??_7?$CComObject@VCPA@@@ATL@@6B?$CProxyIUserGuidanceEvent@VCPA@@@@@ 00536a8c     PA.obj
 0002:00006ab8       ??_7?$CComObject@VCPA@@@ATL@@6B?$CProxyIPAWLMPPSEvent@VCPA@@@@@ 00536ab8     PA.obj
 0002:00006ae4       ??_7?$CComObject@VCPA@@@ATL@@6B?$CProxyIPADiscImportEvent@VCPA@@@@@ 00536ae4     PA.obj
 0002:00006b10       ??_7?$CComObject@VCPA@@@ATL@@6B?$CProxyIPATransferEvent@VCPA@@@@@ 00536b10     PA.obj
 0002:00006b3c       ??_7?$CComObject@VCPA@@@ATL@@6B?$CProxyIPAPrintEvent@VCPA@@@@@ 00536b3c     PA.obj
 0002:00006b68       ??_7?$CComObject@VCPA@@@ATL@@6B?$CProxyIPAGeneralEvent@VCPA@@@@@ 00536b68     PA.obj
 0002:00006b94       ??_7?$CComObject@VCPA@@@ATL@@6B?$CProxyIGeneralEvent@VCPA@@@@@ 00536b94     PA.obj
 0002:00006bc0       ??_7?$CComObject@VCPA@@@ATL@@6B?$CProxyIPABurnEvent@VCPA@@@@@ 00536bc0     PA.obj
 0002:00006bec       ??_7?$CComObject@VCPA@@@ATL@@6BIPAWLMPPS@@@ 00536bec     PA.obj
 0002:00006c64       ??_7?$CComObject@VCPA@@@ATL@@6BIPADiscImport@@@ 00536c64     PA.obj
 0002:00006ca0       ??_7?$CComObject@VCPA@@@ATL@@6BIPATransfer@@@ 00536ca0     PA.obj
 0002:00006d00       ??_7?$CComObject@VCPA@@@ATL@@6BIPABurn@@@ 00536d00     PA.obj
 0002:00006d4c       ??_7?$CComObject@VCPA@@@ATL@@6BIPAPrint@@@ 00536d4c     PA.obj
 0002:00006d7c       ??_7?$CComObject@VCPA@@@ATL@@6BIPAGeneral@@@ 00536d7c     PA.obj
 0002:00006ddc       ??_7?$CComObject@VCPA@@@ATL@@6BIUserWorkingMode@@@ 00536ddc     PA.obj
 0002:00006df8       ??_7?$CComObject@VCPA@@@ATL@@6BIPing@@@ 00536df8     PA.obj
 0002:00006e10       ??_7?$CComObject@VCPA@@@ATL@@6BIGeneralSys@@@ 00536e10     PA.obj
 0002:00006e2c       ??_7?$CComObject@VCPA@@@ATL@@6BIGeneralInterface@@@ 00536e2c     PA.obj
 0002:00006e58       ?_entries@?1??_GetEntries@?$CComEnum@UIEnumConnectionPoints@@$1?IID_IEnumConnectionPoints@@3U_GUID@@BPAUIConnectionPoint@@V?$_CopyInterface@UIConnectionPoint@@@ATL@@VCComMultiThreadModel@6@@ATL@@SGPBU_ATL_INTMAP_ENTRY@3@XZ@4QBU43@B 00536e58     PA.obj
 0002:00006e78       ??_7?$CComObject@V?$CComEnum@UIEnumConnections@@$1?IID_IEnumConnections@@3U_GUID@@BUtagCONNECTDATA@@V?$_Copy@UtagCONNECTDATA@@@ATL@@VCComMultiThreadModel@6@@ATL@@@ATL@@6B@ 00536e78     PA.obj
 0002:00006ea0       ?_entries@?1??_GetEntries@?$CComEnum@UIEnumConnections@@$1?IID_IEnumConnections@@3U_GUID@@BUtagCONNECTDATA@@V?$_Copy@UtagCONNECTDATA@@@ATL@@VCComMultiThreadModel@6@@ATL@@SGPBU_ATL_INTMAP_ENTRY@3@XZ@4QBU43@B 00536ea0     PA.obj
 0002:00006ec0       ?_entries@?1??_GetEntries@CComClassFactory@ATL@@SGPBU_ATL_INTMAP_ENTRY@3@XZ@4QBU43@B 00536ec0     PA.obj
 0002:00006edc       ??_C@_1KO@HBEL@?$AAC?$AAC?$AAo?$AAm?$AAC?$AAl?$AAa?$AAs?$AAs?$AAF?$AAa?$AAc?$AAt?$AAo?$AAr?$AAy?$AA?3?$AA?5?$AAa?$AAs@ 00536edc     PA.obj
 0002:00006fac       ??_C@_0DD@HOIN@E?3?2DX0806?2N?5Series?2PrintingArchi@ 00536fac     PAATL.obj
 0002:00006fec       ??_C@_0CA@JMEH@Get?5m_pDiscImportInstance?5error?$AA@ 00536fec     PAATL.obj
 0002:00007014       ??_C@_0BO@BIOC@Get?5m_pTransferInstance?5error?$AA@ 00537014     PAATL.obj
 0002:00007038       ??_C@_0BK@MGIL@Get?5m_pBurnInstance?5error?$AA@ 00537038     PAATL.obj
 0002:00007058       ??_C@_0BL@EMKF@Get?5m_pPrintInstance?5error?$AA@ 00537058     PAATL.obj
 0002:00007078       ??_C@_0BM@NAHI@Get?5m_pWlMppsInstance?5error?$AA@ 00537078     PAATL.obj
 0002:0000709c       ??_C@_0CA@GEKE@Get?5m_pJobHandlerInstance?5error?$AA@ 0053709c     PAATL.obj
 0002:000070c4       ??_C@_0BN@JNAN@Get?5m_pJobHandlerInstance?5OK?$AA@ 005370c4     PAATL.obj
 0002:000070e8       ??_C@_0BL@IDEJ@Get?5m_pUGOptInstance?5error?$AA@ 005370e8     PAATL.obj
 0002:00007108       ??_C@_0BI@KOLL@Get?5m_pUGOptInstance?5OK?$AA@ 00537108     PAATL.obj
 0002:00007124       ??_C@_0BN@EIJI@Get?5m_pPADBOptInstance?5error?$AA@ 00537124     PAATL.obj
 0002:00007148       ??_C@_0BK@LDJH@Get?5m_pPADBOptInstance?5OK?$AA@ 00537148     PAATL.obj
 0002:00007168       ??_C@_0CE@MGOG@Get?5m_pLanguageIniOptInstance?5er@ 00537168     PAATL.obj
 0002:00007194       ??_C@_0CB@OAKM@Get?5m_pLanguageIniOptInstance?5OK@ 00537194     PAATL.obj
 0002:000071bc       ??_C@_0CC@IKCO@Get?5m_pDBControllerInstance?5erro@ 005371bc     PAATL.obj
 0002:000071e4       ??_C@_0BP@KEMJ@Get?5m_pDBControllerInstance?5OK?$AA@ 005371e4     PAATL.obj
 0002:0000720c       ??_C@_0CC@JPEC@Get?5m_pISControllerInstance?5erro@ 0053720c     PAATL.obj
 0002:00007234       ??_C@_0BP@KFDJ@Get?5m_pISControllerInstance?5OK?$AA@ 00537234     PAATL.obj
 0002:0000725c       ??_C@_0CJ@MMIP@pCPA?9?$DOm_pFireMsgInstance?9?$DOInit?$CI?$CJ@ 0053725c     PAATL.obj
 0002:00007290       ??_C@_0CI@MDC@pCPA?9?$DOm_pFireMsgInstance?9?$DOInit?$CI?$CJ@ 00537290     PAATL.obj
 0002:000072c0       ??_C@_0BN@FKCJ@Get?5m_pFireMsgInstance?5error?$AA@ 005372c0     PAATL.obj
 0002:000072e4       ??_C@_0BK@JHMC@Get?5m_pFireMsgInstance?5OK?$AA@ 005372e4     PAATL.obj
 0002:00007308       ??_7?$CProxyIPABurnEvent@VCPA@@@@6B@ 00537308     PAATL.obj
 0002:00007334       ??_7?$CProxyIGeneralEvent@VCPA@@@@6B@ 00537334     PAATL.obj
 0002:00007360       ??_7?$CProxyIPAGeneralEvent@VCPA@@@@6B@ 00537360     PAATL.obj
 0002:0000738c       ??_7?$CProxyIPAPrintEvent@VCPA@@@@6B@ 0053738c     PAATL.obj
 0002:000073b8       ??_7?$CProxyIPATransferEvent@VCPA@@@@6B@ 005373b8     PAATL.obj
 0002:000073e4       ??_7?$CProxyIPADiscImportEvent@VCPA@@@@6B@ 005373e4     PAATL.obj
 0002:00007410       ??_7?$CProxyIPAWLMPPSEvent@VCPA@@@@6B@ 00537410     PAATL.obj
 0002:0000743c       ??_7?$CProxyIUserGuidanceEvent@VCPA@@@@6B@ 0053743c     PAATL.obj
 0002:00007464       ??_C@_0CH@KIKM@m_pDcmPartnerInstance?5pointer?5is@ 00537464     PAATL.obj
 0002:00007494       ??_C@_0CH@LGON@m_pDiscImportInstance?5pointer?5is@ 00537494     PAATL.obj
 0002:000074c4       ??_C@_0CF@KPHN@m_pTransferInstance?5pointer?5is?5n@ 005374c4     PAATL.obj
 0002:000074f0       ??_C@_0CB@KNOJ@m_pBurnInstance?5pointer?5is?5null?$CB@ 005374f0     PAATL.obj
 0002:00007518       ??_C@_0CC@JALN@m_pPrintInstance?5pointer?5is?5null@ 00537518     PAATL.obj
 0002:00007540       ??_C@_0CD@GGPM@m_pWlMppsInstance?5pointer?5is?5nul@ 00537540     PAATL.obj
 0002:0000756c       ??_C@_0CC@KBJJ@m_pUGOptInstance?5pointer?5is?5null@ 0053756c     PAATL.obj
 0002:00007594       ??_C@_0CL@CIDD@m_pLanguageIniOptInstance?5pointe@ 00537594     PAATL.obj
 0002:000075c8       ??_C@_0CJ@FCGN@m_pDBControllerInstance?5pointer?5@ 005375c8     PAATL.obj
 0002:000075fc       ??_C@_0CJ@EOE@m_pISControllerInstance?5pointer?5@ 005375fc     PAATL.obj
 0002:00007630       ??_C@_0CE@HCMA@m_pFireMsgInstance?5pointer?5is?5nu@ 00537630     PAATL.obj
 0002:0000765c       ??_C@_0CE@FDIF@m_pFireMsgInstance?9?$DOUnInit?$CI?$CJ?5fai@ 0053765c     PAATL.obj
 0002:00007688       ??_C@_0CF@PDNA@m_pFireMsgInstance?9?$DOUnInit?$CI?$CJ?5suc@ 00537688     PAATL.obj
 0002:000076b4       ??_C@_1DC@MFHM@?$AAP?$AA?3?$AA?$CF?$AAd?$AA?0?$AAB?$AA?3?$AA?$CF?$AAd?$AA?0?$AAT?$AA?3?$AA?$CF?$AAd?$AA?0?$AAD?$AA?3?$AA?$CF?$AAd?$AA?0@ 005376b4     PAATL.obj
 0002:000076f0       ??_C@_0BK@DHFC@?$CB?$CB?$CBUnhandled?5module?5state?$AA@ 005376f0     PAATL.obj
 0002:00007710       ??_C@_1EG@BALM@?$AAC?$AAa?$AAt?$AAc?$AAh?$AA?5?$AAe?$AAx?$AAc?$AAe?$AAp?$AAt?$AAi?$AAo?$AAn?$AA?5?$AAe?$AAr?$AAr?$AAo@ 00537710     PAATL.obj
 0002:00007764       ??_C@_1CM@IPNM@?$AAE?$AAr?$AAr?$AAo?$AAr?$AA?5?$AAd?$AAe?$AAs?$AAc?$AAr?$AAi?$AAp?$AAt?$AAi?$AAo?$AAn?$AA?3?$AA?5?$AA?$CF@ 00537764     PAATL.obj
 0002:00007798       ??_C@_1CC@OEED@?$AAE?$AAr?$AAr?$AAo?$AAr?$AA?5?$AAs?$AAo?$AAu?$AAr?$AAc?$AAe?$AA?3?$AA?5?$AA?$CF?$AAs?$AA?$AA@ 00537798     PAATL.obj
 0002:000077c0       ??_C@_1CE@JKJO@?$AAE?$AAr?$AAr?$AAo?$AAr?$AA?5?$AAm?$AAe?$AAs?$AAs?$AAa?$AAg?$AAe?$AA?3?$AA?5?$AA?$CF?$AAs?$AA?$AA@ 005377c0     PAATL.obj
 0002:000077ec       ??_C@_1CC@JAOD@?$AAE?$AAr?$AAr?$AAo?$AAr?$AA?5?$AAc?$AAo?$AAd?$AAe?$AA?3?$AA?5?$AA?$CF?$AA0?$AA8?$AAx?$AA?$AA@ 005377ec     PAATL.obj
 0002:00007814       ??_C@_0DI@EIFL@StartUp?$CI?$CJ?5is?5called?0?5however?0?5it@ 00537814     PAATL.obj
 0002:00007858       ??_C@_0CH@OEEG@Create?5Tread?5StartUpThreadProc?5S@ 00537858     PAATL.obj
 0002:00007888       ??_C@_0EF@JKPK@Create?5Thread?5StartUpThreadProc?5@ 00537888     PAATL.obj
 0002:000078dc       ??_C@_0BI@GGEA@ShutDownNotify?$CI?$CJ?5failed?$AA@ 005378dc     PAATL.obj
 0002:000078f8       ??_C@_0BJ@EHOF@ShutDownNotify?$CI?$CJ?5succeed?$AA@ 005378f8     PAATL.obj
 0002:00007918       ??_C@_0FH@FIEB@ShutDown?$CI?$CJ?5be?5called?5when?5m_Work@ 00537918     PAATL.obj
 0002:00007980       ??_C@_0CM@PDJF@pCPA?9?$DOm_pDiscImportInstance?9?$DOIni@ 00537980     PAATL.obj
 0002:000079b4       ??_C@_0CL@BGNF@pCPA?9?$DOm_pDiscImportInstance?9?$DOIni@ 005379b4     PAATL.obj
 0002:000079e8       ??_C@_0CK@MFOP@pCPA?9?$DOm_pTransferInstance?9?$DOInit?$CI@ 005379e8     PAATL.obj
 0002:00007a1c       ??_C@_0CJ@GMPO@pCPA?9?$DOm_pTransferInstance?9?$DOInit?$CI@ 00537a1c     PAATL.obj
 0002:00007a50       ??_C@_0CG@NHOG@pCPA?9?$DOm_pBurnInstance?9?$DOInit?$CI?$CJ?5su@ 00537a50     PAATL.obj
 0002:00007a80       ??_C@_0CF@GFMI@pCPA?9?$DOm_pBurnInstance?9?$DOInit?$CI?$CJ?5fa@ 00537a80     PAATL.obj
 0002:00007aac       ??_C@_0CH@OIIF@pCPA?9?$DOm_pPrintInstance?9?$DOInit?$CI?$CJ?5s@ 00537aac     PAATL.obj
 0002:00007adc       ??_C@_0CG@GAC@pCPA?9?$DOm_pPrintInstance?9?$DOInit?$CI?$CJ?5f@ 00537adc     PAATL.obj
 0002:00007b0c       ??_C@_0CI@DHJD@pCPA?9?$DOm_pWlMppsInstance?9?$DOInit?$CI?$CJ?5@ 00537b0c     PAATL.obj
 0002:00007b3c       ??_C@_0CH@BABK@pCPA?9?$DOm_pWlMppsInstance?9?$DOInit?$CI?$CJ?5@ 00537b3c     PAATL.obj
 0002:00007b6c       ??_C@_0CG@CKAP@m_pJobHandlerInstance?9?$DOInit?$CI?$CJ?5su@ 00537b6c     PAATL.obj
 0002:00007b9c       ??_C@_0CF@IMMP@m_pJobHandlerInstance?9?$DOInit?$CI?$CJ?5fa@ 00537b9c     PAATL.obj
 0002:00007bc8       ??_C@_0BN@OKIM@m_DcmPartner?9?$DOInit?$CI?$CJ?5succeed?$AA@ 00537bc8     PAATL.obj
 0002:00007bec       ??_C@_0BE@JGHO@m_DcmPartner?4Init?$CI?$CJ?$AA@ 00537bec     PAATL.obj
 0002:00007c04       ??_C@_0CB@MMEA@m_pUGOptInstance?9?$DOInit?$CI?$CJ?5succeed@ 00537c04     PAATL.obj
 0002:00007c2c       ??_C@_0BJ@OAGM@m_pUGOptInstance?9?$DOInit?$CI?$CJ?$AA@ 00537c2c     PAATL.obj
 0002:00007c4c       ??_C@_0CD@KOED@m_pPADBOptInstance?9?$DOInit?$CI?$CJ?5succe@ 00537c4c     PAATL.obj
 0002:00007c78       ??_C@_0BL@LCEP@m_pPADBOptInstance?9?$DOInit?$CI?$CJ?$AA@ 00537c78     PAATL.obj
 0002:00007c98       ??_C@_0CP@IGAD@pCPA?9?$DOm_pLanguageIniOptInstance?4@ 00537c98     PAATL.obj
 0002:00007cd0       ??_C@_0CO@IAPL@pCPA?9?$DOm_pLanguageIniOptInstance?4@ 00537cd0     PAATL.obj
 0002:00007d08       ??_C@_0CO@KIEM@pCPA?9?$DOm_pISControllerInstance?9?$DOI@ 00537d08     PAATL.obj
 0002:00007d40       ??_C@_0CN@MPOE@pCPA?9?$DOm_pISControllerInstance?9?$DOI@ 00537d40     PAATL.obj
 0002:00007d78       ??_C@_0CO@CBDK@pCPA?9?$DOm_pDBControllerInstance?9?$DOI@ 00537d78     PAATL.obj
 0002:00007db0       ??_C@_0CN@LJCC@pCPA?9?$DOm_pDBControllerInstance?9?$DOI@ 00537db0     PAATL.obj
 0002:00007de8       ??_C@_1FC@PN@?$AAS?$AAy?$AAs?$AAt?$AAe?$AAm?$AA?5?$AAE?$AAv?$AAe?$AAn?$AAt?$AA?5?$AAD?$AAB?$AA?5?$AAp?$AAr?$AAo?$AAx@ 00537de8     PAATL.obj
 0002:00007e4c       ??_C@_0CD@JAHE@m_pPADBOptInstance?4UnInit?$CI?$CJ?5fail@ 00537e4c     PAATL.obj
 0002:00007e78       ??_C@_0CE@HBD@m_pPADBOptInstance?4UnInit?$CI?$CJ?5succ@ 00537e78     PAATL.obj
 0002:00007ea4       ??_C@_0CK@FIIH@m_pLanguageIniOptInstance?4UnInit@ 00537ea4     PAATL.obj
 0002:00007ed8       ??_C@_0CL@OPNL@m_pLanguageIniOptInstance?4UnInit@ 00537ed8     PAATL.obj
 0002:00007f0c       ??_C@_0CI@IPDA@m_pISControllerInstance?4UnInit?$CI?$CJ@ 00537f0c     PAATL.obj
 0002:00007f3c       ??_C@_0CJ@MDAM@m_pISControllerInstance?4UnInit?$CI?$CJ@ 00537f3c     PAATL.obj
 0002:00007f70       ??_C@_0BP@FLIP@m_DBController?4UnInit?$CI?$CJ?5failed?$AA@ 00537f70     PAATL.obj
 0002:00007f98       ??_C@_0CA@GBNI@m_DBController?4UnInit?$CI?$CJ?5succeed?$AA@ 00537f98     PAATL.obj
 0002:00007fc0       ??_C@_0CB@PCHH@m_pUGOptInstance?4UnInit?$CI?$CJ?5failed@ 00537fc0     PAATL.obj
 0002:00007fe8       ??_C@_0CC@GGHB@m_pUGOptInstance?4UnInit?$CI?$CJ?5succee@ 00537fe8     PAATL.obj
 0002:00008010       ??_C@_0CH@JHKI@m_pDiscImportInstance?9?$DOUnInit?$CI?$CJ?5@ 00538010     PAATL.obj
 0002:00008040       ??_C@_0CI@KABE@m_pDiscImportInstance?9?$DOUnInit?$CI?$CJ?5@ 00538040     PAATL.obj
 0002:00008070       ??_C@_0CF@IODI@m_pTransferInstance?9?$DOUnInit?$CI?$CJ?5fa@ 00538070     PAATL.obj
 0002:0000809c       ??_C@_0CG@BLAN@m_pTransferInstance?9?$DOUnInit?$CI?$CJ?5su@ 0053809c     PAATL.obj
 0002:000080cc       ??_C@_0CB@IMKM@m_pBurnInstance?9?$DOUnInit?$CI?$CJ?5failed@ 005380cc     PAATL.obj
 0002:000080f4       ??_C@_0CC@MHAP@m_pBurnInstance?9?$DOUnInit?$CI?$CJ?5succee@ 005380f4     PAATL.obj
 0002:0000811c       ??_C@_0CH@IDK@m_pJobHandlerInstance?9?$DOUnInit?$CI?$CJ?5@ 0053811c     PAATL.obj
 0002:0000814c       ??_C@_0CI@BDIL@m_pJobHandlerInstance?9?$DOUnInit?$CI?$CJ?5@ 0053814c     PAATL.obj
 0002:0000817c       ??_C@_0CD@EHLJ@m_pWlMppsInstance?9?$DOUnInit?$CI?$CJ?5fail@ 0053817c     PAATL.obj
 0002:000081a8       ??_C@_0CE@MEME@m_pWlMppsInstance?9?$DOUnInit?$CI?$CJ?5succ@ 005381a8     PAATL.obj
 0002:000081d4       ??_C@_0CC@LBPI@m_pPrintInstance?9?$DOUnInit?$CI?$CJ?5faile@ 005381d4     PAATL.obj
 0002:000081fc       ??_C@_0CD@EEDC@m_pPrintInstance?9?$DOUnInit?$CI?$CJ?5succe@ 005381fc     PAATL.obj
 0002:00008228       ??_C@_0EN@DPGI@Interface?5Unaccessable?5since?5CPA@ 00538228     PAATL.obj
 0002:00008284       ??_C@_0EI@OMEI@Print?5SubModule?5interface?5unvali@ 00538284     PAATL.obj
 0002:000082dc       ??_C@_0EH@PFBE@Burn?5SubModule?5interface?5unvalid@ 005382dc     PAATL.obj
 0002:00008334       ??_C@_0EL@NLAG@Transfer?5SubModule?5interface?5unv@ 00538334     PAATL.obj
 0002:00008390       ??_C@_0EN@JFGJ@DiscImport?5SubModule?5interface?5u@ 00538390     PAATL.obj
 0002:000083ec       ??_C@_0EJ@EJNP@WlMpps?5SubModule?5interface?5unval@ 005383ec     PAATL.obj
 0002:00008444       ??_C@_0EA@IIGO@Failed?5to?5access?5interface?5becau@ 00538444     PAATL.obj
 0002:00008490       ??_C@_0CM@LPBO@GetPatientStudySeriesOccupyState@ 00538490     PAATL.obj
 0002:000084c4       ??_C@_0CL@JHDI@m_pJobHandler?9?$DOGetJobList?$CIppJobL@ 005384c4     PAATL.obj
 0002:000084f8       ??_C@_0BL@HIBK@oveJob?$CIstrJobID?0?5bForward?$CJ?$AA@ 005384f8     PAATL.obj
 0002:00008518       ??_C@_0CG@CBJD@m_pJobHandler?9?$DOCancelJobs?$CI?$CGvtrJo@ 00538518     PAATL.obj
 0002:00008548       ??_C@_0CG@PJHE@m_pJobHandler?9?$DODeleteJobs?$CI?$CGvtrJo@ 00538548     PAATL.obj
 0002:00008578       ??_C@_0CC@ILHN@m_pPADBOptInstance?9?$DOGetJobCount?$CI@ 00538578     PAATL.obj
 0002:000085a0       ??_C@_0BO@IDIF@m_pPADBOptInstance?9?$DOGetJobs?$CI?$CJ?$AA@ 005385a0     PAATL.obj
 0002:000085c4       ??_C@_0CM@COED@m_pPADBOptInstance?9?$DOGetHistoryJo@ 005385c4     PAATL.obj
 0002:000085f8       ??_C@_0DD@FHFN@m_pPADBOptInstance?9?$DOGetHistoryJo@ 005385f8     PAATL.obj
 0002:00008638       ??_C@_0CO@JPEE@m_pPADBOptInstance?9?$DOGetHistoryJo@ 00538638     PAATL.obj
 0002:00008670       ??_C@_0DH@KLHO@m_pPADBOptInstance?9?$DOGetHistoryJo@ 00538670     PAATL.obj
 0002:000086b4       ??_C@_0CI@BO@m_pPADBOptInstance?9?$DODeleteHistor@ 005386b4     PAATL.obj
 0002:000086e4       ??_C@_0CL@MOJD@m_pPADBOptInstance?9?$DODeleteAllHis@ 005386e4     PAATL.obj
 0002:00008718       ??_C@_0CG@KCBH@m_pPADBOptInstance?9?$DOCompactDabaB@ 00538718     PAATL.obj
 0002:00008748       ??_C@_0CP@MCMB@m_pPrintInstance?9?$DOCreateJob?$CIpPri@ 00538748     PAATL.obj
 0002:00008780       ??_C@_0EF@LIDG@Failed?5to?5access?5interface?5becau@ 00538780     PAATL.obj
 0002:000087d4       ??_C@_0DC@KGFB@m_pPrintInstance?9?$DOGetJobList?$CIppJ@ 005387d4     PAATL.obj
 0002:00008810       ??_C@_0CL@KKOO@m_pPrintInstance?9?$DOShowFCProgress@ 00538810     PAATL.obj
 0002:00008844       ??_C@_0DF@GHOG@m_pPrintInstance?9?$DOGetNetworkNode@ 00538844     PAATL.obj
 0002:00008884       ??_C@_1EK@PFLC@?$AAN?$AAo?$AA?5?$AAE?$AAr?$AAr?$AAo?$AAr?$AA?5?$AAM?$AAe?$AAs?$AAs?$AAa?$AAg?$AAe?$AA?5?$AAf?$AAo?$AAr@ 00538884     PAATL.obj
 0002:000088dc       ??_C@_1CG@GEIF@?$AAU?$AAs?$AAe?$AAr?$AA?5?$AAa?$AAb?$AAo?$AAr?$AAt?$AA?5?$AAb?$AAu?$AAr?$AAn?$AAi?$AAn?$AAg?$AA?$AA@ 005388dc     PAATL.obj
 0002:0000890c       ??_C@_1EO@KEFE@?$AAD?$AAi?$AAs?$AAc?$AA?5?$AAn?$AAa?$AAm?$AAe?$AA?5?$AAs?$AAh?$AAo?$AAu?$AAl?$AAd?$AA?5?$AAb?$AAe?$AA?5@ 0053890c     PAATL.obj
 0002:0000896c       ??_C@_1CI@OCDI@?$AAI?$AAn?$AAv?$AAa?$AAl?$AAi?$AAd?$AA?5?$AAd?$AAi?$AAr?$AA?5?$AAo?$AAr?$AA?5?$AAf?$AAi?$AAl?$AAe?$AA?$AA@ 0053896c     PAATL.obj
 0002:0000899c       ??_C@_1DO@FJOI@?$AAN?$AAa?$AAm?$AAe?$AA?5?$AAo?$AAf?$AA?5?$AAd?$AAi?$AAr?$AAs?$AA?5?$AAo?$AAr?$AA?5?$AAf?$AAi?$AAl?$AAe@ 0053899c     PAATL.obj
 0002:000089e8       ??_C@_1CC@CBJF@?$AAN?$AAo?$AAt?$AA?5?$AAa?$AA?5?$AAe?$AAm?$AAp?$AAt?$AAy?$AA?5?$AAd?$AAi?$AAs?$AAc?$AA?$AA@ 005389e8     PAATL.obj
 0002:00008a10       ??_C@_1EC@JMII@?$AAA?$AA?5?$AAb?$AAu?$AAr?$AAn?$AA?5?$AAt?$AAh?$AAr?$AAe?$AAa?$AAd?$AA?5?$AAi?$AAs?$AA?5?$AAa?$AAl?$AAr@ 00538a10     PAATL.obj
 0002:00008a60       ??_C@_1DM@PCEK@?$AAn?$AAo?$AAt?$AA?5?$AAa?$AAp?$AAp?$AAl?$AAi?$AAc?$AAa?$AAb?$AAl?$AAe?$AA?5?$AAd?$AAu?$AAr?$AAi?$AAn@ 00538a60     PAATL.obj
 0002:00008aa8       ??_C@_1CC@MACN@?$AAB?$AAu?$AAr?$AAn?$AA?5?$AAs?$AAp?$AAe?$AAe?$AAd?$AA?5?$AAu?$AAn?$AAs?$AAe?$AAt?$AA?$AA@ 00538aa8     PAATL.obj
 0002:00008ad0       ??_C@_1CA@LCKP@?$AAD?$AAi?$AAs?$AAc?$AA?5?$AAt?$AAy?$AAp?$AAe?$AA?5?$AAu?$AAn?$AAs?$AAe?$AAt?$AA?$AA@ 00538ad0     PAATL.obj
 0002:00008af8       ??_C@_1CA@MCEM@?$AAD?$AAi?$AAs?$AAc?$AA?5?$AAn?$AAa?$AAm?$AAe?$AA?5?$AAu?$AAn?$AAs?$AAe?$AAt?$AA?$AA@ 00538af8     PAATL.obj
 0002:00008b20       ??_C@_1CE@GHDG@?$AAN?$AAe?$AAr?$AAo?$AA?5?$AAm?$AAe?$AAm?$AAo?$AAr?$AAy?$AA?5?$AAl?$AAe?$AAa?$AAk?$AA?$CB?$AA?$AA@ 00538b20     PAATL.obj
 0002:00008b4c       ??_C@_1CG@ICEO@?$AAO?$AAp?$AAe?$AAn?$AA?5?$AAd?$AAe?$AAv?$AAi?$AAc?$AAe?$AA?5?$AAf?$AAa?$AAi?$AAl?$AAe?$AAd?$AA?$AA@ 00538b4c     PAATL.obj
 0002:00008b7c       ??_C@_1CK@KNGC@?$AAD?$AAe?$AAv?$AAi?$AAc?$AAe?$AA?5?$AAn?$AAo?$AAt?$AA?5?$AAs?$AAp?$AAe?$AAc?$AAi?$AAf?$AAi?$AAe?$AAd@ 00538b7c     PAATL.obj
 0002:00008bb0       ??_C@_1CM@LAK@?$AAN?$AAo?$AA?5?$AAb?$AAu?$AAr?$AAn?$AA?5?$AAd?$AAi?$AAr?$AAs?$AA?5?$AAo?$AAr?$AA?5?$AAf?$AAi?$AAl?$AAe@ 00538bb0     PAATL.obj
 0002:00008be4       ??_C@_1DO@LOAP@?$AAN?$AAe?$AAr?$AAo?$AA?5?$AAA?$AAP?$AAI?$AA?5?$AAi?$AAn?$AAv?$AAa?$AAl?$AAi?$AAd?$AA?5?$AAs?$AAe?$AAr@ 00538be4     PAATL.obj
 0002:00008c30       ??_C@_1DA@OALG@?$AAC?$AAa?$AAn?$AA?8?$AAt?$AA?5?$AAo?$AAp?$AAe?$AAn?$AA?5?$AAN?$AAe?$AAr?$AAo?$AA?5?$AAA?$AAP?$AAI?$AA?5@ 00538c30     PAATL.obj
 0002:00008c6c       ??_C@_1EK@GNNH@?$AAD?$AAe?$AAv?$AAi?$AAc?$AAe?$AA?5?$AAc?$AAa?$AAn?$AA?8?$AAt?$AA?5?$AAw?$AAr?$AAi?$AAt?$AAe?$AA?5?$AAt@ 00538c6c     PAATL.obj
 0002:00008cc4       ??_C@_1CK@PLCE@?$AAD?$AAi?$AAs?$AAc?$AA?5?$AAi?$AAs?$AA?5?$AAn?$AAo?$AAt?$AA?5?$AAw?$AAr?$AAi?$AAt?$AAa?$AAb?$AAl?$AAe@ 00538cc4     PAATL.obj
 0002:00008cf8       ??_C@_1BO@PGGL@?$AAD?$AAi?$AAs?$AAc?$AA?5?$AAi?$AAs?$AA?5?$AAn?$AAo?$AAt?$AA?5?$AAC?$AAD?$AA?$AA@ 00538cf8     PAATL.obj
 0002:00008d1c       ??_C@_1CA@HIB@?$AAD?$AAi?$AAs?$AAc?$AA?5?$AAi?$AAs?$AA?5?$AAn?$AAo?$AAt?$AA?5?$AAD?$AAV?$AAD?$AA?$AA@ 00538d1c     PAATL.obj
 0002:00008d44       ??_C@_1DE@OHEM@?$AAN?$AAo?$AA?5?$AAd?$AAi?$AAs?$AAc?$AA?5?$AAo?$AAr?$AA?5?$AAd?$AAi?$AAs?$AAc?$AA?5?$AAc?$AAo?$AAr?$AAr@ 00538d44     PAATL.obj
 0002:00008d84       ??_C@_1DE@LICI@?$AAN?$AAo?$AA?5?$AAs?$AAp?$AAe?$AAc?$AAi?$AAf?$AAi?$AAe?$AAd?$AA?5?$AAd?$AAe?$AAv?$AAi?$AAc?$AAe?$AA?5@ 00538d84     PAATL.obj
 0002:00008dc4       ??_C@_1CA@KHMI@?$AAN?$AAo?$AA?5?$AAd?$AAe?$AAv?$AAi?$AAc?$AAe?$AA?5?$AAf?$AAo?$AAu?$AAn?$AAd?$AA?$AA@ 00538dc4     PAATL.obj
 0002:00008dec       ??_C@_1CK@OFGG@?$AAN?$AAe?$AAr?$AAo?$AA?5?$AAA?$AAP?$AAI?$AA?5?$AAI?$AAn?$AAi?$AAt?$AA?5?$AAf?$AAa?$AAi?$AAl?$AAe?$AAd@ 00538dec     PAATL.obj
 0002:00008e20       ??_C@_1CE@JEAD@?$AAN?$AAe?$AAr?$AAo?$AA?5?$AAA?$AAP?$AAI?$AA?5?$AAU?$AAn?$AAi?$AAn?$AAi?$AAt?$AAe?$AAd?$AA?$AA@ 00538e20     PAATL.obj
 0002:00008e4c       ??_C@_1CE@JNBP@?$AAI?$AAn?$AAv?$AAa?$AAl?$AAi?$AAd?$AA?5?$AAp?$AAa?$AAr?$AAa?$AAm?$AAe?$AAt?$AAe?$AAr?$AA?$AA@ 00538e4c     PAATL.obj
 0002:00008e78       ??_C@_1CC@OAOG@?$AAU?$AAn?$AAe?$AAx?$AAp?$AAe?$AAc?$AAt?$AAe?$AAd?$AA?5?$AAe?$AAr?$AAr?$AAo?$AAr?$AA?$AA@ 00538e78     PAATL.obj
 0002:00008ea0       ??_C@_15ILKA@?$AAO?$AAK?$AA?$AA@ 00538ea0     PAATL.obj
 0002:00008ea8       ??_C@_0CN@BAM@CPA?5startup?5result?3?5enumSTARTUPR@ 00538ea8     PAATL.obj
 0002:00008ee0       ??_C@_1BO@PJGF@?$AAU?$AAn?$AAi?$AAn?$AAi?$AAt?$AAi?$AAa?$AAl?$AAi?$AAz?$AAi?$AAn?$AAg?$AA?$AA@ 00538ee0     PAATL.obj
 0002:00008f04       ??_C@_1BA@BMFE@?$AAW?$AAo?$AAr?$AAk?$AAi?$AAn?$AAg?$AA?$AA@ 00538f04     PAATL.obj
 0002:00008f18       ??_C@_0CO@LCKB@CPA?5startup?5result?3?5enumSTARTUPR@ 00538f18     PAATL.obj
 0002:00008f50       ??_C@_1BK@GDME@?$AAI?$AAn?$AAi?$AAt?$AAi?$AAa?$AAl?$AAi?$AAz?$AAi?$AAn?$AAg?$AA?$AA@ 00538f50     PAATL.obj
 0002:00008f70       ??_C@_1BM@LKB@?$AAU?$AAn?$AAi?$AAn?$AAi?$AAt?$AAi?$AAa?$AAl?$AAi?$AAz?$AAe?$AAd?$AA?$AA@ 00538f70     PAATL.obj
 0002:00008f94       ??_C@_1CG@GAOG@?$AAC?$AAP?$AAA?$AA?5?$AAm?$AAo?$AAd?$AAu?$AAl?$AAe?$AA?5?$AAs?$AAt?$AAa?$AAt?$AAe?$AA?3?$AA?5?$AA?$AA@ 00538f94     PAATL.obj
 0002:00008fc4       ??_C@_0DD@GFHA@CDBController?3?3GetInstance?$CI?$CJ?9?$DOGe@ 00538fc4     PAATL.obj
 0002:00009004       ??_C@_1EM@MBDK@?$AAS?$AA_?$AAO?$AAK?$AA?5?$AA?$CB?$AA?$DN?$AA?5?$AAS?$AAe?$AAt?$AAM?$AAP?$AAP?$AAS?$AAS?$AAt?$AAa?$AAt?$AAu@ 00539004     PAATL.obj
 0002:00009060       ??_C@_1EM@NILH@?$AAS?$AA_?$AAO?$AAK?$AA?5?$AA?$DN?$AA?$DN?$AA?5?$AAS?$AAe?$AAt?$AAM?$AAP?$AAP?$AAS?$AAS?$AAt?$AAa?$AAt?$AAu@ 00539060     PAATL.obj
 0002:000090bc       ??_C@_0EI@KDCB@CDBController?3?3GetInstance?$CI?$CJ?9?$DOGe@ 005390bc     PAATL.obj
 0002:00009114       ??_C@_0CN@HFKA@m_pDiscImportInstance?9?$DOHandleWor@ 00539114     PAATL.obj
 0002:0000914c       ??_C@_0BP@OCKM@m_pPrintInstance?9?$DOPausePrint?$CI?$CJ?$AA@ 0053914c     PAATL.obj
 0002:00009174       ??_C@_0CK@CIEF@m_pBurnInstance?9?$DOSetDevice?$CIstrDe@ 00539174     PAATL.obj
 0002:000091a8       ??_C@_0EE@BMLF@Failed?5to?5access?5interface?5becau@ 005391a8     PAATL.obj
 0002:000091fc       ??_C@_0DA@OMEN@m_pBurnInstance?9?$DOGetDevices?$CIppDe@ 005391fc     PAATL.obj
 0002:00009238       ??_C@_0CN@IPIP@m_pBurnInstance?9?$DOGetCurrentDevic@ 00539238     PAATL.obj
 0002:00009270       ??_C@_0CE@OICP@m_pBurnInstance?9?$DOGetEstimatedSiz@ 00539270     PAATL.obj
 0002:0000929c       ??_C@_0CP@CAML@m_pBurnInstance?9?$DOCancelBurn?$CI?$CILPC@ 0053929c     PAATL.obj
 0002:000092d4       ??_C@_0EL@ELEG@m_pBurnInstance?9?$DOCreateJobByPA?$CI?$CG@ 005392d4     PAATL.obj
 0002:00009330       ??_C@_0EK@DDEL@m_pJobHandlerInstance?9?$DOIsUnfinis@ 00539330     PAATL.obj
 0002:00009388       ??_C@_0DE@CHGF@m_pTransferInstance?9?$DOCreateJobAu@ 00539388     PAATL.obj
 0002:000093c8       ??_C@_0EI@LGN@Failed?5to?5access?5interface?5becau@ 005393c8     PAATL.obj
 0002:00009420       ??_C@_0CG@GFIF@m_pTransferInstance?9?$DOManualTrans@ 00539420     PAATL.obj
 0002:00009450       ??_C@_0DG@JNOG@m_pTransferInstance?9?$DOManualTrans@ 00539450     PAATL.obj
 0002:00009490       ??_C@_0FD@GJBC@m_pTransferInstance?9?$DOCreateJobBy@ 00539490     PAATL.obj
 0002:000094f4       ??_C@_0EO@JCIH@m_pJobHandlerInstance?9?$DOIsUnfinis@ 005394f4     PAATL.obj
 0002:00009554       ??_C@_0FA@IIJA@m_pJobHandlerInstance?9?$DOIsUnfinis@ 00539554     PAATL.obj
 0002:000095b4       ??_C@_0DF@BALJ@m_pTransferInstance?9?$DOGetAutoServ@ 005395b4     PAATL.obj
 0002:000095f4       ??_C@_0CO@EMB@m_pTransferInstance?9?$DOIsAutoSendV@ 005395f4     PAATL.obj
 0002:0000962c       ??_C@_0DE@CGB@m_pTransferInstance?9?$DOSetAutoServ@ 0053962c     PAATL.obj
 0002:0000966c       ??_C@_0DH@MDKL@m_pTransferInstance?9?$DOGetManualSe@ 0053966c     PAATL.obj
 0002:000096b0       ??_C@_0DG@NCON@m_pTransferInstance?9?$DOSetManualSe@ 005396b0     PAATL.obj
 0002:000096f0       ??_C@_0DE@IGOH@m_pTransferInstance?9?$DOConnectTest@ 005396f0     PAATL.obj
 0002:00009730       ??_C@_0EK@CLOG@Failed?5to?5access?5interface?5becau@ 00539730     PAATL.obj
 0002:00009788       ??_C@_0FA@IDCK@m_pJobHandlerInstance?9?$DOIsUnfinis@ 00539788     PAATL.obj
 0002:000097e8       ??_C@_0EG@HIME@Failed?5to?5access?5interface?5becau@ 005397e8     PAATL.obj
 0002:0000983c       ??_C@_0DK@LKOK@m_pTransferInstance?9?$DOSetEnableAu@ 0053983c     PAATL.obj
 0002:00009884       ??_C@_0DK@JCPM@m_pTransferInstance?9?$DOGetEnableAu@ 00539884     PAATL.obj
 0002:000098cc       ??_C@_0DE@LJFJ@m_pTransferInstance?9?$DOSetAskforAu@ 005398cc     PAATL.obj
 0002:0000990c       ??_C@_0DE@PNPJ@m_pTransferInstance?9?$DOGetAskforAu@ 0053990c     PAATL.obj
 0002:0000994c       ??_C@_1DA@EJBK@?$AAC?$AAo?$AAC?$AAr?$AAe?$AAa?$AAt?$AAe?$AAI?$AAn?$AAs?$AAt?$AAa?$AAn?$AAc?$AAe?$AA?5?$AAF?$AAa?$AAi@ 0053994c     PAATL.obj
 0002:00009988       ??_C@_1EO@BAGI@?$AAi?$AAn?$AAt?$AAe?$AAr?$AAf?$AAa?$AAc?$AAe?$AA?5?$AAp?$AAo?$AAi?$AAn?$AAt?$AAe?$AAr?$AA?5?$AAh?$AAa@ 00539988     PAATL.obj
 0002:000099e8       ??_C@_0DM@HFCH@e?3?2dx0806?2n?5series?2printingarchi@ 005399e8     PAATL.obj
 0002:00009a30       ??_C@_1BC@FCNA@?$AAP?$AAr?$AAo?$AAg?$AAr?$AAe?$AAs?$AAs?$AA?$AA@ 00539a30     PADataBaseOpt.obj
 0002:00009a48       ??_C@_1M@MJHE@?$AAS?$AAt?$AAa?$AAt?$AAe?$AA?$AA@ 00539a48     PADataBaseOpt.obj
 0002:00009a58       ??_C@_19KJIP@?$AAT?$AAy?$AAp?$AAe?$AA?$AA@ 00539a58     PADataBaseOpt.obj
 0002:00009a64       ??_C@_1M@OLHK@?$AAJ?$AAo?$AAb?$AAI?$AAD?$AA?$AA@ 00539a64     PADataBaseOpt.obj
 0002:00009a74       ??_C@_1M@MPJK@?$AAI?$AAn?$AAd?$AAe?$AAx?$AA?$AA@ 00539a74     PADataBaseOpt.obj
 0002:00009a84       ??_C@_1O@LAPB@?$AAD?$AAe?$AAt?$AAa?$AAi?$AAl?$AA?$AA@ 00539a84     PADataBaseOpt.obj
 0002:00009a94       ??_C@_1BC@BCEF@?$AAD?$AAa?$AAt?$AAe?$AAT?$AAi?$AAm?$AAe?$AA?$AA@ 00539a94     PADataBaseOpt.obj
 0002:00009aac       ??_C@_1BA@GLAI@?$AAU?$AAI?$AAD?$AAT?$AAy?$AAp?$AAe?$AA?$AA@ 00539aac     PADataBaseOpt.obj
 0002:00009ac0       ??_C@_17LNFK@?$AAU?$AAI?$AAD?$AA?$AA@ 00539ac0     PADataBaseOpt.obj
 0002:00009acc       ??_C@_1BA@JMAB@?$AAI?$AAm?$AAa?$AAg?$AAe?$AAI?$AAD?$AA?$AA@ 00539acc     PADataBaseOpt.obj
 0002:00009ae0       ??_C@_1BC@HEPP@?$AAS?$AAe?$AAr?$AAi?$AAe?$AAs?$AAI?$AAD?$AA?$AA@ 00539ae0     PADataBaseOpt.obj
 0002:00009af8       ??_C@_1BA@IJCA@?$AAS?$AAt?$AAu?$AAd?$AAy?$AAI?$AAD?$AA?$AA@ 00539af8     PADataBaseOpt.obj
 0002:00009b0c       ??_C@_1BI@LPLG@?$AAP?$AAa?$AAt?$AAi?$AAe?$AAn?$AAt?$AAN?$AAa?$AAm?$AAe?$AA?$AA@ 00539b0c     PADataBaseOpt.obj
 0002:00009b28       ??_C@_1BE@NLCI@?$AAP?$AAa?$AAt?$AAi?$AAe?$AAn?$AAt?$AAI?$AAD?$AA?$AA@ 00539b28     PADataBaseOpt.obj
 0002:00009b40       ??_C@_1BE@CHIG@?$AAP?$AAr?$AAo?$AAc?$AAe?$AAs?$AAs?$AAe?$AAd?$AA?$AA@ 00539b40     PADataBaseOpt.obj
 0002:00009b58       ??_C@_17OELG@?$AAR?$AAa?$AAw?$AA?$AA@ 00539b58     PADataBaseOpt.obj
 0002:00009b64       ??_C@_1BA@HMKN@?$AAD?$AAe?$AAf?$AAa?$AAu?$AAl?$AAt?$AA?$AA@ 00539b64     PADataBaseOpt.obj
 0002:00009b78       ??_C@_1BG@BCBE@?$AAD?$AAe?$AAt?$AAa?$AAi?$AAl?$AAI?$AAn?$AAf?$AAo?$AA?$AA@ 00539b78     PADataBaseOpt.obj
 0002:00009b94       ??_C@_1CC@KBNN@?$AAR?$AAe?$AAf?$AAe?$AAr?$AAe?$AAn?$AAc?$AAe?$AAd?$AAF?$AAi?$AAl?$AAe?$AAI?$AAD?$AA?$AA@ 00539b94     PADataBaseOpt.obj
 0002:00009bbc       ??_C@_1BG@NHBM@?$AAI?$AAm?$AAa?$AAg?$AAe?$AAI?$AAn?$AAd?$AAe?$AAx?$AA?$AA@ 00539bbc     PADataBaseOpt.obj
 0002:00009bd8       ??_C@_1BG@GIME@?$AAP?$AAa?$AAt?$AAi?$AAe?$AAn?$AAt?$AAU?$AAI?$AAD?$AA?$AA@ 00539bd8     PADataBaseOpt.obj
 0002:00009bf4       ??_C@_1BC@DELP@?$AAS?$AAt?$AAu?$AAd?$AAy?$AAU?$AAI?$AAD?$AA?$AA@ 00539bf4     PADataBaseOpt.obj
 0002:00009c0c       ??_C@_1BE@IHNK@?$AAS?$AAe?$AAr?$AAi?$AAe?$AAs?$AAU?$AAI?$AAD?$AA?$AA@ 00539c0c     PADataBaseOpt.obj
 0002:00009c24       ??_C@_1BC@JBFD@?$AAI?$AAm?$AAa?$AAg?$AAe?$AAU?$AAI?$AAD?$AA?$AA@ 00539c24     PADataBaseOpt.obj
 0002:00009c3c       ??_C@_1CC@KEKN@?$AAS?$AAt?$AAu?$AAd?$AAy?$AAI?$AAn?$AAs?$AAt?$AAa?$AAn?$AAc?$AAe?$AAU?$AAI?$AAD?$AA?$AA@ 00539c3c     PADataBaseOpt.obj
 0002:00009c68       ??_7CPADataBaseOpt@@6B@    00539c68     PADataBaseOpt.obj
 0002:00009c70       ??_C@_0DL@PACO@E?3?2DX0806?2N?5Series?2PrintingArchi@ 00539c70     PADataBaseOpt.obj
 0002:00009cb8       ??_C@_1EG@HDCI@?$AAm?$AA_?$AAp?$AAD?$AAB?$AAO?$AAp?$AAt?$AA?9?$AA?$DO?$AAO?$AAp?$AAe?$AAn?$AAD?$AAB?$AA?$CI?$AA?$CJ?$AA?0?$AA?5@ 00539cb8     PADataBaseOpt.obj
 0002:00009d0c       ??_C@_1M@EKFH@?$AAa?$AAd?$AAm?$AAi?$AAn?$AA?$AA@ 00539d0c     PADataBaseOpt.obj
 0002:00009d1c       ??_C@_1BE@HFDH@?$AAP?$AA?$CG?$AAA?$AAD?$AAB?$AA?4?$AAm?$AAd?$AAb?$AA?$AA@ 00539d1c     PADataBaseOpt.obj
 0002:00009d34       ??_C@_1CI@GMKI@?$AAm?$AA_?$AAp?$AAD?$AAB?$AAO?$AAp?$AAt?$AA?9?$AA?$DO?$AAC?$AAl?$AAo?$AAs?$AAe?$AAD?$AAB?$AA?$CI?$AA?$CJ?$AA?$AA@ 00539d34     PADataBaseOpt.obj
 0002:00009d64       ??_C@_1DO@MJKH@?$AAm?$AA_?$AAD?$AAb?$AAB?$AAa?$AAs?$AAi?$AAs?$AAO?$AAp?$AAt?$AA?4?$AAA?$AAd?$AAd?$AAR?$AAe?$AAc?$AAo@ 00539d64     PADataBaseOpt.obj
 0002:00009db0       ??_C@_1EM@HILE@?$AA?5?$AA?9?$AA?9?$AA?5?$AAc?$AAa?$AAt?$AAc?$AAh?$AA?5?$AAe?$AAr?$AAr?$AAo?$AAr?$AA?5?$AAi?$AAn?$AA?5?$AAA@ 00539db0     PADataBaseOpt.obj
 0002:00009e0c       ??_C@_1CG@BFIB@?$AAs?$AAe?$AAt?$AA?5?$AAv?$AAa?$AAl?$AAu?$AAe?$AA?5?$AAf?$AAi?$AAn?$AAi?$AAs?$AAh?$AAe?$AAd?$AA?$AA@ 00539e0c     PADataBaseOpt.obj
 0002:00009e3c       ??_C@_1BE@IKPG@?$AAs?$AAe?$AAt?$AA?5?$AAv?$AAa?$AAl?$AAu?$AAe?$AA?$AA@ 00539e3c     PADataBaseOpt.obj
 0002:00009e54       ??_C@_1BK@JMBC@?$AAF?$AAr?$AAo?$AAm?$AA?5?$AAJ?$AAo?$AAb?$AAI?$AAn?$AAf?$AAo?$AA?$AA@ 00539e54     PADataBaseOpt.obj
 0002:00009e74       ??_C@_0CG@HKGP@CPADataBaseOpt?3?3SetJob?5?9?$DO?5return@ 00539e74     PADataBaseOpt.obj
 0002:00009ea4       ??_C@_0BI@DEG@AddJobPatientInfo?$CIpJob?$CJ?$AA@ 00539ea4     PADataBaseOpt.obj
 0002:00009ec0       ??_C@_1EA@FEKJ@?$AAF?$AAr?$AAo?$AAm?$AA?5?$AAJ?$AAo?$AAb?$AAI?$AAn?$AAf?$AAo?$AA?5?$AAW?$AAh?$AAe?$AAr?$AAe?$AA?5?$AAJ@ 00539ec0     PADataBaseOpt.obj
 0002:00009f0c       ??_C@_1IG@BKOM@?$AAS?$AAe?$AAl?$AAe?$AAc?$AAt?$AA?5?$AA?$CK?$AA?5?$AAF?$AAr?$AAo?$AAm?$AA?5?$AAJ?$AAo?$AAb?$AAI?$AAn?$AAf@ 00539f0c     PADataBaseOpt.obj
 0002:00009fac       ??_C@_1JK@JEHN@?$AAS?$AAe?$AAl?$AAe?$AAc?$AAt?$AA?5?$AAt?$AAo?$AAp?$AA?5?$AA?$CF?$AAd?$AA?5?$AA?$CK?$AA?5?$AAF?$AAr?$AAo?$AAm@ 00539fac     PADataBaseOpt.obj
 0002:0000a064       ??_C@_1HC@ENDI@?$AAs?$AAe?$AAl?$AAe?$AAc?$AAt?$AA?5?$AAt?$AAo?$AAp?$AA?5?$AA?$CF?$AAd?$AA?5?$AAI?$AAn?$AAd?$AAe?$AAx?$AA?5@ 0053a064     PADataBaseOpt.obj
 0002:0000a0ec       ??_C@_1GO@OAII@?$AAS?$AAe?$AAl?$AAe?$AAc?$AAt?$AA?5?$AAt?$AAo?$AAp?$AA?5?$AA?$CF?$AAd?$AA?5?$AA?$CK?$AA?5?$AAF?$AAr?$AAo?$AAm@ 0053a0ec     PADataBaseOpt.obj
 0002:0000a170       ??_C@_1EO@HNKF@?$AAS?$AAt?$AAa?$AAt?$AAe?$AA?5?$AA?$DN?$AA?5?$AA?$CF?$AAd?$AA?5?$AAo?$AAr?$AA?5?$AAS?$AAt?$AAa?$AAt?$AAe?$AA?5@ 0053a170     PADataBaseOpt.obj
 0002:0000a1d0       ??_C@_0BG@LMEN@ResultList?4size?$CI?$CJ?5?$DO?51?$AA@ 0053a1d0     PADataBaseOpt.obj
 0002:0000a1ec       ??_C@_0BH@HBI@ResultList?4size?$CI?$CJ?5?$DM?$DN?50?$AA@ 0053a1ec     PADataBaseOpt.obj
 0002:0000a208       ??_C@_1FK@DOHJ@?$AA?5?$AA?9?$AA?9?$AA?5?$AAc?$AAa?$AAt?$AAc?$AAh?$AA?5?$AAe?$AAr?$AAr?$AAo?$AAr?$AA?5?$AAi?$AAn?$AA?5?$AAG@ 0053a208     PADataBaseOpt.obj
 0002:0000a274       ??_C@_13PMLE@?$AA?8?$AA?$AA@ 0053a274     PADataBaseOpt.obj
 0002:0000a278       ??_C@_1DK@ENGA@?$AAF?$AAr?$AAo?$AAm?$AA?5?$AAJ?$AAo?$AAb?$AAI?$AAn?$AAf?$AAo?$AA?5?$AAw?$AAh?$AAe?$AAr?$AAe?$AA?5?$AAJ@ 0053a278     PADataBaseOpt.obj
 0002:0000a2c0       ??_C@_1CM@DAFP@?$AAC?$AAo?$AAT?$AAa?$AAs?$AAk?$AAM?$AAe?$AAm?$AAA?$AAl?$AAl?$AAo?$AAc?$AA?5?$AAe?$AAr?$AAr?$AAo?$AAr@ 0053a2c0     PADataBaseOpt.obj
 0002:0000a2f4       ??_C@_1CA@POEC@?$AAR?$AAe?$AAc?$AAo?$AAr?$AAd?$AAC?$AAo?$AAu?$AAn?$AAt?$AA?5?$AA?$DM?$AA?5?$AA0?$AA?$AA@ 0053a2f4     PADataBaseOpt.obj
 0002:0000a31c       ??_C@_1CK@JNMH@?$AA?8?$AA?5?$AAo?$AAr?$AAd?$AAe?$AAr?$AA?5?$AAb?$AAy?$AA?5?$AAI?$AAn?$AAd?$AAe?$AAx?$AA?5?$AAa?$AAs?$AAc@ 0053a31c     PADataBaseOpt.obj
 0002:0000a350       ??_C@_1EC@BIGN@?$AAF?$AAr?$AAo?$AAm?$AA?5?$AAJ?$AAo?$AAb?$AAP?$AAS?$AAS?$AAI?$AAI?$AAn?$AAf?$AAo?$AA?5?$AAw?$AAh?$AAe@ 0053a350     PADataBaseOpt.obj
 0002:0000a3a0       ??_C@_1GI@GEHN@?$AA?5?$AA?9?$AA?9?$AA?5?$AAc?$AAa?$AAt?$AAc?$AAh?$AA?5?$AAe?$AAr?$AAr?$AAo?$AAr?$AA?5?$AAi?$AAn?$AA?5?$AAG@ 0053a3a0     PADataBaseOpt.obj
 0002:0000a41c       ??_C@_1FA@HAFA@?$AAF?$AAr?$AAo?$AAm?$AA?5?$AAJ?$AAo?$AAb?$AAN?$AAe?$AAt?$AAw?$AAo?$AAr?$AAk?$AAN?$AAo?$AAd?$AAe?$AAI@ 0053a41c     PADataBaseOpt.obj
 0002:0000a47c       ??_C@_1BC@DBLM@?$AA?$CF?$AAH?$AA?3?$AA?$CF?$AAM?$AA?3?$AA?$CF?$AAS?$AA?$AA@ 0053a47c     PADataBaseOpt.obj
 0002:0000a494       ??_C@_1FO@IDII@?$AA?5?$AA?9?$AA?9?$AA?5?$AAc?$AAa?$AAt?$AAc?$AAh?$AA?5?$AAe?$AAr?$AAr?$AAo?$AAr?$AA?5?$AAi?$AAn?$AA?5?$AAG@ 0053a494     PADataBaseOpt.obj
 0002:0000a504       ??_C@_1EG@FGOD@?$AAF?$AAr?$AAo?$AAm?$AA?5?$AAJ?$AAo?$AAb?$AAD?$AAe?$AAt?$AAa?$AAi?$AAl?$AAI?$AAn?$AAf?$AAo?$AA?5?$AAw@ 0053a504     PADataBaseOpt.obj
 0002:0000a558       ??_C@_1HA@EBKO@?$AA?5?$AA?9?$AA?9?$AA?5?$AAc?$AAa?$AAt?$AAc?$AAh?$AA?5?$AAe?$AAr?$AAr?$AAo?$AAr?$AA?5?$AAi?$AAn?$AA?5?$AAG@ 0053a558     PADataBaseOpt.obj
 0002:0000a5e0       ??_C@_1FI@DDKC@?$AAF?$AAr?$AAo?$AAm?$AA?5?$AAJ?$AAo?$AAb?$AAD?$AAi?$AAs?$AAc?$AAI?$AAm?$AAp?$AAo?$AAr?$AAt?$AAI?$AAm@ 0053a5e0     PADataBaseOpt.obj
 0002:0000a64c       ??_C@_1EE@DMBK@?$AAm?$AA_?$AAD?$AAb?$AAB?$AAa?$AAs?$AAi?$AAs?$AAO?$AAp?$AAt?$AA?4?$AAD?$AAe?$AAl?$AAe?$AAt?$AAe?$AAR@ 0053a64c     PADataBaseOpt.obj
 0002:0000a6a0       ??_C@_1FE@KMEA@?$AA?5?$AA?9?$AA?9?$AA?5?$AAc?$AAa?$AAt?$AAc?$AAh?$AA?5?$AAe?$AAr?$AAr?$AAo?$AAr?$AA?5?$AAi?$AAn?$AA?5?$AAD@ 0053a6a0     PADataBaseOpt.obj
 0002:0000a704       ??_C@_1FK@ECLG@?$AA?5?$AA?9?$AA?9?$AA?5?$AAc?$AAa?$AAt?$AAc?$AAh?$AA?5?$AAe?$AAr?$AAr?$AAo?$AAr?$AA?5?$AAi?$AAn?$AA?5?$AAD@ 0053a704     PADataBaseOpt.obj
 0002:0000a770       ??_C@_1HA@FLCK@?$AA?5?$AA?9?$AA?9?$AA?5?$AAc?$AAa?$AAt?$AAc?$AAh?$AA?5?$AAe?$AAr?$AAr?$AAo?$AAr?$AA?5?$AAi?$AAn?$AA?5?$AAA@ 0053a770     PADataBaseOpt.obj
 0002:0000a7f8       ??_C@_1DO@HCJE@?$AAF?$AAr?$AAo?$AAm?$AA?5?$AAW?$AAo?$AAr?$AAk?$AAl?$AAi?$AAs?$AAt?$AAI?$AAm?$AAp?$AAo?$AAr?$AAt?$AAe@ 0053a7f8     PADataBaseOpt.obj
 0002:0000a844       ??_C@_1GM@MFIM@?$AA?5?$AA?9?$AA?9?$AA?5?$AAc?$AAa?$AAt?$AAc?$AAh?$AA?5?$AAe?$AAr?$AAr?$AAo?$AAr?$AA?5?$AAi?$AAn?$AA?5?$AAI@ 0053a844     PADataBaseOpt.obj
 0002:0000a8c8       ??_C@_1HE@LEKN@?$AAF?$AAr?$AAo?$AAm?$AA?5?$AAW?$AAo?$AAr?$AAk?$AAl?$AAi?$AAs?$AAt?$AAI?$AAm?$AAp?$AAo?$AAr?$AAt?$AAe@ 0053a8c8     PADataBaseOpt.obj
 0002:0000a954       ??_C@_1HK@BMCL@?$AA?5?$AA?9?$AA?9?$AA?5?$AAc?$AAa?$AAt?$AAc?$AAh?$AA?5?$AAe?$AAr?$AAr?$AAo?$AAr?$AA?5?$AAi?$AAn?$AA?5?$AAD@ 0053a954     PADataBaseOpt.obj
 0002:0000a9e8       ??_C@_06PCA@Init?$CI?$CJ?$AA@ 0053a9e8     PADataBaseOpt.obj
 0002:0000a9f0       ??_C@_0CJ@FHCP@CompactDB?$CIszDBPath?0?5szPassword?0?5@ 0053a9f0     PADataBaseOpt.obj
 0002:0000aa24       ??_C@_08KPE@UnInit?$CI?$CJ?$AA@ 0053aa24     PADataBaseOpt.obj
 0002:0000aa30       ??_C@_1FK@JOOO@?$AA?5?$AA?9?$AA?9?$AA?5?$AAc?$AAa?$AAt?$AAc?$AAh?$AA?5?$AAe?$AAr?$AAr?$AAo?$AAr?$AA?5?$AAi?$AAn?$AA?5?$AAA@ 0053aa30     PADataBaseOpt.obj
 0002:0000aa9c       ??_C@_1CA@LDDN@?$AAF?$AAr?$AAo?$AAm?$AA?5?$AAJ?$AAo?$AAb?$AAU?$AAI?$AAD?$AAI?$AAn?$AAf?$AAo?$AA?$AA@ 0053aa9c     PADataBaseOpt.obj
 0002:0000aac4       ??_C@_0BK@FFKM@Error?5PatientAdminUIDType?$AA@ 0053aac4     PADataBaseOpt.obj
 0002:0000aae4       ??_C@_1FG@KJO@?$AA?5?$AA?9?$AA?9?$AA?5?$AAc?$AAa?$AAt?$AAc?$AAh?$AA?5?$AAe?$AAr?$AAr?$AAo?$AAr?$AA?5?$AAi?$AAn?$AA?5?$AAA@ 0053aae4     PADataBaseOpt.obj
 0002:0000ab4c       ??_C@_1CC@IHMI@?$AAF?$AAr?$AAo?$AAm?$AA?5?$AAJ?$AAo?$AAb?$AAP?$AAs?$AAs?$AAi?$AAI?$AAn?$AAf?$AAo?$AA?$AA@ 0053ab4c     PADataBaseOpt.obj
 0002:0000ab74       ??_C@_0EE@NHEM@CJobHandler?3?3GetInstance?$CI?$CJ?9?$DOGetJ@ 0053ab74     PADataBaseOpt.obj
 0002:0000abc8       ??_C@_1GK@MAKL@?$AA?5?$AA?9?$AA?9?$AA?5?$AAc?$AAa?$AAt?$AAc?$AAh?$AA?5?$AAe?$AAr?$AAr?$AAo?$AAr?$AA?5?$AAi?$AAn?$AA?5?$AAA@ 0053abc8     PADataBaseOpt.obj
 0002:0000ac48       ??_C@_1DA@HILK@?$AAF?$AAr?$AAo?$AAm?$AA?5?$AAJ?$AAo?$AAb?$AAN?$AAe?$AAt?$AAw?$AAo?$AAr?$AAk?$AAN?$AAo?$AAd?$AAe?$AAI@ 0053ac48     PADataBaseOpt.obj
 0002:0000ac84       ??_C@_1CG@GIFC@?$AAF?$AAr?$AAo?$AAm?$AA?5?$AAJ?$AAo?$AAb?$AAD?$AAe?$AAt?$AAa?$AAi?$AAl?$AAI?$AAn?$AAf?$AAo?$AA?$AA@ 0053ac84     PADataBaseOpt.obj
 0002:0000acb4       ??_C@_1HC@LLFP@?$AA?5?$AA?9?$AA?9?$AA?5?$AAc?$AAa?$AAt?$AAc?$AAh?$AA?5?$AAe?$AAr?$AAr?$AAo?$AAr?$AA?5?$AAi?$AAn?$AA?5?$AAA@ 0053acb4     PADataBaseOpt.obj
 0002:0000ad3c       ??_C@_1DI@PPKA@?$AAF?$AAr?$AAo?$AAm?$AA?5?$AAJ?$AAo?$AAb?$AAD?$AAi?$AAs?$AAc?$AAI?$AAm?$AAp?$AAo?$AAr?$AAt?$AAI?$AAm@ 0053ad3c     PADataBaseOpt.obj
 0002:0000ad80       ??_C@_1GE@PDMO@?$AAh?$AAr?$AA?5?$AA?$DN?$AA?5?$AAj?$AAe?$AAt?$AA?9?$AA?$DO?$AAC?$AAo?$AAm?$AAp?$AAa?$AAc?$AAt?$AAD?$AAa?$AAt@ 0053ad80     PADataBaseOpt.obj
 0002:0000adf8       ??_C@_1EM@GNBO@?$AAC?$AAD?$AAi?$AAr?$AAH?$AAa?$AAn?$AAd?$AAl?$AAe?$AAr?$AA?3?$AA?3?$AAD?$AAe?$AAl?$AAe?$AAt?$AAe?$AAF@ 0053adf8     PADataBaseOpt.obj
 0002:0000ae54       ??_C@_1FM@JBPN@?$AAP?$AAr?$AAo?$AAv?$AAi?$AAd?$AAe?$AAr?$AA?$DN?$AAM?$AAi?$AAc?$AAr?$AAo?$AAs?$AAo?$AAf?$AAt?$AA?4?$AAJ@ 0053ae54     PADataBaseOpt.obj
 0002:0000aec4       ??_C@_1EC@CELM@?$AA?$DL?$AAJ?$AAe?$AAt?$AA?5?$AAO?$AAL?$AAE?$AAD?$AAB?$AA?3?$AAD?$AAa?$AAt?$AAa?$AAb?$AAa?$AAs?$AAe?$AA?5@ 0053aec4     PADataBaseOpt.obj
 0002:0000af14       ??_C@_1EM@CJDC@?$AAC?$AAD?$AAi?$AAr?$AAH?$AAa?$AAn?$AAd?$AAl?$AAe?$AAr?$AA?3?$AA?3?$AAD?$AAe?$AAl?$AAe?$AAt?$AAe?$AAF@ 0053af14     PADataBaseOpt.obj
 0002:0000af70       ??_C@_19DIFF@?$AA?4?$AAt?$AAm?$AAp?$AA?$AA@ 0053af70     PADataBaseOpt.obj
 0002:0000af80       ??_7PAJob@@6B@             0053af80     PAJob.obj
 0002:0000af90       ??_C@_1CE@KAEA@?$AAu?$AAn?$AAk?$AAn?$AAo?$AAw?$AA?5?$AAJ?$AAo?$AAb?$AA?5?$AAS?$AAt?$AAa?$AAt?$AAe?$AA?$CB?$AA?$AA@ 0053af90     PAJob.obj
 0002:0000afbc       ??_C@_0DD@EBCG@E?3?2DX0806?2N?5Series?2PrintingArchi@ 0053afbc     PAJob.obj
 0002:0000affc       ??_C@_1BI@CCMN@?$AA?$CF?$AA2?$AAd?$AA?3?$AA?$CF?$AA2?$AAd?$AA?3?$AA?$CF?$AA2?$AAd?$AA?$AA@ 0053affc     PAJob.obj
 0002:0000b018       _IID_IPrintQueue           0053b018     PQSink.obj
 0002:0000b028       _IID_IPrintJob             0053b028     PQSink.obj
 0002:0000b038       _LIBID_PRINTQUEUEMANAGERLib 0053b038     PQSink.obj
 0002:0000b048       _DIID__IPrintQueueChangeEvents 0053b048     PQSink.obj
 0002:0000b058       _CLSID_PrintQueue          0053b058     PQSink.obj
 0002:0000b07c       ??_7CPQSink@@6B@           0053b07c     PQSink.obj
 0002:0000b0ac       ??_C@_0DE@JPGG@E?3?2DX0806?2N?5Series?2PrintingArchi@ 0053b0ac     PQSink.obj
 0002:0000b0ec       ??_C@_1BM@PAHN@?$AAE?$AAr?$AAr?$AAo?$AAr?$AA?3?$AA?5?$AA?$CF?$AAs?$AA?0?$AA?5?$AA?$CF?$AAs?$AA?$AA@ 0053b0ec     PQSink.obj
 0002:0000b110       _IID_IDBPIM                0053b110     Printing.obj
 0002:0000b120       _IID_IDBConfig             0053b120     Printing.obj
 0002:0000b130       _IID_IDBSession            0053b130     Printing.obj
 0002:0000b140       _IID_ISExp                 0053b140     Printing.obj
 0002:0000b150       _IID_IStatisticsWorkflowLevel 0053b150     Printing.obj
 0002:0000b160       _LIBID_PALibExt            0053b160     Printing.obj
 0002:0000b170       _CLSID_DBPIM               0053b170     Printing.obj
 0002:0000b180       _CLSID_DBConfig            0053b180     Printing.obj
 0002:0000b190       _CLSID_DBSession           0053b190     Printing.obj
 0002:0000b1a0       _CLSID_ISATL               0053b1a0     Printing.obj
 0002:0000b1b0       _CLSID_CoSystemEventDB     0053b1b0     Printing.obj
 0002:0000b1e8       ??_7CPrinting@@6BNSubject@@@ 0053b1e8     Printing.obj
 0002:0000b1fc       ??_7CPrinting@@6BNObserver@@@ 0053b1fc     Printing.obj
 0002:0000b208       ??_C@_0BK@MCKN@m_FCPartner?4Init?$CI?$CJ?5failed?$AA@ 0053b208     Printing.obj
 0002:0000b228       ??_C@_0BL@BMEB@m_FCPartner?4Init?$CI?$CJ?5succeed?$AA@ 0053b228     Printing.obj
 0002:0000b248       ??_C@_0BL@FKFC@m_DcmPartner?4Init?$CI?$CJ?5failed?$AA@ 0053b248     Printing.obj
 0002:0000b268       ??_C@_0BM@KLNJ@m_DcmPartner?4Init?$CI?$CJ?5succeed?$AA@ 0053b268     Printing.obj
 0002:0000b28c       ??_C@_0DG@PBGB@E?3?2DX0806?2N?5Series?2PrintingArchi@ 0053b28c     Printing.obj
 0002:0000b2cc       ??_C@_0CL@OOPH@m_FCPartner?4LoadImages?$CIvtrProcDI@ 0053b2cc     Printing.obj
 0002:0000b300       ??_C@_0BK@HOLK@m_DcmPartner?4ConvertBFS?$CI?$CJ?$AA@ 0053b300     Printing.obj
 0002:0000b320       ??_C@_1CE@HJEH@?$AAF?$AA?3?$AA?2?$AAD?$AAc?$AAm?$AAC?$AAa?$AAc?$AAh?$AAe?$AA?2?$AAP?$AAr?$AAi?$AAn?$AAt?$AA?$AA@ 0053b320     Printing.obj
 0002:0000b34c       ??_C@_0BN@OOPL@0?5?$DN?$DN?5pJob?9?$DOdwTotalImageCount?$AA@ 0053b34c     Printing.obj
 0002:0000b370       ??_C@_1IA@EPGP@?$AAC?$AAD?$AAB?$AAC?$AAo?$AAn?$AAt?$AAr?$AAo?$AAl?$AAl?$AAe?$AAr?$AA?3?$AA?3?$AAG?$AAe?$AAt?$AAI?$AAn@ 0053b370     Printing.obj
 0002:0000b40c       ??_C@_1FI@MMNE@?$AAm?$AA_?$AAF?$AAC?$AAP?$AAa?$AAr?$AAt?$AAn?$AAe?$AAr?$AA?4?$AAL?$AAo?$AAa?$AAd?$AAI?$AAm?$AAa?$AAg@ 0053b40c     Printing.obj
 0002:0000b478       ??_C@_1CK@PHKA@?$AAN?$AAo?$AAt?$AA?5?$AAF?$AAi?$AAn?$AAd?$AA?5?$AAP?$AAS?$AA?5?$AAf?$AAi?$AAl?$AAe?$AA?5?$AA?$CF?$AAs?$AA?5@ 0053b478     Printing.obj
 0002:0000b4ac       ??_C@_1DO@LBLK@?$AAm?$AA_?$AAF?$AAC?$AAP?$AAa?$AAr?$AAt?$AAn?$AAe?$AAr?$AA?4?$AAC?$AAo?$AAp?$AAy?$AAF?$AAi?$AAl?$AAe@ 0053b4ac     Printing.obj
 0002:0000b4f8       ??_C@_1BO@GFJK@?$AA?$CF?$AAd?$AA?$CF?$AAd?$AA?$CF?$AAd?$AA?$CF?$AAd?$AA?$CF?$AAd?$AA?$CF?$AAd?$AA?$CF?$AAd?$AA?$AA@ 0053b4f8     Printing.obj
 0002:0000b51c       ??_C@_0BN@PMIB@m_FCPartner?4UnInit?$CI?$CJ?5succeed?$AA@ 0053b51c     Printing.obj
 0002:0000b540       ??_C@_0BM@CAM@m_FCPartner?4UnInit?$CI?$CJ?5failed?$AA@ 0053b540     Printing.obj
 0002:0000b564       ??_C@_0BD@FJLN@CancelFCPrinting?$CI?$CJ?$AA@ 0053b564     Printing.obj
 0002:0000b57c       ??_C@_1DA@DAG@?$AAP?$AAr?$AAi?$AAn?$AAt?$AA?5?$AAS?$AAu?$AAb?$AAM?$AAo?$AAd?$AAu?$AAl?$AAe?$AA?5?$AAs?$AAt?$AAa?$AAt@ 0053b57c     Printing.obj
 0002:0000b5b8       ??_C@_0BN@IHAG@m_FCPartner?4CancelPrinting?$CI?$CJ?$AA@ 0053b5b8     Printing.obj
 0002:0000b5dc       ??_C@_0BJ@MHDN@Unknow?5PrintWorkingState?$AA@ 0053b5dc     Printing.obj
 0002:0000b620       ??_7CSpaceEstimator@@6B@   0053b620     SpaceEstimator.obj
 0002:0000b628       ??_C@_1BI@KGKB@?$AAF?$AA?3?$AA?2?$AAD?$AAc?$AAm?$AAC?$AAa?$AAc?$AAh?$AAe?$AA?$AA@ 0053b628     SpaceEstimator.obj
 0002:0000b648       _IID_IDocHostUIHandlerDispatch 0053b648     StdAfx.obj
 0002:0000b660       _IID_IInternalConnection   0053b660     StdAfx.obj
 0002:0000b678       _IID_IAxWinAmbientDispatch 0053b678     StdAfx.obj
 0002:0000b690       _IID_IAxWinHostWindow      0053b690     StdAfx.obj
 0002:0000b6a8       _LIBID_ATLLib              0053b6a8     StdAfx.obj
 0002:0000b6bc       ??_C@_0DO@EHKF@E?3?2DX0806?2N?5Series?2PrintingArchi@ 0053b6bc     SystemEventProxy.obj
 0002:0000b70c       ??_7CSystemEventProxy@@6B@ 0053b70c     SystemEventProxy.obj
 0002:0000b718       ??_7?$CProxyBase@UIStatisticsWorkflowLevel@@VCoSystemEventDB@@@@6B@ 0053b718     SystemEventProxy.obj
 0002:0000b724       ??_7CTransfer@@6BNSubject@@@ 0053b724     Transfer.obj
 0002:0000b738       ??_7CTransfer@@6BNObserver@@@ 0053b738     Transfer.obj
 0002:0000b744       ??_C@_0BK@DOPD@m_XMLParser?4Init?$CI?$CJ?5failed?$AA@ 0053b744     Transfer.obj
 0002:0000b764       ??_C@_0BL@FLLN@m_XMLParser?4Init?$CI?$CJ?5succeed?$AA@ 0053b764     Transfer.obj
 0002:0000b784       ??_C@_0DG@EMFB@E?3?2DX0806?2N?5Series?2PrintingArchi@ 0053b784     Transfer.obj
 0002:0000b7c4       ??_C@_0CM@PBOF@CJobHandler?3?3GetInstance?$CI?$CJ?$CI?$CJ?9?$DOPu@ 0053b7c4     Transfer.obj
 0002:0000b7f8       ??_C@_0DF@DANJ@CreateJobAutoSend?5?9?5?$DO?5GetJobAuto@ 0053b7f8     Transfer.obj
 0002:0000b838       ??_C@_0CI@DENK@m_pDBController?9?$DOGetJobImageInfo@ 0053b838     Transfer.obj
 0002:0000b868       ??_C@_1BO@BBNM@?$AAU?$AAI?$AAD?$AA?5?$AAT?$AAy?$AAp?$AAe?$AA?5?$AAi?$AAs?$AA?5?$AA?$CF?$AAd?$AA?$AA@ 0053b868     Transfer.obj
 0002:0000b88c       ??_C@_0BO@NLC@m_XMLPartner?4UnInit?$CI?$CJ?5succeed?$AA@ 0053b88c     Transfer.obj
 0002:0000b8b0       ??_C@_0BN@DBOB@m_XMLPartner?4UnInit?$CI?$CJ?5failed?$AA@ 0053b8b0     Transfer.obj
 0002:0000b8d4       ??_C@_1FA@HBKM@?$AAC?$AAo?$AAm?$AAp?$AAl?$AAe?$AAt?$AAe?$AAd?$AA?5?$AAt?$AAo?$AA?5?$AAs?$AAe?$AAn?$AAd?$AA?5?$AAi?$AAm@ 0053b8d4     Transfer.obj
 0002:0000b934       ??_C@_0CP@HCMG@m_pDcmPartner?4StoreFile?$CIvtrProcD@ 0053b934     Transfer.obj
 0002:0000b96c       ??_C@_03CJPF@pre?$AA@      0053b96c     Transfer.obj
 0002:0000b970       ??_C@_0CP@NILL@m_pDcmPartner?4StoreFile?$CI?$CI?$CKpvtrDI@ 0053b970     Transfer.obj
 0002:0000b9a8       ??_C@_1EK@HKEA@?$AAF?$AAa?$AAi?$AAl?$AAe?$AAd?$AA?5?$AAt?$AAo?$AA?5?$AAs?$AAe?$AAn?$AAd?$AA?5?$AAi?$AAm?$AAa?$AAg?$AAe@ 0053b9a8     Transfer.obj
 0002:0000ba00       ??_C@_1DA@EJIH@?$AAF?$AAi?$AAl?$AAe?$AA?5?$AAd?$AAo?$AAe?$AAs?$AA?5?$AAn?$AAo?$AAt?$AA?5?$AAe?$AAx?$AAi?$AAs?$AAt?$AA?3@ 0053ba00     Transfer.obj
 0002:0000ba3c       ??_C@_1CO@PHFG@?$AAD?$AAi?$AAs?$AAc?$AAo?$AAn?$AAn?$AAe?$AAc?$AAt?$AA?5?$AAs?$AAe?$AAr?$AAv?$AAe?$AAr?$AA?5?$AA?$CI?$AA?$CF@ 0053ba3c     Transfer.obj
 0002:0000ba74       ??_C@_1EC@DKMG@?$AAS?$AAe?$AAn?$AAd?$AAi?$AAn?$AAg?$AA?5?$AAi?$AAm?$AAa?$AAg?$AAe?$AAs?$AA?5?$AAt?$AAo?$AA?5?$AAs?$AAe@ 0053ba74     Transfer.obj
 0002:0000bac4       ??_C@_19FAGA@?$AAS?$AAe?$AAn?$AAd?$AA?$AA@ 0053bac4     Transfer.obj
 0002:0000bad0       ??_C@_1DM@KJBC@?$AAF?$AAa?$AAi?$AAl?$AAe?$AAd?$AA?5?$AAt?$AAo?$AA?5?$AAc?$AAo?$AAn?$AAn?$AAe?$AAc?$AAt?$AA?5?$AAs?$AAe@ 0053bad0     Transfer.obj
 0002:0000bb18       ??_C@_0BI@DFIE@m_pDcmPartner?4Connect?$CI?$CJ?$AA@ 0053bb18     Transfer.obj
 0002:0000bb34       ??_C@_1DK@JOLA@?$AAC?$AAo?$AAn?$AAn?$AAe?$AAc?$AAt?$AAi?$AAn?$AAg?$AA?5?$AAt?$AAo?$AA?5?$AAs?$AAe?$AAr?$AAv?$AAe?$AAr@ 0053bb34     Transfer.obj
 0002:0000bb7c       ??_C@_0CM@JIPO@CTransfer?3?3m_XMLParser?4GetAutoSe@ 0053bb7c     Transfer.obj
 0002:0000bbb0       ??_C@_1DG@BDP@?$AAT?$AAr?$AAa?$AAn?$AAs?$AAf?$AAe?$AAr?$AA?5?$AAS?$AAu?$AAb?$AAM?$AAo?$AAd?$AAu?$AAl?$AAe?$AA?5?$AAs@ 0053bbb0     Transfer.obj
 0002:0000bbf0       ??_C@_0CJ@NHBK@m_XMLParser?4SetDefaultManualServ@ 0053bbf0     Transfer.obj
 0002:0000bc24       ??_C@_13DOPK@?$AA?$HM?$AA?$AA@ 0053bc24     Transfer.obj
 0002:0000bc28       ??_C@_1CA@GLGJ@?$AAP?$AAa?$AAt?$AAi?$AAe?$AAn?$AAt?$AA?5?$AAS?$AAi?$AAz?$AAe?$AA?3?$AA?$CF?$AAd?$AA?$AA@ 0053bc28     Transfer.obj
 0002:0000bc50       ??_C@_0BD@CMOA@Before?5Patient?5For?$AA@ 0053bc50     Transfer.obj
 0002:0000bc68       ??_C@_0CB@CEIB@In?5NotifyUIModifyDB?5pJob?5is?5null@ 0053bc68     Transfer.obj
 0002:0000bc94       ??_7CTransferXMLParser@@6B@ 0053bc94     TransferXMLParser.obj
 0002:0000bc9c       ??_C@_0DP@HHF@E?3?2DX0806?2N?5Series?2PrintingArchi@ 0053bc9c     TransferXMLParser.obj
 0002:0000bce8       ??_C@_17KNCB@?$AA?4?$AAb?$AAk?$AA?$AA@ 0053bce8     TransferXMLParser.obj
 0002:0000bcf4       ??_C@_1CM@NEPJ@?$AAT?$AAr?$AAa?$AAn?$AAs?$AAf?$AAe?$AAr?$AAS?$AAv?$AAr?$AAC?$AAo?$AAn?$AAf?$AAi?$AAg?$AA?4?$AAx?$AAm@ 0053bcf4     TransferXMLParser.obj
 0002:0000bd28       ??_C@_1O@PBJI@?$AAs?$AAe?$AAn?$AAd?$AAP?$AAS?$AA?$AA@ 0053bd28     TransferXMLParser.obj
 0002:0000bd38       ??_C@_1BE@OFDI@?$AAp?$AAr?$AAo?$AAc?$AAe?$AAs?$AAs?$AAe?$AAd?$AA?$AA@ 0053bd38     TransferXMLParser.obj
 0002:0000bd50       ??_C@_17DGAC@?$AAr?$AAa?$AAw?$AA?$AA@ 0053bd50     TransferXMLParser.obj
 0002:0000bd5c       ??_C@_19ECFN@?$AAh?$AAo?$AAs?$AAt?$AA?$AA@ 0053bd5c     TransferXMLParser.obj
 0002:0000bd68       ??_C@_19NELL@?$AAp?$AAo?$AAr?$AAt?$AA?$AA@ 0053bd68     TransferXMLParser.obj
 0002:0000bd74       ??_C@_1BA@DCBA@?$AAa?$AAd?$AAd?$AAr?$AAe?$AAs?$AAs?$AA?$AA@ 0053bd74     TransferXMLParser.obj
 0002:0000bd88       ??_C@_1O@EMIG@?$AAs?$AAe?$AAr?$AAv?$AAe?$AAr?$AA?$AA@ 0053bd88     TransferXMLParser.obj
 0002:0000bd98       ??_C@_1M@JIIM@?$AAs?$AAt?$AAa?$AAt?$AAe?$AA?$AA@ 0053bd98     TransferXMLParser.obj
 0002:0000bda8       ??_C@_1BA@DOKD@?$AA?$CF?$AAs?$AA?2?$AA?$CF?$AAs?$AA?$CF?$AAd?$AA?$AA@ 0053bda8     TransferXMLParser.obj
 0002:0000bdbc       ??_C@_19EPBP@?$AAi?$AAt?$AAe?$AAm?$AA?$AA@ 0053bdbc     TransferXMLParser.obj
 0002:0000bdc8       ??_C@_1FA@DGAG@?$AAe?$AAn?$AAu?$AAm?$AAX?$AAm?$AAl?$AAA?$AAx?$AAO?$AAK?$AA?5?$AA?$CB?$AA?$DN?$AA?5?$AAx?$AAm?$AAl?$AA?4?$AAG@ 0053bdc8     TransferXMLParser.obj
 0002:0000be28       ??_C@_1O@EHCG@?$AAn?$AAu?$AAm?$AAb?$AAe?$AAr?$AA?$AA@ 0053be28     TransferXMLParser.obj
 0002:0000be38       ??_C@_19KIFI@?$AAA?$AAU?$AAT?$AAO?$AA?$AA@ 0053be38     TransferXMLParser.obj
 0002:0000be44       ??_C@_1O@KMIP@?$AAM?$AAA?$AAN?$AAU?$AAA?$AAL?$AA?$AA@ 0053be44     TransferXMLParser.obj
 0002:0000be54       ??_C@_0BB@EGIK@xml?4GenXmlSave?$CI?$CJ?$AA@ 0053be54     TransferXMLParser.obj
 0002:0000be68       ??_C@_1FC@DGMJ@?$AAe?$AAn?$AAu?$AAm?$AAX?$AAm?$AAl?$AAA?$AAx?$AAO?$AAK?$AA?5?$AA?$CB?$AA?$DN?$AA?5?$AAx?$AAm?$AAl?$AA?4?$AAG@ 0053be68     TransferXMLParser.obj
 0002:0000becc       ??_C@_1FG@COAM@?$AAe?$AAn?$AAu?$AAm?$AAX?$AAm?$AAl?$AAA?$AAx?$AAO?$AAK?$AA?5?$AA?$CB?$AA?$DN?$AA?5?$AAx?$AAm?$AAl?$AA?4?$AAs@ 0053becc     TransferXMLParser.obj
 0002:0000bf34       ??_C@_1EM@LMGG@?$AAe?$AAn?$AAu?$AAm?$AAX?$AAm?$AAl?$AAA?$AAx?$AAO?$AAK?$AA?5?$AA?$CB?$AA?$DN?$AA?5?$AAx?$AAm?$AAl?$AA?4?$AAG@ 0053bf34     TransferXMLParser.obj
 0002:0000bf90       ??_C@_1EE@BBGH@?$AAx?$AAm?$AAl?$AA?4?$AAG?$AAe?$AAn?$AAX?$AAm?$AAl?$AAI?$AAn?$AAi?$AA?$CI?$AAs?$AAz?$AAF?$AAi?$AAl?$AAe@ 0053bf90     TransferXMLParser.obj
 0002:0000bfe4       ??_C@_1CG@OAFI@?$AAA?$AAU?$AAT?$AAO?$AAT?$AAR?$AAA?$AAN?$AAS?$AAF?$AAE?$AAR?$AAS?$AAT?$AAA?$AAT?$AAU?$AAS?$AA?$AA@ 0053bfe4     TransferXMLParser.obj
 0002:0000c014       ??_C@_1CG@OKOJ@?$AAA?$AAS?$AAK?$AAF?$AAO?$AAR?$AAA?$AAU?$AAT?$AAO?$AAT?$AAR?$AAA?$AAN?$AAS?$AAF?$AAE?$AAR?$AA?$AA@ 0053c014     TransferXMLParser.obj
 0002:0000c048       ??_7CUserGuidanceOpt@@6B@  0053c048     UserGuidanceOpt.obj
 0002:0000c050       ??_C@_1DA@NGGE@?$AA?$CF?$AAd?$AA?5?$AA?$DN?$AA?$DN?$AA?5?$AAL?$AAo?$AAa?$AAd?$AAL?$AAi?$AAb?$AAr?$AAa?$AAr?$AAy?$AA?$CI?$AA?$CJ?$AA?3@ 0053c050     UserGuidanceOpt.obj
 0002:0000c08c       ??_C@_1EM@FCFF@?$AAd?$AAw?$AAR?$AAe?$AAt?$AA?5?$AA?$DN?$AA?5?$AAG?$AAe?$AAt?$AAM?$AAo?$AAd?$AAu?$AAl?$AAe?$AAF?$AAi?$AAl@ 0053c08c     UserGuidanceOpt.obj
 0002:0000c0e8       ??_C@_1GA@BJIF@?$AAN?$AAU?$AAL?$AAL?$AA?5?$AA?$DN?$AA?$DN?$AA?5?$AAw?$AAc?$AAs?$AAr?$AAc?$AAh?$AAr?$AA?$CI?$AAs?$AAz?$AAB?$AAu@ 0053c0e8     UserGuidanceOpt.obj
 0002:0000c15c       ??_C@_1CK@OEBF@?$AA?2?$AAU?$AAs?$AAe?$AAr?$AAG?$AAu?$AAi?$AAd?$AAa?$AAn?$AAc?$AAe?$AAR?$AAe?$AAs?$AA?4?$AAd?$AAl?$AAl@ 0053c15c     UserGuidanceOpt.obj
 0002:0000c190       ??_C@_0DN@DFKH@E?3?2DX0806?2N?5Series?2PrintingArchi@ 0053c190     UserGuidanceOpt.obj
 0002:0000c1dc       ??_C@_0DE@MNCD@E?3?2DX0806?2N?5Series?2PrintingArchi@ 0053c1dc     WlMpps.obj
 0002:0000c220       ??_7CWlMpps@@6B@           0053c220     WlMpps.obj
 0002:0000c234       ??_C@_0BG@OAIC@m_pMppsIniOpt?9?$DOInit?$CI?$CJ?$AA@ 0053c234     WlMpps.obj
 0002:0000c250       ??_C@_0BE@CHFC@m_pWLIniOpt?9?$DOInit?$CI?$CJ?$AA@ 0053c250     WlMpps.obj
 0002:0000c268       ??_C@_0BC@OIPD@CancelMppsNProc?$CI?$CJ?$AA@ 0053c268     WlMpps.obj
 0002:0000c280       ??_C@_0O@DPDL@CancelQuery?$CI?$CJ?$AA@ 0053c280     WlMpps.obj
 0002:0000c290       ??_C@_0BB@KJBI@ReportWorkList?$CI?$CJ?$AA@ 0053c290     WlMpps.obj
 0002:0000c2a4       ??_C@_0FB@CKAP@m_hWLQueryThread?5?$DN?5CreateThread?$CI@ 0053c2a4     WlMpps.obj
 0002:0000c308       ??_C@_1KA@IEMN@?$AAn?$AAo?$AAt?$AA?5?$AAf?$AAo?$AAu?$AAn?$AAd?$AA?5?$AAi?$AAn?$AAp?$AAu?$AAt?$AA?5?$AAp?$AAa?$AAr?$AAa@ 0053c308     WlMpps.obj
 0002:0000c3c8       ??_C@_13KLHO@?$AAO?$AA?$AA@ 0053c3c8     WlMpps.obj
 0002:0000c3cc       ??_C@_13GJNN@?$AAF?$AA?$AA@ 0053c3cc     WlMpps.obj
 0002:0000c3d0       ??_C@_13PFD@?$AAM?$AA?$AA@ 0053c3d0     WlMpps.obj
 0002:0000c3d4       ??_C@_1KI@HHEB@?$AAC?$AAD?$AAB?$AAC?$AAo?$AAn?$AAt?$AAr?$AAo?$AAl?$AAl?$AAe?$AAr?$AA?3?$AA?3?$AAG?$AAe?$AAt?$AAI?$AAn@ 0053c3d4     WlMpps.obj
 0002:0000c4a0       ??_C@_1IG@EOIE@?$AAC?$AAD?$AAB?$AAC?$AAo?$AAn?$AAt?$AAr?$AAo?$AAl?$AAl?$AAe?$AAr?$AA?3?$AA?3?$AAG?$AAe?$AAt?$AAI?$AAn@ 0053c4a0     WlMpps.obj
 0002:0000c540       ??_C@_1IA@KMLN@?$AAC?$AAD?$AAB?$AAC?$AAo?$AAn?$AAt?$AAr?$AAo?$AAl?$AAl?$AAe?$AAr?$AA?3?$AA?3?$AAG?$AAe?$AAt?$AAI?$AAn@ 0053c540     WlMpps.obj
 0002:0000c5dc       ??_C@_1MG@NDIO@?$AAC?$AAP?$AAA?$AAD?$AAa?$AAt?$AAa?$AAB?$AAa?$AAs?$AAe?$AAO?$AAp?$AAt?$AA?3?$AA?3?$AAG?$AAe?$AAt?$AAI@ 0053c5dc     WlMpps.obj
 0002:0000c6cc       ??_C@_0CP@EGMM@m_WLOpt?4Query?$CI?$CGvtrWLQueryCond?0?5?$CG@ 0053c6cc     WlMpps.obj
 0002:0000c704       ??_C@_0FH@NJLF@m_WLOpt?4Query?$CI?$CGvtrWLQueryCond?0?5?$CG@ 0053c704     WlMpps.obj
 0002:0000c76c       ??_C@_0DF@DOGC@m_pWLIniOpt?9?$DOGetDefaultWorklistS@ 0053c76c     WlMpps.obj
 0002:0000c7ac       ??_C@_0GK@MONP@E_WLMPPS_NO_SERVER?5or?5E_WLMPPS_N@ 0053c7ac     WlMpps.obj
 0002:0000c82c       ??_C@_0CF@DDIE@ModifyQueryCondition?$CIvtrWLQueryC@ 0053c82c     WlMpps.obj
 0002:0000c858       ??_C@_0CP@JMJE@m_pWLIniOpt?9?$DOGetQueryItemList?$CI?$CGv@ 0053c858     WlMpps.obj
 0002:0000c890       ??_C@_0CH@OAPO@?3?3TerminateThread?$CIm_hWLQueryThre@ 0053c890     WlMpps.obj
 0002:0000c8c0       ??_C@_0IC@OBJL@CDBController?3?3GetInstance?$CI?$CJ?9?$DOGe@ 0053c8c0     WlMpps.obj
 0002:0000c95c       ??_C@_1IG@PKIN@?$AAm?$AA_?$AAv?$AAt?$AAr?$AAW?$AAL?$AAS?$AAt?$AAr?$AAu?$AAc?$AAt?$AA?$FL?$AAi?$AA?$FN?$AA?4?$AAs?$AAt?$AAr@ 0053c95c     WlMpps.obj
 0002:0000c9fc       ??_C@_1DE@ECJA@?$AA?$CF?$AA0?$AA4?$AAd?$AA?$CF?$AA0?$AA2?$AAd?$AA?$CF?$AA0?$AA2?$AAd?$AA?9?$AA?$CF?$AA0?$AA4?$AAd?$AA?$CF?$AA0?$AA2@ 0053c9fc     WlMpps.obj
 0002:0000ca3c       ??_C@_1BC@CNJP@?$AA?$CF?$AAs?$AA?9?$AA?$CF?$AAs?$AA?9?$AA?$CF?$AAs?$AA?$AA@ 0053ca3c     WlMpps.obj
 0002:0000ca54       ??_C@_1BC@KNPC@?$AA?$CF?$AAs?$AA?3?$AA?$CF?$AAs?$AA?3?$AA?$CF?$AAs?$AA?$AA@ 0053ca54     WlMpps.obj
 0002:0000ca6c       ??_C@_1BC@PMIG@?$AA?$CF?$AAs?$AA?3?$AA?$CF?$AAs?$AA?3?$AA0?$AA0?$AA?$AA@ 0053ca6c     WlMpps.obj
 0002:0000ca84       ??_C@_1BC@MABJ@?$AA?$CF?$AAs?$AA?3?$AA0?$AA0?$AA?3?$AA0?$AA0?$AA?$AA@ 0053ca84     WlMpps.obj
 0002:0000ca9c       ??_C@_1BK@CNKI@?$AA?$CF?$AA0?$AA4?$AAd?$AA?$CF?$AA0?$AA2?$AAd?$AA?$CF?$AA0?$AA2?$AAd?$AA?$AA@ 0053ca9c     WlMpps.obj
 0002:0000cabc       ??_C@_1HG@MGMA@?$AAC?$AAD?$AAB?$AAC?$AAo?$AAn?$AAt?$AAr?$AAo?$AAl?$AAl?$AAe?$AAr?$AA?3?$AA?3?$AAG?$AAe?$AAt?$AAI?$AAn@ 0053cabc     WlMpps.obj
 0002:0000cb4c       ??_C@_1HE@NPB@?$AAC?$AAD?$AAB?$AAC?$AAo?$AAn?$AAt?$AAr?$AAo?$AAl?$AAl?$AAe?$AAr?$AA?3?$AA?3?$AAG?$AAe?$AAt?$AAI?$AAn@ 0053cb4c     WlMpps.obj
 0002:0000cbd8       ??_C@_0DO@JEGF@CreateThread?$CINULL?0?50?0?5SetMppsSta@ 0053cbd8     WlMpps.obj
 0002:0000cc24       ??_C@_1LO@ILPB@?$AAS?$AAE?$AAT?$AA?5?$AAi?$AAs?$AA?5?$AAi?$AAn?$AAv?$AAa?$AAl?$AAi?$AAd?$AA?5?$AAs?$AAi?$AAn?$AAc?$AAe@ 0053cc24     WlMpps.obj
 0002:0000cd08       ??_C@_0CC@KNBD@it?9?$DOpMppsOpt?9?$DONCreate?$CI?$CJ?5or?5NSet?$CI@ 0053cd08     WlMpps.obj
 0002:0000cd30       ??_C@_0EN@HACM@it?9?$DOpMppsOpt?9?$DONCreate?$CI?$CJ?5or?5NSet?$CI@ 0053cd30     WlMpps.obj
 0002:0000cd8c       ??_C@_0EK@MLAC@it?9?$DOpMppsOpt?9?$DONCreate?$CI?$CJ?5or?5NSet?$CI@ 0053cd8c     WlMpps.obj
 0002:0000cde4       ??_C@_1HM@OHPM@?$AAC?$AAD?$AAB?$AAC?$AAo?$AAn?$AAt?$AAr?$AAo?$AAl?$AAl?$AAe?$AAr?$AA?3?$AA?3?$AAG?$AAe?$AAt?$AAI?$AAn@ 0053cde4     WlMpps.obj
 0002:0000ce78       ??_C@_1HE@OIFB@?$AAi?$AAt?$AA?9?$AA?$DO?$AAp?$AAM?$AAp?$AAp?$AAs?$AAO?$AAp?$AAt?$AA?9?$AA?$DO?$AAN?$AAC?$AAr?$AAe?$AAa?$AAt@ 0053ce78     WlMpps.obj
 0002:0000cf08       ??_SCMppsOpt@@6B@          0053cf08     WlMpps.obj
 0002:0000cf10       ??_C@_0CK@JGBM@UpdateNSetItems?$CIvtrItems?0?5it?9?$DOen@ 0053cf10     WlMpps.obj
 0002:0000cf44       ??_C@_0CO@NFIK@UpdateNCreateItems?$CIvtrItems?0?5it?9@ 0053cf44     WlMpps.obj
 0002:0000cf7c       ??_C@_0BL@JDKL@GetNCreateItems?$CI?$CGvtrItems?$CJ?$AA@ 0053cf7c     WlMpps.obj
 0002:0000cf9c       ??_C@_0CN@OILM@m_pMppsIniOpt?9?$DOGetDefaultServer?$CI@ 0053cf9c     WlMpps.obj
 0002:0000cfd4       ??_C@_0GE@FOMI@E_WLMPPS_NO_SERVER?5or?5E_WLMPPS_N@ 0053cfd4     WlMpps.obj
 0002:0000d04c       ??_C@_0BN@JKP@TerminateThread?$CIit?9?$DOhThread?$CJ?$AA@ 0053d04c     WlMpps.obj
 0002:0000d070       ??_C@_1BI@JNCN@?$AAI?$AAN?$AA?5?$AAP?$AAR?$AAO?$AAG?$AAR?$AAE?$AAS?$AAS?$AA?$AA@ 0053d070     WlMpps.obj
 0002:0000d08c       ??_C@_1HO@MEMI@?$AAC?$AAD?$AAB?$AAC?$AAo?$AAn?$AAt?$AAr?$AAo?$AAl?$AAl?$AAe?$AAr?$AA?3?$AA?3?$AAG?$AAe?$AAt?$AAI?$AAn@ 0053d08c     WlMpps.obj
 0002:0000d124       ??_C@_1BE@MMOJ@?$AAC?$AAO?$AAM?$AAP?$AAL?$AAE?$AAT?$AAE?$AAD?$AA?$AA@ 0053d124     WlMpps.obj
 0002:0000d13c       ??_C@_1BK@IFFP@?$AAD?$AAI?$AAS?$AAC?$AAO?$AAN?$AAT?$AAI?$AAN?$AAU?$AAE?$AAD?$AA?$AA@ 0053d13c     WlMpps.obj
 0002:0000d15c       ??_C@_13NIAC@?$AA?$FO?$AA?$AA@ 0053d15c     WlMpps.obj
 0002:0000d160       ??_C@_0CE@NKOJ@?91?5?$DN?$DN?5strNameBeginByMid?4Find?$CI_T?$CI@ 0053d160     WlMpps.obj
 0002:0000d18c       ??_C@_0CG@PIMB@?91?5?$DN?$DN?5strPatientNameInDB?4Find?$CI_T@ 0053d18c     WlMpps.obj
 0002:0000d1bc       ??_C@_15FACL@?$AA?$CD?$AA?$CD?$AA?$AA@ 0053d1bc     WlMpps.obj
 0002:0000d1c4       ??_C@_1CE@BEHH@?$AA?$CF?$AA0?$AA2?$AAd?$AA?$CF?$AA0?$AA2?$AAd?$AA?$CF?$AA0?$AA2?$AAd?$AA?4?$AA?$CF?$AA0?$AA3?$AAd?$AA?$AA@ 0053d1c4     WlMpps.obj
 0002:0000d1f0       ??_C@_1O@DCHK@?$AA?$CF?$AAY?$AA?$CF?$AAm?$AA?$CF?$AAd?$AA?$AA@ 0053d1f0     WlMpps.obj
 0002:0000d204       ??_7CWorklistIniOpt@@6B@   0053d204     WorklistIniOpt.obj
 0002:0000d20c       ??_C@_1BK@OCPJ@?$AAW?$AAo?$AAr?$AAk?$AAl?$AAi?$AAs?$AAt?$AA?4?$AAi?$AAn?$AAi?$AA?$AA@ 0053d20c     WorklistIniOpt.obj
 0002:0000d22c       ??_C@_1CA@FCHD@?$AAW?$AAo?$AAr?$AAk?$AAL?$AAi?$AAs?$AAt?$AA_?$AAS?$AAe?$AAr?$AAv?$AAe?$AAr?$AA?$AA@ 0053d22c     WorklistIniOpt.obj
 0002:0000d254       ??_C@_1CK@DJGM@?$AAW?$AAo?$AAr?$AAk?$AAL?$AAi?$AAs?$AAt?$AA_?$AAS?$AAe?$AAr?$AAv?$AAe?$AAr?$AA_?$AAI?$AAn?$AAf?$AAo@ 0053d254     WorklistIniOpt.obj
 0002:0000d288       ??_C@_19GBK@?$AAI?$AAt?$AAe?$AAm?$AA?$AA@ 0053d288     WorklistIniOpt.obj
 0002:0000d294       ??_C@_1FE@FAPC@?$AAS?$AAc?$AAh?$AAe?$AAd?$AAu?$AAl?$AAe?$AAd?$AA_?$AAP?$AAr?$AAo?$AAc?$AAe?$AAd?$AAu?$AAr?$AAe?$AA_@ 0053d294     WorklistIniOpt.obj
 0002:0000d2f8       ??_C@_1BI@PMNE@?$AAI?$AAn?$AAf?$AAo?$AAr?$AAm?$AAa?$AAt?$AAi?$AAo?$AAn?$AA?$AA@ 0053d2f8     WorklistIniOpt.obj
 0002:0000d314       ??_C@_1FI@FEPG@?$AAS?$AAc?$AAh?$AAe?$AAd?$AAu?$AAl?$AAe?$AAd?$AA_?$AAP?$AAr?$AAo?$AAc?$AAe?$AAd?$AAu?$AAr?$AAe?$AA_@ 0053d314     WorklistIniOpt.obj
 0002:0000d390       ??_7type_info@@6B@         0053d390     msvcrt:ti_inst.obj
 0002:0000d3b8       _IID_IUnknown              0053d3b8     uuid:unknwn_i_guid0.obj
 0002:0000d3c8       _IID_IConnectionPointContainer 0053d3c8     uuid:ocidl_i_guid3.obj
 0002:0000d3d8       _CLSID_StdComponentCategoriesMgr 0053d3d8     uuid:guids_guid180.obj
 0002:0000d3e8       _IID_ICatRegister          0053d3e8     uuid:comcat_i_guid2.obj
 0002:0000d3f8       _IID_IConnectionPoint      0053d3f8     uuid:ocidl_i_guid1.obj
 0002:0000d408       _IID_IEnumConnectionPoints 0053d408     uuid:ocidl_i_guid2.obj
 0002:0000d418       _IID_IEnumConnections      0053d418     uuid:ocidl_i_guid0.obj
 0002:0000d42c       ??_7_com_error@@6B@        0053d42c     comsupp:comraise.obj
 0002:0000d7e0       ??_R1A@?0A@A@CObject@@8    0053d7e0     ado.obj
 0002:0000d800       ??_R1A@?0A@A@CSyncObject@@8 0053d800     ado.obj
 0002:0000d820       ??_R1A@?0A@A@CCriticalSection@@8 0053d820     ado.obj
 0002:0000d840       ??_R2CCriticalSection@@8   0053d840     ado.obj
 0002:0000d850       ??_R3CCriticalSection@@8   0053d850     ado.obj
 0002:0000d868       ??_R4CCriticalSection@@6B@ 0053d868     ado.obj
 0002:0000d880       ??_R1A@?0A@A@CBSTROpt@@8   0053d880     BSTROpt.obj
 0002:0000d89c       ??_R2CBSTROpt@@8           0053d89c     BSTROpt.obj
 0002:0000d8a8       ??_R3CBSTROpt@@8           0053d8a8     BSTROpt.obj
 0002:0000d8c0       ??_R4CBSTROpt@@6B@         0053d8c0     BSTROpt.obj
 0002:0000d8d8       ??_R1A@?0A@A@CBuffer@@8    0053d8d8     Buffer.obj
 0002:0000d8f4       ??_R2CBuffer@@8            0053d8f4     Buffer.obj
 0002:0000d900       ??_R3CBuffer@@8            0053d900     Buffer.obj
 0002:0000d918       ??_R4CBuffer@@6B@          0053d918     Buffer.obj
 0002:0000d930       ??_R4CBurner@@6BNSubject@@@ 0053d930     Burner.obj
 0002:0000d948       ??_R13?0A@A@NSubject@@8    0053d948     Burner.obj
 0002:0000d968       ??_R1A@?0A@A@NObserver@@8  0053d968     Burner.obj
 0002:0000d988       ??_R1A@?0A@A@CBurner@@8    0053d988     Burner.obj
 0002:0000d9a8       ??_R2CBurner@@8            0053d9a8     Burner.obj
 0002:0000d9b8       ??_R3CBurner@@8            0053d9b8     Burner.obj
 0002:0000d9d0       ??_R4CBurner@@6BNObserver@@@ 0053d9d0     Burner.obj
 0002:0000d9e8       ??_R1A@?0A@A@CDBController@@8 0053d9e8     DBController.obj
 0002:0000da04       ??_R2CDBController@@8      0053da04     DBController.obj
 0002:0000da10       ??_R3CDBController@@8      0053da10     DBController.obj
 0002:0000da28       ??_R4CDBController@@6B@    0053da28     DBController.obj
 0002:0000da40       ??_R1A@?0A@A@DBDatabaseBasisOpt@@8 0053da40     DBDatabaseBasisOpt.obj
 0002:0000da60       ??_R2DBDatabaseBasisOpt@@8 0053da60     DBDatabaseBasisOpt.obj
 0002:0000da70       ??_R3DBDatabaseBasisOpt@@8 0053da70     DBDatabaseBasisOpt.obj
 0002:0000da88       ??_R4DBDatabaseBasisOpt@@6B@ 0053da88     DBDatabaseBasisOpt.obj
 0002:0000daa0       ??_R2CObject@@8            0053daa0     DBDatabaseBasisOpt.obj
 0002:0000daa8       ??_R3CObject@@8            0053daa8     DBDatabaseBasisOpt.obj
 0002:0000dac0       ??_R4CObject@@6B@          0053dac0     DBDatabaseBasisOpt.obj
 0002:0000dad8       ??_R1A@?0A@A@DBDatabaseOpt@@8 0053dad8     DBDatabaseOpt.obj
 0002:0000daf4       ??_R2DBDatabaseOpt@@8      0053daf4     DBDatabaseOpt.obj
 0002:0000db00       ??_R3DBDatabaseOpt@@8      0053db00     DBDatabaseOpt.obj
 0002:0000db18       ??_R4DBDatabaseOpt@@6B@    0053db18     DBDatabaseOpt.obj
 0002:0000db30       ??_R1A@?0A@A@IUnknown@@8   0053db30     DBSink.obj
 0002:0000db50       ??_R1A@?0A@A@IGeneralEvent@@8 0053db50     DBSink.obj
 0002:0000db70       ??_R1A@?0A@A@CDBSink@@8    0053db70     DBSink.obj
 0002:0000db90       ??_R2CDBSink@@8            0053db90     DBSink.obj
 0002:0000dba0       ??_R3CDBSink@@8            0053dba0     DBSink.obj
 0002:0000dbb8       ??_R4CDBSink@@6B@          0053dbb8     DBSink.obj
 0002:0000dbd0       ??_R1A@?0A@A@CDBStructInitor@@8 0053dbd0     DBStructInitor.obj
 0002:0000dbec       ??_R2CDBStructInitor@@8    0053dbec     DBStructInitor.obj
 0002:0000dbf8       ??_R3CDBStructInitor@@8    0053dbf8     DBStructInitor.obj
 0002:0000dc10       ??_R4CDBStructInitor@@6B@  0053dc10     DBStructInitor.obj
 0002:0000dc28       ??_R4CDcmPartner@@6BCDcmGen@@@ 0053dc28     DcmPartner.obj
 0002:0000dc40       ??_R1BA@?0A@A@CDcmGen@@8   0053dc40     DcmPartner.obj
 0002:0000dc60       ??_R1A@?0A@A@NSubject@@8   0053dc60     DcmPartner.obj
 0002:0000dc80       ??_R1A@?0A@A@CDcmPartner@@8 0053dc80     DcmPartner.obj
 0002:0000dca0       ??_R2CDcmPartner@@8        0053dca0     DcmPartner.obj
 0002:0000dcb0       ??_R3CDcmPartner@@8        0053dcb0     DcmPartner.obj
 0002:0000dcc8       ??_R4CDcmPartner@@6BNSubject@@@ 0053dcc8     DcmPartner.obj
 0002:0000dce0       ??_R1A@?0A@A@CDirHandler@@8 0053dce0     DirHandler.obj
 0002:0000dcfc       ??_R2CDirHandler@@8        0053dcfc     DirHandler.obj
 0002:0000dd08       ??_R3CDirHandler@@8        0053dd08     DirHandler.obj
 0002:0000dd20       ??_R4CDirHandler@@6B@      0053dd20     DirHandler.obj
 0002:0000dd38       ??_R4CDiscImport@@6BNSubject@@@ 0053dd38     DiscImport.obj
 0002:0000dd50       ??_R1A@?0A@A@CDiscImport@@8 0053dd50     DiscImport.obj
 0002:0000dd70       ??_R2CDiscImport@@8        0053dd70     DiscImport.obj
 0002:0000dd80       ??_R3CDiscImport@@8        0053dd80     DiscImport.obj
 0002:0000dd98       ??_R4CDiscImport@@6BNObserver@@@ 0053dd98     DiscImport.obj
 0002:0000ddb0       ??_R1A@?0A@A@CDcmDirParser@@8 0053ddb0     DiscImport.obj
 0002:0000ddcc       ??_R2CDcmDirParser@@8      0053ddcc     DiscImport.obj
 0002:0000ddd8       ??_R3CDcmDirParser@@8      0053ddd8     DiscImport.obj
 0002:0000ddf0       ??_R4CDcmDirParser@@6B@    0053ddf0     DiscImport.obj
 0002:0000de08       ??_R1A@?0A@A@CDcmParser@@8 0053de08     DiscImport.obj
 0002:0000de24       ??_R2CDcmParser@@8         0053de24     DiscImport.obj
 0002:0000de30       ??_R3CDcmParser@@8         0053de30     DiscImport.obj
 0002:0000de48       ??_R4CDcmParser@@6B@       0053de48     DiscImport.obj
 0002:0000de60       ??_R1A@?0A@A@CFCPartner@@8 0053de60     FCPartner.obj
 0002:0000de80       ??_R2CFCPartner@@8         0053de80     FCPartner.obj
 0002:0000de90       ??_R3CFCPartner@@8         0053de90     FCPartner.obj
 0002:0000dea8       ??_R4CFCPartner@@6B@       0053dea8     FCPartner.obj
 0002:0000dec0       ??_R1A@?0A@A@CFilePicker@@8 0053dec0     FilePicker.obj
 0002:0000dedc       ??_R2CFilePicker@@8        0053dedc     FilePicker.obj
 0002:0000dee8       ??_R3CFilePicker@@8        0053dee8     FilePicker.obj
 0002:0000df00       ??_R4CFilePicker@@6B@      0053df00     FilePicker.obj
 0002:0000df18       ??_R1A@?0A@A@CFireMsgQueue@@8 0053df18     FireMsgQueue.obj
 0002:0000df34       ??_R2CFireMsgQueue@@8      0053df34     FireMsgQueue.obj
 0002:0000df40       ??_R3CFireMsgQueue@@8      0053df40     FireMsgQueue.obj
 0002:0000df58       ??_R4CFireMsgQueue@@6B@    0053df58     FireMsgQueue.obj
 0002:0000df70       ??_R1A@?0A@A@CFireMsgQueueMng@@8 0053df70     FireMsgQueueMng.obj
 0002:0000df8c       ??_R2CFireMsgQueueMng@@8   0053df8c     FireMsgQueueMng.obj
 0002:0000df98       ??_R3CFireMsgQueueMng@@8   0053df98     FireMsgQueueMng.obj
 0002:0000dfb0       ??_R4CFireMsgQueueMng@@6B@ 0053dfb0     FireMsgQueueMng.obj
 0002:0000dfc8       ??_R1A@?0A@A@CIDPathGen@@8 0053dfc8     IDPathGen.obj
 0002:0000dfe4       ??_R2CIDPathGen@@8         0053dfe4     IDPathGen.obj
 0002:0000dff0       ??_R3CIDPathGen@@8         0053dff0     IDPathGen.obj
 0002:0000e008       ??_R4CIDPathGen@@6B@       0053e008     IDPathGen.obj
 0002:0000e020       ??_R1A@?0A@A@CIniOpt@@8    0053e020     IniOpt.obj
 0002:0000e03c       ??_R2CIniOpt@@8            0053e03c     IniOpt.obj
 0002:0000e048       ??_R3CIniOpt@@8            0053e048     IniOpt.obj
 0002:0000e060       ??_R4CIniOpt@@6B@          0053e060     IniOpt.obj
 0002:0000e078       ??_R1A@?0A@A@CISController@@8 0053e078     ISController.obj
 0002:0000e094       ??_R2CISController@@8      0053e094     ISController.obj
 0002:0000e0a0       ??_R3CISController@@8      0053e0a0     ISController.obj
 0002:0000e0b8       ??_R4CISController@@6B@    0053e0b8     ISController.obj
 0002:0000e0d0       ??_R4CJobHandler@@6BNSubject@@@ 0053e0d0     JobHandler.obj
 0002:0000e0e8       ??_R1A@?0A@A@CJobHandler@@8 0053e0e8     JobHandler.obj
 0002:0000e108       ??_R2CJobHandler@@8        0053e108     JobHandler.obj
 0002:0000e118       ??_R3CJobHandler@@8        0053e118     JobHandler.obj
 0002:0000e130       ??_R4CJobHandler@@6BNObserver@@@ 0053e130     JobHandler.obj
 0002:0000e148       ??_R1A@?0A@A@CJobQueue@@8  0053e148     JobQueue.obj
 0002:0000e164       ??_R2CJobQueue@@8          0053e164     JobQueue.obj
 0002:0000e170       ??_R3CJobQueue@@8          0053e170     JobQueue.obj
 0002:0000e188       ??_R4CJobQueue@@6B@        0053e188     JobQueue.obj
 0002:0000e1a0       ??_R1A@?0A@A@CLanguageIniOpt@@8 0053e1a0     LanguageIniOpt.obj
 0002:0000e1c0       ??_R2CLanguageIniOpt@@8    0053e1c0     LanguageIniOpt.obj
 0002:0000e1d0       ??_R3CLanguageIniOpt@@8    0053e1d0     LanguageIniOpt.obj
 0002:0000e1e8       ??_R4CLanguageIniOpt@@6B@  0053e1e8     LanguageIniOpt.obj
 0002:0000e200       ??_R1A@?0A@A@CMPPSIniOpt@@8 0053e200     MPPSIniOpt.obj
 0002:0000e220       ??_R2CMPPSIniOpt@@8        0053e220     MPPSIniOpt.obj
 0002:0000e230       ??_R3CMPPSIniOpt@@8        0053e230     MPPSIniOpt.obj
 0002:0000e248       ??_R4CMPPSIniOpt@@6B@      0053e248     MPPSIniOpt.obj
 0002:0000e260       ??_R13?0A@A@CComObjectRootBase@ATL@@8 0053e260     PA.obj
 0002:0000e280       ??_R13?0A@A@?$CComObjectRootEx@VCComMultiThreadModel@ATL@@@ATL@@8 0053e280     PA.obj
 0002:0000e2a0       ??_R1A@?0A@A@IClassFactory@@8 0053e2a0     PA.obj
 0002:0000e2c0       ??_R1A@?0A@A@CComClassFactory@ATL@@8 0053e2c0     PA.obj
 0002:0000e2e0       ??_R1A@?0A@A@?$CComClassFactorySingleton@VCPA@@@ATL@@8 0053e2e0     PA.obj
 0002:0000e300       ??_R1A@?0A@A@?$CComObjectNoLock@V?$CComClassFactorySingleton@VCPA@@@ATL@@@ATL@@8 0053e300     PA.obj
 0002:0000e320       ??_R2?$CComObjectNoLock@V?$CComClassFactorySingleton@VCPA@@@ATL@@@ATL@@8 0053e320     PA.obj
 0002:0000e348       ??_R3?$CComObjectNoLock@V?$CComClassFactorySingleton@VCPA@@@ATL@@@ATL@@8 0053e348     PA.obj
 0002:0000e360       ??_R4?$CComObjectNoLock@V?$CComClassFactorySingleton@VCPA@@@ATL@@@ATL@@6B@ 0053e360     PA.obj
 0002:0000e378       ??_R2?$CComClassFactorySingleton@VCPA@@@ATL@@8 0053e378     PA.obj
 0002:0000e398       ??_R3?$CComClassFactorySingleton@VCPA@@@ATL@@8 0053e398     PA.obj
 0002:0000e3b0       ??_R4?$CComClassFactorySingleton@VCPA@@@ATL@@6B@ 0053e3b0     PA.obj
 0002:0000e3c8       ??_R4?$CComObjectGlobal@VCPA@@@ATL@@6BNObserver@@@ 0053e3c8     PA.obj
 0002:0000e3e0       ??_R4?$CComObjectGlobal@VCPA@@@ATL@@6B?$IConnectionPointContainerImpl@VCPA@@@1@@ 0053e3e0     PA.obj
 0002:0000e3f8       ??_R4?$CComObjectGlobal@VCPA@@@ATL@@6B?$CProxyIUserGuidanceEvent@VCPA@@@@@ 0053e3f8     PA.obj
 0002:0000e410       ??_R4?$CComObjectGlobal@VCPA@@@ATL@@6B?$CProxyIPAWLMPPSEvent@VCPA@@@@@ 0053e410     PA.obj
 0002:0000e428       ??_R4?$CComObjectGlobal@VCPA@@@ATL@@6B?$CProxyIPADiscImportEvent@VCPA@@@@@ 0053e428     PA.obj
 0002:0000e440       ??_R4?$CComObjectGlobal@VCPA@@@ATL@@6B?$CProxyIPATransferEvent@VCPA@@@@@ 0053e440     PA.obj
 0002:0000e458       ??_R4?$CComObjectGlobal@VCPA@@@ATL@@6B?$CProxyIPAPrintEvent@VCPA@@@@@ 0053e458     PA.obj
 0002:0000e470       ??_R4?$CComObjectGlobal@VCPA@@@ATL@@6B?$CProxyIPAGeneralEvent@VCPA@@@@@ 0053e470     PA.obj
 0002:0000e488       ??_R4?$CComObjectGlobal@VCPA@@@ATL@@6B?$CProxyIGeneralEvent@VCPA@@@@@ 0053e488     PA.obj
 0002:0000e4a0       ??_R4?$CComObjectGlobal@VCPA@@@ATL@@6B?$CProxyIPABurnEvent@VCPA@@@@@ 0053e4a0     PA.obj
 0002:0000e4b8       ??_R4?$CComObjectGlobal@VCPA@@@ATL@@6BIPAWLMPPS@@@ 0053e4b8     PA.obj
 0002:0000e4d0       ??_R4?$CComObjectGlobal@VCPA@@@ATL@@6BIPADiscImport@@@ 0053e4d0     PA.obj
 0002:0000e4e8       ??_R4?$CComObjectGlobal@VCPA@@@ATL@@6BIPATransfer@@@ 0053e4e8     PA.obj
 0002:0000e500       ??_R4?$CComObjectGlobal@VCPA@@@ATL@@6BIPABurn@@@ 0053e500     PA.obj
 0002:0000e518       ??_R4?$CComObjectGlobal@VCPA@@@ATL@@6BIPAPrint@@@ 0053e518     PA.obj
 0002:0000e530       ??_R4?$CComObjectGlobal@VCPA@@@ATL@@6BIPAGeneral@@@ 0053e530     PA.obj
 0002:0000e548       ??_R4?$CComObjectGlobal@VCPA@@@ATL@@6BIUserWorkingMode@@@ 0053e548     PA.obj
 0002:0000e560       ??_R4?$CComObjectGlobal@VCPA@@@ATL@@6BIPing@@@ 0053e560     PA.obj
 0002:0000e578       ??_R4?$CComObjectGlobal@VCPA@@@ATL@@6BIGeneralSys@@@ 0053e578     PA.obj
 0002:0000e590       ??_R1IM@?0A@A@NObserver@@8 0053e590     PA.obj
 0002:0000e5b0       ??_R1II@?0A@1IUnknown@@8   0053e5b0     PA.obj
 0002:0000e5d0       ??_R1II@?0A@A@IConnectionPointContainer@@8 0053e5d0     PA.obj
 0002:0000e5f0       ??_R1II@?0A@A@?$IConnectionPointContainerImpl@VCPA@@@ATL@@8 0053e5f0     PA.obj
 0002:0000e610       ??_R1HM@?0A@A@?$_ICPLocator@$1?IID_IUserGuidanceEvent@@3U_GUID@@B@ATL@@8 0053e610     PA.obj
 0002:0000e630       ??_R1HM@?0A@A@?$IConnectionPointImpl@VCPA@@$1?IID_IUserGuidanceEvent@@3U_GUID@@BVCComDynamicUnkArray@ATL@@@ATL@@8 0053e630     PA.obj
 0002:0000e650       ??_R1HM@?0A@A@?$CProxyIUserGuidanceEvent@VCPA@@@@8 0053e650     PA.obj
 0002:0000e670       ??_R1HA@?0A@A@?$_ICPLocator@$1?IID_IPAWLMPPSEvent@@3U_GUID@@B@ATL@@8 0053e670     PA.obj
 0002:0000e690       ??_R1HA@?0A@A@?$IConnectionPointImpl@VCPA@@$1?IID_IPAWLMPPSEvent@@3U_GUID@@BVCComDynamicUnkArray@ATL@@@ATL@@8 0053e690     PA.obj
 0002:0000e6b0       ??_R1HA@?0A@A@?$CProxyIPAWLMPPSEvent@VCPA@@@@8 0053e6b0     PA.obj
 0002:0000e6d0       ??_R1GE@?0A@A@?$_ICPLocator@$1?IID_IPADiscImportEvent@@3U_GUID@@B@ATL@@8 0053e6d0     PA.obj
 0002:0000e6f0       ??_R1GE@?0A@A@?$IConnectionPointImpl@VCPA@@$1?IID_IPADiscImportEvent@@3U_GUID@@BVCComDynamicUnkArray@ATL@@@ATL@@8 0053e6f0     PA.obj
 0002:0000e710       ??_R1GE@?0A@A@?$CProxyIPADiscImportEvent@VCPA@@@@8 0053e710     PA.obj
 0002:0000e730       ??_R1FI@?0A@A@?$_ICPLocator@$1?IID_IPATransferEvent@@3U_GUID@@B@ATL@@8 0053e730     PA.obj
 0002:0000e750       ??_R1FI@?0A@A@?$IConnectionPointImpl@VCPA@@$1?IID_IPATransferEvent@@3U_GUID@@BVCComDynamicUnkArray@ATL@@@ATL@@8 0053e750     PA.obj
 0002:0000e770       ??_R1FI@?0A@A@?$CProxyIPATransferEvent@VCPA@@@@8 0053e770     PA.obj
 0002:0000e790       ??_R1EM@?0A@A@?$_ICPLocator@$1?IID_IPAPrintEvent@@3U_GUID@@B@ATL@@8 0053e790     PA.obj
 0002:0000e7b0       ??_R1EM@?0A@A@?$IConnectionPointImpl@VCPA@@$1?IID_IPAPrintEvent@@3U_GUID@@BVCComDynamicUnkArray@ATL@@@ATL@@8 0053e7b0     PA.obj
 0002:0000e7d0       ??_R1EM@?0A@A@?$CProxyIPAPrintEvent@VCPA@@@@8 0053e7d0     PA.obj
 0002:0000e7f0       ??_R1EA@?0A@A@?$_ICPLocator@$1?IID_IPAGeneralEvent@@3U_GUID@@B@ATL@@8 0053e7f0     PA.obj
 0002:0000e810       ??_R1EA@?0A@A@?$IConnectionPointImpl@VCPA@@$1?IID_IPAGeneralEvent@@3U_GUID@@BVCComDynamicUnkArray@ATL@@@ATL@@8 0053e810     PA.obj
 0002:0000e830       ??_R1EA@?0A@A@?$CProxyIPAGeneralEvent@VCPA@@@@8 0053e830     PA.obj
 0002:0000e850       ??_R1DE@?0A@A@?$_ICPLocator@$1?IID_IGeneralEvent@@3U_GUID@@B@ATL@@8 0053e850     PA.obj
 0002:0000e870       ??_R1DE@?0A@A@?$IConnectionPointImpl@VCPA@@$1?IID_IGeneralEvent@@3U_GUID@@BVCComDynamicUnkArray@ATL@@@ATL@@8 0053e870     PA.obj
 0002:0000e890       ??_R1DE@?0A@A@?$CProxyIGeneralEvent@VCPA@@@@8 0053e890     PA.obj
 0002:0000e8b0       ??_R1CI@?0A@A@?$_ICPLocator@$1?IID_IPABurnEvent@@3U_GUID@@B@ATL@@8 0053e8b0     PA.obj
 0002:0000e8d0       ??_R1CI@?0A@A@?$IConnectionPointImpl@VCPA@@$1?IID_IPABurnEvent@@3U_GUID@@BVCComDynamicUnkArray@ATL@@@ATL@@8 0053e8d0     PA.obj
 0002:0000e8f0       ??_R1CI@?0A@A@?$CProxyIPABurnEvent@VCPA@@@@8 0053e8f0     PA.obj
 0002:0000e910       ??_R1CE@?0A@1IUnknown@@8   0053e910     PA.obj
 0002:0000e930       ??_R1CE@?0A@A@IPAWLMPPS@@8 0053e930     PA.obj
 0002:0000e950       ??_R1CA@?0A@1IUnknown@@8   0053e950     PA.obj
 0002:0000e970       ??_R1CA@?0A@A@IPADiscImport@@8 0053e970     PA.obj
 0002:0000e990       ??_R1BM@?0A@1IUnknown@@8   0053e990     PA.obj
 0002:0000e9b0       ??_R1BM@?0A@A@IPATransfer@@8 0053e9b0     PA.obj
 0002:0000e9d0       ??_R1BI@?0A@1IUnknown@@8   0053e9d0     PA.obj
 0002:0000e9f0       ??_R1BI@?0A@A@IPABurn@@8   0053e9f0     PA.obj
 0002:0000ea10       ??_R1BE@?0A@1IUnknown@@8   0053ea10     PA.obj
 0002:0000ea30       ??_R1BE@?0A@A@IPAPrint@@8  0053ea30     PA.obj
 0002:0000ea50       ??_R1BA@?0A@1IUnknown@@8   0053ea50     PA.obj
 0002:0000ea70       ??_R1BA@?0A@A@IPAGeneral@@8 0053ea70     PA.obj
 0002:0000ea90       ??_R1M@?0A@1IUnknown@@8    0053ea90     PA.obj
 0002:0000eab0       ??_R1M@?0A@A@IUserWorkingMode@@8 0053eab0     PA.obj
 0002:0000ead0       ??_R17?0A@1IUnknown@@8     0053ead0     PA.obj
 0002:0000eaf0       ??_R17?0A@A@IPing@@8       0053eaf0     PA.obj
 0002:0000eb10       ??_R13?0A@1IUnknown@@8     0053eb10     PA.obj
 0002:0000eb30       ??_R13?0A@A@IGeneralSys@@8 0053eb30     PA.obj
 0002:0000eb50       ??_R1A@?0A@1IUnknown@@8    0053eb50     PA.obj
 0002:0000eb70       ??_R1A@?0A@A@IGeneralInterface@@8 0053eb70     PA.obj
 0002:0000eb90       ??_R1KM@?0A@A@?$CComCoClass@VCPA@@$1?CLSID_PA@@3U_GUID@@B@ATL@@8 0053eb90     PA.obj
 0002:0000ebb0       ??_R1JA@?0A@A@CComObjectRootBase@ATL@@8 0053ebb0     PA.obj
 0002:0000ebd0       ??_R1JA@?0A@A@?$CComObjectRootEx@VCComMultiThreadModel@ATL@@@ATL@@8 0053ebd0     PA.obj
 0002:0000ebf0       ??_R1A@?0A@A@CPA@@8        0053ebf0     PA.obj
 0002:0000ec10       ??_R1A@?0A@A@?$CComObjectGlobal@VCPA@@@ATL@@8 0053ec10     PA.obj
 0002:0000ec30       ??_R2?$CComObjectGlobal@VCPA@@@ATL@@8 0053ec30     PA.obj
 0002:0000ed30       ??_R3?$CComObjectGlobal@VCPA@@@ATL@@8 0053ed30     PA.obj
 0002:0000ed48       ??_R4?$CComObjectGlobal@VCPA@@@ATL@@6BIGeneralInterface@@@ 0053ed48     PA.obj
 0002:0000ed60       ??_R1BI@?0A@A@CComObjectRootBase@ATL@@8 0053ed60     PA.obj
 0002:0000ed80       ??_R1BI@?0A@A@?$CComObjectRootEx@VCComMultiThreadModel@ATL@@@ATL@@8 0053ed80     PA.obj
 0002:0000eda0       ??_R1A@?0A@A@IEnumConnectionPoints@@8 0053eda0     PA.obj
 0002:0000edc0       ??_R1A@?0A@A@?$CComEnumImpl@UIEnumConnectionPoints@@$1?IID_IEnumConnectionPoints@@3U_GUID@@BPAUIConnectionPoint@@V?$_CopyInterface@UIConnectionPoint@@@ATL@@@ATL@@8 0053edc0     PA.obj
 0002:0000ede0       ??_R1A@?0A@A@?$CComEnum@UIEnumConnectionPoints@@$1?IID_IEnumConnectionPoints@@3U_GUID@@BPAUIConnectionPoint@@V?$_CopyInterface@UIConnectionPoint@@@ATL@@VCComMultiThreadModel@6@@ATL@@8 0053ede0     PA.obj
 0002:0000ee00       ??_R1A@?0A@A@?$CComObject@V?$CComEnum@UIEnumConnectionPoints@@$1?IID_IEnumConnectionPoints@@3U_GUID@@BPAUIConnectionPoint@@V?$_CopyInterface@UIConnectionPoint@@@ATL@@VCComMultiThreadModel@6@@ATL@@@ATL@@8 0053ee00     PA.obj
 0002:0000ee20       ??_R2?$CComObject@V?$CComEnum@UIEnumConnectionPoints@@$1?IID_IEnumConnectionPoints@@3U_GUID@@BPAUIConnectionPoint@@V?$_CopyInterface@UIConnectionPoint@@@ATL@@VCComMultiThreadModel@6@@ATL@@@ATL@@8 0053ee20     PA.obj
 0002:0000ee48       ??_R3?$CComObject@V?$CComEnum@UIEnumConnectionPoints@@$1?IID_IEnumConnectionPoints@@3U_GUID@@BPAUIConnectionPoint@@V?$_CopyInterface@UIConnectionPoint@@@ATL@@VCComMultiThreadModel@6@@ATL@@@ATL@@8 0053ee48     PA.obj
 0002:0000ee60       ??_R4?$CComObject@V?$CComEnum@UIEnumConnectionPoints@@$1?IID_IEnumConnectionPoints@@3U_GUID@@BPAUIConnectionPoint@@V?$_CopyInterface@UIConnectionPoint@@@ATL@@VCComMultiThreadModel@6@@ATL@@@ATL@@6B@ 0053ee60     PA.obj
 0002:0000ee78       ??_R2CComClassFactory@ATL@@8 0053ee78     PA.obj
 0002:0000ee98       ??_R3CComClassFactory@ATL@@8 0053ee98     PA.obj
 0002:0000eeb0       ??_R4CComClassFactory@ATL@@6B@ 0053eeb0     PA.obj
 0002:0000eec8       ??_R4?$CComObject@VCPA@@@ATL@@6BNObserver@@@ 0053eec8     PA.obj
 0002:0000eee0       ??_R4?$CComObject@VCPA@@@ATL@@6B?$IConnectionPointContainerImpl@VCPA@@@1@@ 0053eee0     PA.obj
 0002:0000eef8       ??_R4?$CComObject@VCPA@@@ATL@@6B?$CProxyIUserGuidanceEvent@VCPA@@@@@ 0053eef8     PA.obj
 0002:0000ef10       ??_R4?$CComObject@VCPA@@@ATL@@6B?$CProxyIPAWLMPPSEvent@VCPA@@@@@ 0053ef10     PA.obj
 0002:0000ef28       ??_R4?$CComObject@VCPA@@@ATL@@6B?$CProxyIPADiscImportEvent@VCPA@@@@@ 0053ef28     PA.obj
 0002:0000ef40       ??_R4?$CComObject@VCPA@@@ATL@@6B?$CProxyIPATransferEvent@VCPA@@@@@ 0053ef40     PA.obj
 0002:0000ef58       ??_R4?$CComObject@VCPA@@@ATL@@6B?$CProxyIPAPrintEvent@VCPA@@@@@ 0053ef58     PA.obj
 0002:0000ef70       ??_R4?$CComObject@VCPA@@@ATL@@6B?$CProxyIPAGeneralEvent@VCPA@@@@@ 0053ef70     PA.obj
 0002:0000ef88       ??_R4?$CComObject@VCPA@@@ATL@@6B?$CProxyIGeneralEvent@VCPA@@@@@ 0053ef88     PA.obj
 0002:0000efa0       ??_R4?$CComObject@VCPA@@@ATL@@6B?$CProxyIPABurnEvent@VCPA@@@@@ 0053efa0     PA.obj
 0002:0000efb8       ??_R4?$CComObject@VCPA@@@ATL@@6BIPAWLMPPS@@@ 0053efb8     PA.obj
 0002:0000efd0       ??_R4?$CComObject@VCPA@@@ATL@@6BIPADiscImport@@@ 0053efd0     PA.obj
 0002:0000efe8       ??_R4?$CComObject@VCPA@@@ATL@@6BIPATransfer@@@ 0053efe8     PA.obj
 0002:0000f000       ??_R4?$CComObject@VCPA@@@ATL@@6BIPABurn@@@ 0053f000     PA.obj
 0002:0000f018       ??_R4?$CComObject@VCPA@@@ATL@@6BIPAPrint@@@ 0053f018     PA.obj
 0002:0000f030       ??_R4?$CComObject@VCPA@@@ATL@@6BIPAGeneral@@@ 0053f030     PA.obj
 0002:0000f048       ??_R4?$CComObject@VCPA@@@ATL@@6BIUserWorkingMode@@@ 0053f048     PA.obj
 0002:0000f060       ??_R4?$CComObject@VCPA@@@ATL@@6BIPing@@@ 0053f060     PA.obj
 0002:0000f078       ??_R4?$CComObject@VCPA@@@ATL@@6BIGeneralSys@@@ 0053f078     PA.obj
 0002:0000f090       ??_R1A@?0A@A@?$CComObject@VCPA@@@ATL@@8 0053f090     PA.obj
 0002:0000f0b0       ??_R2?$CComObject@VCPA@@@ATL@@8 0053f0b0     PA.obj
 0002:0000f1b0       ??_R3?$CComObject@VCPA@@@ATL@@8 0053f1b0     PA.obj
 0002:0000f1c8       ??_R4?$CComObject@VCPA@@@ATL@@6BIGeneralInterface@@@ 0053f1c8     PA.obj
 0002:0000f1e0       ??_R1A@?0A@A@IEnumConnections@@8 0053f1e0     PA.obj
 0002:0000f200       ??_R1A@?0A@A@?$CComEnumImpl@UIEnumConnections@@$1?IID_IEnumConnections@@3U_GUID@@BUtagCONNECTDATA@@V?$_Copy@UtagCONNECTDATA@@@ATL@@@ATL@@8 0053f200     PA.obj
 0002:0000f220       ??_R1A@?0A@A@?$CComEnum@UIEnumConnections@@$1?IID_IEnumConnections@@3U_GUID@@BUtagCONNECTDATA@@V?$_Copy@UtagCONNECTDATA@@@ATL@@VCComMultiThreadModel@6@@ATL@@8 0053f220     PA.obj
 0002:0000f240       ??_R1A@?0A@A@?$CComObject@V?$CComEnum@UIEnumConnections@@$1?IID_IEnumConnections@@3U_GUID@@BUtagCONNECTDATA@@V?$_Copy@UtagCONNECTDATA@@@ATL@@VCComMultiThreadModel@6@@ATL@@@ATL@@8 0053f240     PA.obj
 0002:0000f260       ??_R2?$CComObject@V?$CComEnum@UIEnumConnections@@$1?IID_IEnumConnections@@3U_GUID@@BUtagCONNECTDATA@@V?$_Copy@UtagCONNECTDATA@@@ATL@@VCComMultiThreadModel@6@@ATL@@@ATL@@8 0053f260     PA.obj
 0002:0000f288       ??_R3?$CComObject@V?$CComEnum@UIEnumConnections@@$1?IID_IEnumConnections@@3U_GUID@@BUtagCONNECTDATA@@V?$_Copy@UtagCONNECTDATA@@@ATL@@VCComMultiThreadModel@6@@ATL@@@ATL@@8 0053f288     PA.obj
 0002:0000f2a0       ??_R4?$CComObject@V?$CComEnum@UIEnumConnections@@$1?IID_IEnumConnections@@3U_GUID@@BUtagCONNECTDATA@@V?$_Copy@UtagCONNECTDATA@@@ATL@@VCComMultiThreadModel@6@@ATL@@@ATL@@6B@ 0053f2a0     PA.obj
 0002:0000f2b8       ??_R1A@?0A@A@?$_ICPLocator@$1?IID_IPABurnEvent@@3U_GUID@@B@ATL@@8 0053f2b8     PAATL.obj
 0002:0000f2d8       ??_R1A@?0A@A@?$IConnectionPointImpl@VCPA@@$1?IID_IPABurnEvent@@3U_GUID@@BVCComDynamicUnkArray@ATL@@@ATL@@8 0053f2d8     PAATL.obj
 0002:0000f2f8       ??_R1A@?0A@A@?$CProxyIPABurnEvent@VCPA@@@@8 0053f2f8     PAATL.obj
 0002:0000f318       ??_R2?$CProxyIPABurnEvent@VCPA@@@@8 0053f318     PAATL.obj
 0002:0000f328       ??_R3?$CProxyIPABurnEvent@VCPA@@@@8 0053f328     PAATL.obj
 0002:0000f340       ??_R4?$CProxyIPABurnEvent@VCPA@@@@6B@ 0053f340     PAATL.obj
 0002:0000f358       ??_R1A@?0A@A@?$_ICPLocator@$1?IID_IGeneralEvent@@3U_GUID@@B@ATL@@8 0053f358     PAATL.obj
 0002:0000f378       ??_R1A@?0A@A@?$IConnectionPointImpl@VCPA@@$1?IID_IGeneralEvent@@3U_GUID@@BVCComDynamicUnkArray@ATL@@@ATL@@8 0053f378     PAATL.obj
 0002:0000f398       ??_R1A@?0A@A@?$CProxyIGeneralEvent@VCPA@@@@8 0053f398     PAATL.obj
 0002:0000f3b8       ??_R2?$CProxyIGeneralEvent@VCPA@@@@8 0053f3b8     PAATL.obj
 0002:0000f3c8       ??_R3?$CProxyIGeneralEvent@VCPA@@@@8 0053f3c8     PAATL.obj
 0002:0000f3e0       ??_R4?$CProxyIGeneralEvent@VCPA@@@@6B@ 0053f3e0     PAATL.obj
 0002:0000f3f8       ??_R1A@?0A@A@?$_ICPLocator@$1?IID_IPAGeneralEvent@@3U_GUID@@B@ATL@@8 0053f3f8     PAATL.obj
 0002:0000f418       ??_R1A@?0A@A@?$IConnectionPointImpl@VCPA@@$1?IID_IPAGeneralEvent@@3U_GUID@@BVCComDynamicUnkArray@ATL@@@ATL@@8 0053f418     PAATL.obj
 0002:0000f438       ??_R1A@?0A@A@?$CProxyIPAGeneralEvent@VCPA@@@@8 0053f438     PAATL.obj
 0002:0000f458       ??_R2?$CProxyIPAGeneralEvent@VCPA@@@@8 0053f458     PAATL.obj
 0002:0000f468       ??_R3?$CProxyIPAGeneralEvent@VCPA@@@@8 0053f468     PAATL.obj
 0002:0000f480       ??_R4?$CProxyIPAGeneralEvent@VCPA@@@@6B@ 0053f480     PAATL.obj
 0002:0000f498       ??_R1A@?0A@A@?$_ICPLocator@$1?IID_IPAPrintEvent@@3U_GUID@@B@ATL@@8 0053f498     PAATL.obj
 0002:0000f4b8       ??_R1A@?0A@A@?$IConnectionPointImpl@VCPA@@$1?IID_IPAPrintEvent@@3U_GUID@@BVCComDynamicUnkArray@ATL@@@ATL@@8 0053f4b8     PAATL.obj
 0002:0000f4d8       ??_R1A@?0A@A@?$CProxyIPAPrintEvent@VCPA@@@@8 0053f4d8     PAATL.obj
 0002:0000f4f8       ??_R2?$CProxyIPAPrintEvent@VCPA@@@@8 0053f4f8     PAATL.obj
 0002:0000f508       ??_R3?$CProxyIPAPrintEvent@VCPA@@@@8 0053f508     PAATL.obj
 0002:0000f520       ??_R4?$CProxyIPAPrintEvent@VCPA@@@@6B@ 0053f520     PAATL.obj
 0002:0000f538       ??_R1A@?0A@A@?$_ICPLocator@$1?IID_IPATransferEvent@@3U_GUID@@B@ATL@@8 0053f538     PAATL.obj
 0002:0000f558       ??_R1A@?0A@A@?$IConnectionPointImpl@VCPA@@$1?IID_IPATransferEvent@@3U_GUID@@BVCComDynamicUnkArray@ATL@@@ATL@@8 0053f558     PAATL.obj
 0002:0000f578       ??_R1A@?0A@A@?$CProxyIPATransferEvent@VCPA@@@@8 0053f578     PAATL.obj
 0002:0000f598       ??_R2?$CProxyIPATransferEvent@VCPA@@@@8 0053f598     PAATL.obj
 0002:0000f5a8       ??_R3?$CProxyIPATransferEvent@VCPA@@@@8 0053f5a8     PAATL.obj
 0002:0000f5c0       ??_R4?$CProxyIPATransferEvent@VCPA@@@@6B@ 0053f5c0     PAATL.obj
 0002:0000f5d8       ??_R1A@?0A@A@?$_ICPLocator@$1?IID_IPADiscImportEvent@@3U_GUID@@B@ATL@@8 0053f5d8     PAATL.obj
 0002:0000f5f8       ??_R1A@?0A@A@?$IConnectionPointImpl@VCPA@@$1?IID_IPADiscImportEvent@@3U_GUID@@BVCComDynamicUnkArray@ATL@@@ATL@@8 0053f5f8     PAATL.obj
 0002:0000f618       ??_R1A@?0A@A@?$CProxyIPADiscImportEvent@VCPA@@@@8 0053f618     PAATL.obj
 0002:0000f638       ??_R2?$CProxyIPADiscImportEvent@VCPA@@@@8 0053f638     PAATL.obj
 0002:0000f648       ??_R3?$CProxyIPADiscImportEvent@VCPA@@@@8 0053f648     PAATL.obj
 0002:0000f660       ??_R4?$CProxyIPADiscImportEvent@VCPA@@@@6B@ 0053f660     PAATL.obj
 0002:0000f678       ??_R1A@?0A@A@?$_ICPLocator@$1?IID_IPAWLMPPSEvent@@3U_GUID@@B@ATL@@8 0053f678     PAATL.obj
 0002:0000f698       ??_R1A@?0A@A@?$IConnectionPointImpl@VCPA@@$1?IID_IPAWLMPPSEvent@@3U_GUID@@BVCComDynamicUnkArray@ATL@@@ATL@@8 0053f698     PAATL.obj
 0002:0000f6b8       ??_R1A@?0A@A@?$CProxyIPAWLMPPSEvent@VCPA@@@@8 0053f6b8     PAATL.obj
 0002:0000f6d8       ??_R2?$CProxyIPAWLMPPSEvent@VCPA@@@@8 0053f6d8     PAATL.obj
 0002:0000f6e8       ??_R3?$CProxyIPAWLMPPSEvent@VCPA@@@@8 0053f6e8     PAATL.obj
 0002:0000f700       ??_R4?$CProxyIPAWLMPPSEvent@VCPA@@@@6B@ 0053f700     PAATL.obj
 0002:0000f718       ??_R1A@?0A@A@?$_ICPLocator@$1?IID_IUserGuidanceEvent@@3U_GUID@@B@ATL@@8 0053f718     PAATL.obj
 0002:0000f738       ??_R1A@?0A@A@?$IConnectionPointImpl@VCPA@@$1?IID_IUserGuidanceEvent@@3U_GUID@@BVCComDynamicUnkArray@ATL@@@ATL@@8 0053f738     PAATL.obj
 0002:0000f758       ??_R1A@?0A@A@?$CProxyIUserGuidanceEvent@VCPA@@@@8 0053f758     PAATL.obj
 0002:0000f778       ??_R2?$CProxyIUserGuidanceEvent@VCPA@@@@8 0053f778     PAATL.obj
 0002:0000f788       ??_R3?$CProxyIUserGuidanceEvent@VCPA@@@@8 0053f788     PAATL.obj
 0002:0000f7a0       ??_R4?$CProxyIUserGuidanceEvent@VCPA@@@@6B@ 0053f7a0     PAATL.obj
 0002:0000f7b8       ??_R1A@?0A@A@CPADataBaseOpt@@8 0053f7b8     PADataBaseOpt.obj
 0002:0000f7d4       ??_R2CPADataBaseOpt@@8     0053f7d4     PADataBaseOpt.obj
 0002:0000f7e0       ??_R3CPADataBaseOpt@@8     0053f7e0     PADataBaseOpt.obj
 0002:0000f7f8       ??_R4CPADataBaseOpt@@6B@   0053f7f8     PADataBaseOpt.obj
 0002:0000f810       ??_R1A@?0A@A@PAJob@@8      0053f810     PAJob.obj
 0002:0000f830       ??_R2PAJob@@8              0053f830     PAJob.obj
 0002:0000f840       ??_R3PAJob@@8              0053f840     PAJob.obj
 0002:0000f858       ??_R4PAJob@@6B@            0053f858     PAJob.obj
 0002:0000f870       ??_R1A@?0A@A@IDispatch@@8  0053f870     PQSink.obj
 0002:0000f890       ??_R1A@?0A@A@_IPrintQueueChangeEvents@@8 0053f890     PQSink.obj
 0002:0000f8b0       ??_R1A@?0A@A@CPQSink@@8    0053f8b0     PQSink.obj
 0002:0000f8d0       ??_R2CPQSink@@8            0053f8d0     PQSink.obj
 0002:0000f8e8       ??_R3CPQSink@@8            0053f8e8     PQSink.obj
 0002:0000f900       ??_R4CPQSink@@6B@          0053f900     PQSink.obj
 0002:0000f918       ??_R4CPrinting@@6BNSubject@@@ 0053f918     Printing.obj
 0002:0000f930       ??_R1A@?0A@A@CPrinting@@8  0053f930     Printing.obj
 0002:0000f950       ??_R2CPrinting@@8          0053f950     Printing.obj
 0002:0000f960       ??_R3CPrinting@@8          0053f960     Printing.obj
 0002:0000f978       ??_R4CPrinting@@6BNObserver@@@ 0053f978     Printing.obj
 0002:0000f990       ??_R1A@?0A@A@CSpaceEstimator@@8 0053f990     SpaceEstimator.obj
 0002:0000f9ac       ??_R2CSpaceEstimator@@8    0053f9ac     SpaceEstimator.obj
 0002:0000f9b8       ??_R3CSpaceEstimator@@8    0053f9b8     SpaceEstimator.obj
 0002:0000f9d0       ??_R4CSpaceEstimator@@6B@  0053f9d0     SpaceEstimator.obj
 0002:0000f9e8       ??_R1A@?0A@A@?$CProxyBase@UIStatisticsWorkflowLevel@@VCoSystemEventDB@@@@8 0053f9e8     SystemEventProxy.obj
 0002:0000fa08       ??_R1A@?0A@A@CSystemEventProxy@@8 0053fa08     SystemEventProxy.obj
 0002:0000fa28       ??_R2CSystemEventProxy@@8  0053fa28     SystemEventProxy.obj
 0002:0000fa38       ??_R3CSystemEventProxy@@8  0053fa38     SystemEventProxy.obj
 0002:0000fa50       ??_R4CSystemEventProxy@@6B@ 0053fa50     SystemEventProxy.obj
 0002:0000fa68       ??_R2?$CProxyBase@UIStatisticsWorkflowLevel@@VCoSystemEventDB@@@@8 0053fa68     SystemEventProxy.obj
 0002:0000fa70       ??_R3?$CProxyBase@UIStatisticsWorkflowLevel@@VCoSystemEventDB@@@@8 0053fa70     SystemEventProxy.obj
 0002:0000fa88       ??_R4?$CProxyBase@UIStatisticsWorkflowLevel@@VCoSystemEventDB@@@@6B@ 0053fa88     SystemEventProxy.obj
 0002:0000faa0       ??_R4CTransfer@@6BNSubject@@@ 0053faa0     Transfer.obj
 0002:0000fab8       ??_R1A@?0A@A@CTransfer@@8  0053fab8     Transfer.obj
 0002:0000fad8       ??_R2CTransfer@@8          0053fad8     Transfer.obj
 0002:0000fae8       ??_R3CTransfer@@8          0053fae8     Transfer.obj
 0002:0000fb00       ??_R4CTransfer@@6BNObserver@@@ 0053fb00     Transfer.obj
 0002:0000fb18       ??_R1A@?0A@A@CTransferXMLParser@@8 0053fb18     TransferXMLParser.obj
 0002:0000fb34       ??_R2CTransferXMLParser@@8 0053fb34     TransferXMLParser.obj
 0002:0000fb40       ??_R3CTransferXMLParser@@8 0053fb40     TransferXMLParser.obj
 0002:0000fb58       ??_R4CTransferXMLParser@@6B@ 0053fb58     TransferXMLParser.obj
 0002:0000fb70       ??_R1A@?0A@A@CUserGuidanceOpt@@8 0053fb70     UserGuidanceOpt.obj
 0002:0000fb8c       ??_R2CUserGuidanceOpt@@8   0053fb8c     UserGuidanceOpt.obj
 0002:0000fb98       ??_R3CUserGuidanceOpt@@8   0053fb98     UserGuidanceOpt.obj
 0002:0000fbb0       ??_R4CUserGuidanceOpt@@6B@ 0053fbb0     UserGuidanceOpt.obj
 0002:0000fbc8       ??_R1A@?0A@A@CWlMpps@@8    0053fbc8     WlMpps.obj
 0002:0000fbe8       ??_R2CWlMpps@@8            0053fbe8     WlMpps.obj
 0002:0000fbf8       ??_R3CWlMpps@@8            0053fbf8     WlMpps.obj
 0002:0000fc10       ??_R4CWlMpps@@6B@          0053fc10     WlMpps.obj
 0002:0000fc28       ??_R1A@?0A@A@CMppsOpt@@8   0053fc28     WlMpps.obj
 0002:0000fc44       ??_R2CMppsOpt@@8           0053fc44     WlMpps.obj
 0002:0000fc50       ??_R3CMppsOpt@@8           0053fc50     WlMpps.obj
 0002:0000fc68       ??_R4CMppsOpt@@6B@         0053fc68     WlMpps.obj
 0002:0000fc80       ??_R1A@?0A@A@CWorklistIniOpt@@8 0053fc80     WorklistIniOpt.obj
 0002:0000fca0       ??_R2CWorklistIniOpt@@8    0053fca0     WorklistIniOpt.obj
 0002:0000fcb0       ??_R3CWorklistIniOpt@@8    0053fcb0     WorklistIniOpt.obj
 0002:0000fcc8       ??_R4CWorklistIniOpt@@6B@  0053fcc8     WorklistIniOpt.obj
 0002:0000fce0       ??_R1A@?0A@A@type_info@@8  0053fce0     msvcrt:ti_inst.obj
 0002:0000fcf8       ??_R2type_info@@8          0053fcf8     msvcrt:ti_inst.obj
 0002:0000fd00       ??_R3type_info@@8          0053fd00     msvcrt:ti_inst.obj
 0002:0000fd10       ??_R4type_info@@6B@        0053fd10     msvcrt:ti_inst.obj
 0002:0000fd28       ??_R1A@?0A@A@_com_error@@8 0053fd28     comsupp:comraise.obj
 0002:0000fd40       ??_R2_com_error@@8         0053fd40     comsupp:comraise.obj
 0002:0000fd48       ??_R3_com_error@@8         0053fd48     comsupp:comraise.obj
 0002:0000fd58       ??_R4_com_error@@6B@       0053fd58     comsupp:comraise.obj
 0002:0001ee90       __CT??_R0?AV_com_error@@@8??0_com_error@@QAE@ABV0@@Z16 0054ee90     comsupp:comraise.obj
 0002:0001eeb0       __CTA1?AV_com_error@@      0054eeb0     comsupp:comraise.obj
 0002:0001eeb8       __TI1?AV_com_error@@       0054eeb8     comsupp:comraise.obj
 0003:00000000       ___xc_a                    00551000     msvcrt:cinitexe.obj
 0003:000002b8       ___xc_z                    005512b8     msvcrt:cinitexe.obj
 0003:000003bc       ___xi_a                    005513bc     msvcrt:cinitexe.obj
 0003:000004c0       ___xi_z                    005514c0     msvcrt:cinitexe.obj
 0003:000005d0       ??_R0?AV_com_error@@@8     005515d0     ado.obj
 0003:000005f0       ?__LINE__Var@?1??dump_com_error@CADODatabase@@IAEXAAV_com_error@@@Z@4FA 005515f0     ado.obj
 0003:000005f8       __GUID_00000507_0000_0010_8000_00aa006d2ea4 005515f8     ado.obj
 0003:00000610       __GUID_00000535_0000_0010_8000_00aa006d2ea4 00551610     ado.obj
 0003:00000628       __GUID_00000544_0000_0010_8000_00aa006d2ea4 00551628     ado.obj
 0003:00000640       ??_R0?AVCObject@@@8        00551640     ado.obj
 0003:00000660       ??_R0?AVCSyncObject@@@8    00551660     ado.obj
 0003:00000680       ??_R0?AVCCriticalSection@@@8 00551680     ado.obj
 0003:000006a8       ?__LINE__Var@?1??dump_com_error@CADORecordset@@IAEXAAV_com_error@@@Z@4FA 005516a8     ado.obj
 0003:000006ac       ?__LINE__Var@?1??dump_com_error@CADOCommand@@IAEXAAV_com_error@@@Z@4FA 005516ac     ado.obj
 0003:000006b0       __GUID_0000050b_0000_0010_8000_00aa006d2ea4 005516b0     ado.obj
 0003:000006c4       ?__LINE__Var@?1??dump_com_error@CADOParameter@@IAEXAAV_com_error@@@Z@4FA 005516c4     ado.obj
 0003:000006c8       __GUID_00000000_0000_0000_c000_000000000046 005516c8     ado.obj
 0003:000006e0       __GUID_00000556_0000_0010_8000_00aa006d2ea4 005516e0     ado.obj
 0003:000006f8       __GUID_0000050c_0000_0010_8000_00aa006d2ea4 005516f8     ado.obj
 0003:00000710       __GUID_b08400bd_f9d1_4d02_b856_71d5dba123e9 00551710     ado.obj
 0003:00000728       __GUID_00000513_0000_0010_8000_00aa006d2ea4 00551728     ado.obj
 0003:00000740       __GUID_00000508_0000_0010_8000_00aa006d2ea4 00551740     ado.obj
 0003:00000758       __GUID_00000515_0000_0010_8000_00aa006d2ea4 00551758     ado.obj
 0003:00000770       __GUID_0000050e_0000_0010_8000_00aa006d2ea4 00551770     ado.obj
 0003:00000788       __GUID_0000054f_0000_0010_8000_00aa006d2ea4 00551788     ado.obj
 0003:000007a0       __GUID_00000506_0000_0010_8000_00aa006d2ea4 005517a0     ado.obj
 0003:000007b8       __GUID_0000054c_0000_0010_8000_00aa006d2ea4 005517b8     ado.obj
 0003:000007d0       ??_R0?AVCBSTROpt@@@8       005517d0     BSTROpt.obj
 0003:000007f0       ??_R0?AVCBuffer@@@8        005517f0     Buffer.obj
 0003:0000080c       ?__LINE__Var@?1??MessageHandler@@YGXIJI@Z@4FA 0055180c     Burner.obj
 0003:00000810       ?__LINE__Var@?1??GetPreBurnJobThreadProc@@YGKPAX@Z@4FA 00551810     Burner.obj
 0003:00000818       ??_R0?AVNSubject@@@8       00551818     Burner.obj
 0003:00000838       ??_R0?AVNObserver@@@8      00551838     Burner.obj
 0003:00000858       ??_R0?AVCBurner@@@8        00551858     Burner.obj
 0003:00000874       ?__LINE__Var@?1??Init@CBurner@@QAEHXZ@4FA 00551874     Burner.obj
 0003:00000878       ?__LINE__Var@?1??SetSubModuleState@CBurner@@QAEXW4_SubModuleState@@@Z@4FA 00551878     Burner.obj
 0003:0000087c       ?__LINE__Var@?1??CreateJob@CBurner@@QAEHPAU_tagBurnJobSettingsByPA@@@Z@4FA 0055187c     Burner.obj
 0003:00000880       ?__LINE__Var@?1??HandleMessageFromDVDBurner@CBurner@@QAEXIJI@Z@4FA 00551880     Burner.obj
 0003:00000884       ?__LINE__Var@?1??GetPreBurnJob@CBurner@@QAEHXZ@4FA 00551884     Burner.obj
 0003:00000888       ?__LINE__Var@?1??HandleJob@CBurner@@QAEHPAVPAJob@@@Z@4FA 00551888     Burner.obj
 0003:00000890       ??_R0P8ASBasisGetFunctionName@?1??HandleJob@CBurner@@QAEHPAVPAJob@@@Z@AEXXZ@8 00551890     Burner.obj
 0003:000008f0       ?__LINE__Var@?1??AbortBurnWork@CBurner@@QAEHXZ@4FA 005518f0     Burner.obj
 0003:000008f4       ?__LINE__Var@?1??GetEstimatedSize@CBurner@@QAEHHHPAK@Z@4FA 005518f4     Burner.obj
 0003:000008f8       ?__LINE__Var@?1??GetDevices@CBurner@@QAEHPAPAPAGPAJ@Z@4FA 005518f8     Burner.obj
 0003:000008fc       ?__LINE__Var@?1??GetDeviceDiscInfo@CBurner@@QAEHXZ@4FA 005518fc     Burner.obj
 0003:00000900       ?__LINE__Var@?1??SetDevice@CBurner@@QAEHPBG@Z@4FA 00551900     Burner.obj
 0003:00000904       ?__LINE__Var@?1??UnInit@CBurner@@QAEHXZ@4FA 00551904     Burner.obj
 0003:00000908       ??_R0?AVCDBController@@@8  00551908     DBController.obj
 0003:0000092c       ?__LINE__Var@?1??Init@CDBController@@QAEHXZ@4FA 0055192c     DBController.obj
 0003:00000930       ??_R0P8ASBasisGetFunctionName@?1??Init@CDBController@@QAEHXZ@AEXXZ@8 00551930     DBController.obj
 0003:00000988       ?__LINE__Var@?1??GetConfigInfo@CDBController@@QAEPAUConfigInfoStruct@@XZ@4FA 00551988     DBController.obj
 0003:0000098c       ?__LINE__Var@?1??GetJobImageInfoByUIDs@CDBController@@QAEHPAV?$vector@VCString@@V?$allocator@VCString@@@std@@@std@@W4_PatientAdminUIDType@@PAVPAJob@@@Z@4FA 0055198c     DBController.obj
 0003:00000990       ?__LINE__Var@?1??AddJobImageInfoByPatientUID@CDBController@@AAEHPBG@Z@4FA 00551990     DBController.obj
 0003:00000994       ?__LINE__Var@?1??AddJobImageInfoByStudyUID@CDBController@@AAEHPBG@Z@4FA 00551994     DBController.obj
 0003:00000998       ?__LINE__Var@?1??AddJobImageInfoBySeriesUID@CDBController@@AAEHPBG@Z@4FA 00551998     DBController.obj
 0003:0000099c       ?__LINE__Var@?1??AddJobImageInfoByImageUID@CDBController@@AAEHPBG@Z@4FA 0055199c     DBController.obj
 0003:000009a0       ?__LINE__Var@?1??IsSeriesUIDExisted@CDBController@@AAEHPAV?$vector@USeriesInfoStruct@@V?$allocator@USeriesInfoStruct@@@std@@@std@@PBG@Z@4FA 005519a0     DBController.obj
 0003:000009a4       ?__LINE__Var@?1??IsStudyUIDExisted@CDBController@@AAEHPAV?$vector@UStudyInfoStruct@@V?$allocator@UStudyInfoStruct@@@std@@@std@@PBG@Z@4FA 005519a4     DBController.obj
 0003:000009a8       ?__LINE__Var@?1??IsPatientUIDExisted@CDBController@@AAEHPAV?$vector@UPatientInfoStruct@@V?$allocator@UPatientInfoStruct@@@std@@@std@@PBG@Z@4FA 005519a8     DBController.obj
 0003:000009ac       ?__LINE__Var@?1??IsGetJobInfoEnabled@CDBController@@AAEHXZ@4FA 005519ac     DBController.obj
 0003:000009b0       ?__LINE__Var@?1??ModifyStudyInfo@CDBController@@QAEHPAUStudyInfoStruct@@@Z@4FA 005519b0     DBController.obj
 0003:000009b4       ?__LINE__Var@?1??ModifyPatientInfo@CDBController@@QAEHPAUPatientInfoStruct@@@Z@4FA 005519b4     DBController.obj
 0003:000009b8       ?__LINE__Var@?1??GetCurrentStudyUID@CDBController@@QAEHAAVCString@@@Z@4FA 005519b8     DBController.obj
 0003:000009bc       ?__LINE__Var@?1??SetStudyMPPSStatus@CDBController@@QAEHPBGW4_MPPS_STATE@@@Z@4FA 005519bc     DBController.obj
 0003:000009c0       ??_R0?AVDBDatabaseBasisOpt@@@8 005519c0     DBDatabaseBasisOpt.obj
 0003:000009e8       ?__LINE__Var@?1??OpenDB@DBDatabaseBasisOpt@@QAEHPAVCADODatabase@@VCString@@1H@Z@4FA 005519e8     DBDatabaseBasisOpt.obj
 0003:000009f0       ??_R0?AVCDBException@@@8   005519f0     DBDatabaseBasisOpt.obj
 0003:00000a10       ?__LINE__Var@?1??QueryLoadRecord@DBDatabaseBasisOpt@@QAEHPAVCADODatabase@@ABV?$vector@VCString@@V?$allocator@VCString@@@std@@@std@@VCString@@AAV?$vector@PAV?$vector@V_variant_t@@V?$allocator@V_variant_t@@@std@@@std@@V?$allocator@PAV?$vector@V_variant_t@@V?$allocator@V_variant_t@@@std@@@std@@@2@@5@@Z@4FA 00551a10     DBDatabaseBasisOpt.obj
 0003:00000a14       ?__LINE__Var@?1??QueryTableRecord@DBDatabaseBasisOpt@@QAEHPAVCADODatabase@@ABV?$vector@VCString@@V?$allocator@VCString@@@std@@@std@@1VCString@@AAV?$vector@PAV?$vector@V_variant_t@@V?$allocator@V_variant_t@@@std@@@std@@V?$allocator@PAV?$vector@V_variant_t@@V?$allocator@V_variant_t@@@std@@@std@@@2@@5@@Z@4FA 00551a14     DBDatabaseBasisOpt.obj
 0003:00000a18       ?__LINE__Var@?1??HandleError@DBDatabaseBasisOpt@@QAEXAAVCDBException@@@Z@4FA 00551a18     DBDatabaseBasisOpt.obj
 0003:00000a1c       ?__LINE__Var@?1??AddRecord@DBDatabaseBasisOpt@@QAEHPAVCADODatabase@@ABV?$vector@VCString@@V?$allocator@VCString@@@std@@@std@@VCString@@AAV?$vector@V_variant_t@@V?$allocator@V_variant_t@@@std@@@5@@Z@4FA 00551a1c     DBDatabaseBasisOpt.obj
 0003:00000a20       ?__LINE__Var@?1??DeleteRecord@DBDatabaseBasisOpt@@QAEHPAVCADODatabase@@VCString@@@Z@4FA 00551a20     DBDatabaseBasisOpt.obj
 0003:00000a28       ??_R0?AVDBDatabaseOpt@@@8  00551a28     DBDatabaseOpt.obj
 0003:00000a4c       ?__LINE__Var@?1??OpenDB@DBDatabaseOpt@@QAEHQAG0@Z@4FA 00551a4c     DBDatabaseOpt.obj
 0003:00000a50       __GUID_00000514_0000_0010_8000_00aa006d2ea4 00551a50     DBDatabaseOpt.obj
 0003:00000a68       __GUID_00000550_0000_0010_8000_00aa006d2ea4 00551a68     DBDatabaseOpt.obj
 0003:00000a80       ??_R0?AUIUnknown@@@8       00551a80     DBSink.obj
 0003:00000aa0       ??_R0?AUIGeneralEvent@@@8  00551aa0     DBSink.obj
 0003:00000ac8       ??_R0?AVCDBSink@@@8        00551ac8     DBSink.obj
 0003:00000ae8       ??_R0?AVCDBStructInitor@@@8 00551ae8     DBStructInitor.obj
 0003:00000b10       ??_R0?AVCDcmGen@@@8        00551b10     DcmPartner.obj
 0003:00000b30       ??_R0?AVCDcmPartner@@@8    00551b30     DcmPartner.obj
 0003:00000b50       ?__LINE__Var@?1??Init@CDcmPartner@@QAEHXZ@4FA 00551b50     DcmPartner.obj
 0003:00000b58       ??_R0P8ASBasisGetFunctionName@?1??Init@CDcmPartner@@QAEHXZ@AEXXZ@8 00551b58     DcmPartner.obj
 0003:00000bac       ?__LINE__Var@?1??UnInit@CDcmPartner@@QAEXXZ@4FA 00551bac     DcmPartner.obj
 0003:00000bb0       ??_R0P8ASBasisGetFunctionName@?1??UnInit@CDcmPartner@@QAEXXZ@AEXXZ@8 00551bb0     DcmPartner.obj
 0003:00000c08       ?__LINE__Var@?1??GetPostProcessInfoStruct@CDcmPartner@@AAEHPAV?$vector@UPostProcessingInfo@@V?$allocator@UPostProcessingInfo@@@std@@@std@@PBGPAPAUPostProcessingInfo@@@Z@4FA 00551c08     DcmPartner.obj
 0003:00000c0c       ?__LINE__Var@?1??ConvertBFS@CDcmPartner@@QAEHPAVPAJob@@PBGPAV?$vector@VCString@@V?$allocator@VCString@@@std@@@std@@2@Z@4FA 00551c0c     DcmPartner.obj
 0003:00000c10       ??_R0P8ASBasisGetFunctionName@?1??ConvertBFS@CDcmPartner@@QAEHPAVPAJob@@PBGPAV?$vector@VCString@@V?$allocator@VCString@@@std@@@std@@2@Z@AEXXZ@8 00551c10     DcmPartner.obj
 0003:00000cc0       ?__LINE__Var@?1??ConvertImages@CDcmPartner@@AAEHXZ@4FA 00551cc0     DcmPartner.obj
 0003:00000cc8       ??_R0P8ASBasisGetFunctionName@?1??ConvertImages@CDcmPartner@@AAEHXZ@AEXXZ@8 00551cc8     DcmPartner.obj
 0003:00000d28       ?__LINE__Var@?1??ConvertOneImageToDXImage@CDcmPartner@@AAEHH@Z@4FA 00551d28     DcmPartner.obj
 0003:00000d2c       ?__LINE__Var@?1??CheckTaskDir@CDcmPartner@@QAEHPBGH@Z@4FA 00551d2c     DcmPartner.obj
 0003:00000d30       ?__LINE__Var@?1??ClearTaskDir@CDcmPartner@@QAEHPBGH@Z@4FA 00551d30     DcmPartner.obj
 0003:00000d34       ?__LINE__Var@?1??ReadImageData@CDcmPartner@@AAEHH@Z@4FA 00551d34     DcmPartner.obj
 0003:00000d38       ?__LINE__Var@?1??IsFileExist@CDcmPartner@@AAEHPBG@Z@4FA 00551d38     DcmPartner.obj
 0003:00000d40       ??_R0?AVCDirHandler@@@8    00551d40     DirHandler.obj
 0003:00000d60       ?__LINE__Var@?1??CreateDir@CDirHandler@@SAHPBG@Z@4FA@4df3520b 00551d60     DirHandler.obj
 0003:00000d64       ?__LINE__Var@?1??ClearDir@CDirHandler@@SAHPBG@Z@4FA@4df3520b 00551d64     DirHandler.obj
 0003:00000d68       ?__LINE__Var@?1??CheckDir@CDirHandler@@SAHPBGH@Z@4FA@4df3520b 00551d68     DirHandler.obj
 0003:00000d6c       ?__LINE__Var@?1??DeleteDir@CDirHandler@@SAHPBG@Z@4FA@4df3520b 00551d6c     DirHandler.obj
 0003:00000d70       ?__LINE__Var@?1??DeleteFileW@CDirHandler@@SAHPBG@Z@4FA@4df3520b 00551d70     DirHandler.obj
 0003:00000d74       ?__LINE__Var@?1??IsFileExist@CDirHandler@@SAHPBG@Z@4FA@4df3520b 00551d74     DirHandler.obj
 0003:00000d78       ?__LINE__Var@?1??DeleteExistedFile@CDirHandler@@CAHPBG@Z@4FA@4df3520b 00551d78     DirHandler.obj
 0003:00000d7c       ?__LINE__Var@?1??GetImportDiscInfoThreadProc@@YGKPAX@Z@4FA 00551d7c     DiscImport.obj
 0003:00000d80       ??_R0?AVCDiscImport@@@8    00551d80     DiscImport.obj
 0003:00000da0       ?__LINE__Var@?1??Init@CDiscImport@@QAEHXZ@4FA 00551da0     DiscImport.obj
 0003:00000da8       ??_R0P8ASBasisGetFunctionName@?1??Init@CDiscImport@@QAEHXZ@AEXXZ@8 00551da8     DiscImport.obj
 0003:00000dfc       ?__LINE__Var@?1??UnInit@CDiscImport@@QAEHXZ@4FA 00551dfc     DiscImport.obj
 0003:00000e00       ?__LINE__Var@?1??HandleJob@CDiscImport@@QAEHPAVPAJob@@@Z@4FA 00551e00     DiscImport.obj
 0003:00000e08       ??_R0?AVCDcmDirParser@@@8  00551e08     DiscImport.obj
 0003:00000e2c       ?__LINE__Var@?1??GetImportDiscInfoProc@CDiscImport@@QAEHPAU_tagGetImportDiscInfoStruct@@@Z@4FA 00551e2c     DiscImport.obj
 0003:00000e30       ??_R0?AVCDcmParser@@@8     00551e30     DiscImport.obj
 0003:00000e50       ?__LINE__Var@?1??GetPatientInfoInDcm@CDiscImport@@AAEHXZ@4FA 00551e50     DiscImport.obj
 0003:00000e54       ?__LINE__Var@?1??ImportImageToDisk@CDiscImport@@AAEHXZ@4FA 00551e54     DiscImport.obj
 0003:00000e58       ?__LINE__Var@?1??IsFileExistInMedia@CDiscImport@@AAEHPBG@Z@4FA 00551e58     DiscImport.obj
 0003:00000e5c       ?__LINE__Var@?1??GetJobInfo@CDiscImport@@QAEHPBGPAPAU_tagDiscImport_SeriesStruct@@PAJ@Z@4FA 00551e5c     DiscImport.obj
 0003:00000e60       ?__LINE__Var@?1??HandleWorkBeforeAcq@CDiscImport@@QAEHXZ@4FA 00551e60     DiscImport.obj
 0003:00000e64       ?__LINE__Var@?1??SetSubModuleState@CDiscImport@@QAEXW4_SubModuleState@@@Z@4FA 00551e64     DiscImport.obj
 0003:00000e68       ?__LINE__Var@?1??RemoveInfoOfUnproperlyImportedImage@CDiscImport@@AAEHXZ@4FA 00551e68     DiscImport.obj
 0003:00000e6c       ?__LINE__Var@?1??FCMonitorThreadProc@@YGKPAX@Z@4FA 00551e6c     FCPartner.obj
 0003:00000e70       ??_R0?AVCFCPartner@@@8     00551e70     FCPartner.obj
 0003:00000e90       ?__LINE__Var@?1??Init@CFCPartner@@QAEHXZ@4FA 00551e90     FCPartner.obj
 0003:00000e94       ?__LINE__Var@?1??UnInit@CFCPartner@@QAEHXZ@4FA 00551e94     FCPartner.obj
 0003:00000e98       ?__LINE__Var@?1??StartUpFilmComposer@CFCPartner@@QAEHXZ@4FA 00551e98     FCPartner.obj
 0003:00000e9c       ?__LINE__Var@?1??ShutDownFilmComposer@CFCPartner@@QAEHXZ@4FA 00551e9c     FCPartner.obj
 0003:00000ea0       ?__LINE__Var@?1??SetConnection@CFCPartner@@AAEHXZ@4FA 00551ea0     FCPartner.obj
 0003:00000ea4       ?__LINE__Var@?1??LoadImageW@CFCPartner@@QAEHAAVCString@@@Z@4FA 00551ea4     FCPartner.obj
 0003:00000ea8       ?__LINE__Var@?1??LoadImages@CFCPartner@@QAEHPAV?$vector@VCString@@V?$allocator@VCString@@@std@@@std@@PAH@Z@4FA 00551ea8     FCPartner.obj
 0003:00000eac       ?__LINE__Var@?1??PQStateChangeNotify@CFCPartner@@QAEXPBGW4__MIDL___MIDL_itf_PrintQueueManager_0000_0002@@@Z@4FA 00551eac     FCPartner.obj
 0003:00000eb0       ?__LINE__Var@?1??GetFCFullPath@CFCPartner@@AAE?AVCString@@XZ@4FA 00551eb0     FCPartner.obj
 0003:00000ec8       ??_R0?AVCFilePicker@@@8    00551ec8     FilePicker.obj
 0003:00000ee8       ??_R0?AVCFireMsgQueue@@@8  00551ee8     FireMsgQueue.obj
 0003:00000f0c       ?__LINE__Var@?1??HandleMsgThreadProc@@YGKPAX@Z@4FA 00551f0c     FireMsgQueueMng.obj
 0003:00000f10       ??_R0?AVCFireMsgQueueMng@@@8 00551f10     FireMsgQueueMng.obj
 0003:00000f38       ?__LINE__Var@?1??Init@CFireMsgQueueMng@@QAEHPAVCPA@@@Z@4FA 00551f38     FireMsgQueueMng.obj
 0003:00000f3c       ?__LINE__Var@?1??UnInit@CFireMsgQueueMng@@QAEHXZ@4FA 00551f3c     FireMsgQueueMng.obj
 0003:00000f40       ?__LINE__Var@?1??HandleMsg@CFireMsgQueueMng@@QAEHXZ@4FA 00551f40     FireMsgQueueMng.obj
 0003:00000f48       ??_R0?AVCIDPathGen@@@8     00551f48     IDPathGen.obj
 0003:00000f68       ??_R0?AVCIniOpt@@@8        00551f68     IniOpt.obj
 0003:00000f88       ??_R0?AVCISController@@@8  00551f88     ISController.obj
 0003:00000fac       ?__LINE__Var@?1??Init@CISController@@QAEHXZ@4FA 00551fac     ISController.obj
 0003:00000fb0       ?__LINE__Var@?1??GetDiskFreeImageNum@CISController@@QAEHPAJ@Z@4FA 00551fb0     ISController.obj
 0003:00000fb4       ?__LINE__Var@?1??JobQueueHandleThreadProc@@YGKPAX@Z@4FA 00551fb4     JobHandler.obj
 0003:00000fb8       ??_R0?AVCJobHandler@@@8    00551fb8     JobHandler.obj
 0003:00000fd8       ?__LINE__Var@?1??Init@CJobHandler@@QAEHXZ@4FA 00551fd8     JobHandler.obj
 0003:00000fe0       ??_R0P8ASBasisGetFunctionName@?1??Init@CJobHandler@@QAEHXZ@AEXXZ@8 00551fe0     JobHandler.obj
 0003:00001034       ?__LINE__Var@?1??UnInit@CJobHandler@@QAEHXZ@4FA 00552034     JobHandler.obj
 0003:00001038       ?__LINE__Var@?1??HandleJobQueue@CJobHandler@@QAEHXZ@4FA 00552038     JobHandler.obj
 0003:0000103c       ?__LINE__Var@?1??PushJob@CJobHandler@@QAEHPAVPAJob@@@Z@4FA 0055203c     JobHandler.obj
 0003:00001040       ?__LINE__Var@?1??GetJobList@CJobHandler@@QAEHPAPAU_tagJobInfo@@PAJ@Z@4FA 00552040     JobHandler.obj
 0003:00001044       ?__LINE__Var@?1??CancelJobs@CJobHandler@@QAEHPAV?$vector@VCString@@V?$allocator@VCString@@@std@@@std@@@Z@4FA 00552044     JobHandler.obj
 0003:00001048       ?__LINE__Var@?1??DeleteJobs@CJobHandler@@QAEHPAV?$vector@VCString@@V?$allocator@VCString@@@std@@@std@@@Z@4FA 00552048     JobHandler.obj
 0003:00001050       ??_R0?AVCJobQueue@@@8      00552050     JobQueue.obj
 0003:0000106c       ?__LINE__Var@?1??PushJob@CJobQueue@@QAEHPAVPAJob@@@Z@4FA 0055206c     JobQueue.obj
 0003:00001070       ?__LINE__Var@?1??DeleteJob@CJobQueue@@QAEHPBG@Z@4FA 00552070     JobQueue.obj
 0003:00001074       ?__LINE__Var@?1??ClearQueque@CJobQueue@@QAEHXZ@4FA 00552074     JobQueue.obj
 0003:00001078       ?__LINE__Var@?1??IsPatientStudySeriesImageUIDInUse@CJobQueue@@QAEHW4_PatientAdminUIDType@@PAV?$vector@VCString@@V?$allocator@VCString@@@std@@@std@@@Z@4FA 00552078     JobQueue.obj
 0003:00001080       ??_R0?AVCLanguageIniOpt@@@8 00552080     LanguageIniOpt.obj
 0003:000010a8       ??_R0?AVCMPPSIniOpt@@@8    005520a8     MPPSIniOpt.obj
 0003:00001120       ?GUID_ATLVer30@ATL@@3U_GUID@@A 00552120     PA.obj
 0003:00001138       ??_R0?AVCComObjectRootBase@ATL@@@8 00552138     PA.obj
 0003:00001168       ??_R0?AV?$CComObjectRootEx@VCComMultiThreadModel@ATL@@@ATL@@@8 00552168     PA.obj
 0003:000011b8       ??_R0?AUIClassFactory@@@8  005521b8     PA.obj
 0003:000011e0       ??_R0?AVCComClassFactory@ATL@@@8 005521e0     PA.obj
 0003:00001210       ??_R0?AV?$CComClassFactorySingleton@VCPA@@@ATL@@@8 00552210     PA.obj
 0003:00001250       ??_R0?AV?$CComObjectNoLock@V?$CComClassFactorySingleton@VCPA@@@ATL@@@ATL@@@8 00552250     PA.obj
 0003:000012b0       ??_R0?AUIConnectionPointContainer@@@8 005522b0     PA.obj
 0003:000012e0       ??_R0?AV?$IConnectionPointContainerImpl@VCPA@@@ATL@@@8 005522e0     PA.obj
 0003:00001328       ??_R0?AV?$_ICPLocator@$1?IID_IUserGuidanceEvent@@3U_GUID@@B@ATL@@@8 00552328     PA.obj
 0003:00001380       ??_R0?AV?$IConnectionPointImpl@VCPA@@$1?IID_IUserGuidanceEvent@@3U_GUID@@BVCComDynamicUnkArray@ATL@@@ATL@@@8 00552380     PA.obj
 0003:00001408       ??_R0?AV?$CProxyIUserGuidanceEvent@VCPA@@@@@8 00552408     PA.obj
 0003:00001448       ??_R0?AV?$_ICPLocator@$1?IID_IPAWLMPPSEvent@@3U_GUID@@B@ATL@@@8 00552448     PA.obj
 0003:00001498       ??_R0?AV?$IConnectionPointImpl@VCPA@@$1?IID_IPAWLMPPSEvent@@3U_GUID@@BVCComDynamicUnkArray@ATL@@@ATL@@@8 00552498     PA.obj
 0003:00001518       ??_R0?AV?$CProxyIPAWLMPPSEvent@VCPA@@@@@8 00552518     PA.obj
 0003:00001550       ??_R0?AV?$_ICPLocator@$1?IID_IPADiscImportEvent@@3U_GUID@@B@ATL@@@8 00552550     PA.obj
 0003:000015a8       ??_R0?AV?$IConnectionPointImpl@VCPA@@$1?IID_IPADiscImportEvent@@3U_GUID@@BVCComDynamicUnkArray@ATL@@@ATL@@@8 005525a8     PA.obj
 0003:00001630       ??_R0?AV?$CProxyIPADiscImportEvent@VCPA@@@@@8 00552630     PA.obj
 0003:00001670       ??_R0?AV?$_ICPLocator@$1?IID_IPATransferEvent@@3U_GUID@@B@ATL@@@8 00552670     PA.obj
 0003:000016c8       ??_R0?AV?$IConnectionPointImpl@VCPA@@$1?IID_IPATransferEvent@@3U_GUID@@BVCComDynamicUnkArray@ATL@@@ATL@@@8 005526c8     PA.obj
 0003:00001750       ??_R0?AV?$CProxyIPATransferEvent@VCPA@@@@@8 00552750     PA.obj
 0003:00001788       ??_R0?AV?$_ICPLocator@$1?IID_IPAPrintEvent@@3U_GUID@@B@ATL@@@8 00552788     PA.obj
 0003:000017d8       ??_R0?AV?$IConnectionPointImpl@VCPA@@$1?IID_IPAPrintEvent@@3U_GUID@@BVCComDynamicUnkArray@ATL@@@ATL@@@8 005527d8     PA.obj
 0003:00001858       ??_R0?AV?$CProxyIPAPrintEvent@VCPA@@@@@8 00552858     PA.obj
 0003:00001890       ??_R0?AV?$_ICPLocator@$1?IID_IPAGeneralEvent@@3U_GUID@@B@ATL@@@8 00552890     PA.obj
 0003:000018e0       ??_R0?AV?$IConnectionPointImpl@VCPA@@$1?IID_IPAGeneralEvent@@3U_GUID@@BVCComDynamicUnkArray@ATL@@@ATL@@@8 005528e0     PA.obj
 0003:00001968       ??_R0?AV?$CProxyIPAGeneralEvent@VCPA@@@@@8 00552968     PA.obj
 0003:000019a0       ??_R0?AV?$_ICPLocator@$1?IID_IGeneralEvent@@3U_GUID@@B@ATL@@@8 005529a0     PA.obj
 0003:000019f0       ??_R0?AV?$IConnectionPointImpl@VCPA@@$1?IID_IGeneralEvent@@3U_GUID@@BVCComDynamicUnkArray@ATL@@@ATL@@@8 005529f0     PA.obj
 0003:00001a70       ??_R0?AV?$CProxyIGeneralEvent@VCPA@@@@@8 00552a70     PA.obj
 0003:00001aa8       ??_R0?AV?$_ICPLocator@$1?IID_IPABurnEvent@@3U_GUID@@B@ATL@@@8 00552aa8     PA.obj
 0003:00001af8       ??_R0?AV?$IConnectionPointImpl@VCPA@@$1?IID_IPABurnEvent@@3U_GUID@@BVCComDynamicUnkArray@ATL@@@ATL@@@8 00552af8     PA.obj
 0003:00001b78       ??_R0?AV?$CProxyIPABurnEvent@VCPA@@@@@8 00552b78     PA.obj
 0003:00001bb0       ??_R0?AUIPAWLMPPS@@@8      00552bb0     PA.obj
 0003:00001bd0       ??_R0?AUIPADiscImport@@@8  00552bd0     PA.obj
 0003:00001bf8       ??_R0?AUIPATransfer@@@8    00552bf8     PA.obj
 0003:00001c18       ??_R0?AUIPABurn@@@8        00552c18     PA.obj
 0003:00001c38       ??_R0?AUIPAPrint@@@8       00552c38     PA.obj
 0003:00001c58       ??_R0?AUIPAGeneral@@@8     00552c58     PA.obj
 0003:00001c78       ??_R0?AUIUserWorkingMode@@@8 00552c78     PA.obj
 0003:00001ca0       ??_R0?AUIPing@@@8          00552ca0     PA.obj
 0003:00001cb8       ??_R0?AUIGeneralSys@@@8    00552cb8     PA.obj
 0003:00001cd8       ??_R0?AUIGeneralInterface@@@8 00552cd8     PA.obj
 0003:00001d00       ??_R0?AV?$CComCoClass@VCPA@@$1?CLSID_PA@@3U_GUID@@B@ATL@@@8 00552d00     PA.obj
 0003:00001d50       ??_R0?AVCPA@@@8            00552d50     PA.obj
 0003:00001d68       ??_R0?AV?$CComObjectGlobal@VCPA@@@ATL@@@8 00552d68     PA.obj
 0003:00001da0       ??_R0?AUIEnumConnectionPoints@@@8 00552da0     PA.obj
 0003:00001dd0       ??_R0?AV?$CComEnumImpl@UIEnumConnectionPoints@@$1?IID_IEnumConnectionPoints@@3U_GUID@@BPAUIConnectionPoint@@V?$_CopyInterface@UIConnectionPoint@@@ATL@@@ATL@@@8 00552dd0     PA.obj
 0003:00001e98       ??_R0?AV?$CComEnum@UIEnumConnectionPoints@@$1?IID_IEnumConnectionPoints@@3U_GUID@@BPAUIConnectionPoint@@V?$_CopyInterface@UIConnectionPoint@@@ATL@@VCComMultiThreadModel@6@@ATL@@@8 00552e98     PA.obj
 0003:00001f78       ??_R0?AV?$CComObject@V?$CComEnum@UIEnumConnectionPoints@@$1?IID_IEnumConnectionPoints@@3U_GUID@@BPAUIConnectionPoint@@V?$_CopyInterface@UIConnectionPoint@@@ATL@@VCComMultiThreadModel@6@@ATL@@@ATL@@@8 00552f78     PA.obj
 0003:00002070       __GUID_b196b284_bab4_101a_b69c_00aa00341d07 00553070     PA.obj
 0003:00002088       __GUID_a14d9989_ba21_4049_a244_f55a912c6b5c 00553088     PA.obj
 0003:000020a0       __GUID_811bb3a4_ea29_4e15_af68_38732c9152df 005530a0     PA.obj
 0003:000020b8       __GUID_a1fc1879_fc23_494d_8139_330bce8508e9 005530b8     PA.obj
 0003:000020d0       __GUID_cfed7f4c_6e77_4cf6_a787_5599b380696d 005530d0     PA.obj
 0003:000020e8       __GUID_c1da2c81_616b_4a34_a2be_0439a93e9a47 005530e8     PA.obj
 0003:00002100       __GUID_05728d18_93ce_47b0_b0e4_c5bd332c9b1c 00553100     PA.obj
 0003:00002118       __GUID_8fdd9ff8_2b05_4ef6_b4b4_38aaa485b619 00553118     PA.obj
 0003:00002130       __GUID_f36663b9_be3c_4ca0_b36a_90ae3fc5528a 00553130     PA.obj
 0003:00002148       __GUID_8babe658_3016_47d2_b183_6e83c1bb05b4 00553148     PA.obj
 0003:00002160       __GUID_2bdba172_2c6c_4ed4_8274_e67ef25722be 00553160     PA.obj
 0003:00002178       ??_R0?AV?$CComObject@VCPA@@@ATL@@@8 00553178     PA.obj
 0003:000021a8       ??_R0?AUIEnumConnections@@@8 005531a8     PA.obj
 0003:000021d0       ??_R0?AV?$CComEnumImpl@UIEnumConnections@@$1?IID_IEnumConnections@@3U_GUID@@BUtagCONNECTDATA@@V?$_Copy@UtagCONNECTDATA@@@ATL@@@ATL@@@8 005531d0     PA.obj
 0003:00002278       ??_R0?AV?$CComEnum@UIEnumConnections@@$1?IID_IEnumConnections@@3U_GUID@@BUtagCONNECTDATA@@V?$_Copy@UtagCONNECTDATA@@@ATL@@VCComMultiThreadModel@6@@ATL@@@8 00553278     PA.obj
 0003:00002338       ??_R0?AV?$CComObject@V?$CComEnum@UIEnumConnections@@$1?IID_IEnumConnections@@3U_GUID@@BUtagCONNECTDATA@@V?$_Copy@UtagCONNECTDATA@@@ATL@@VCComMultiThreadModel@6@@ATL@@@ATL@@@8 00553338     PA.obj
 0003:00002410       __GUID_00000001_0000_0000_c000_000000000046 00553410     PA.obj
 0003:00002424       ?__LINE__Var@?1??StartUpThreadProc@@YGKPAX@Z@4FA 00553424     PAATL.obj
 0003:00002428       ?__LINE__Var@?1???0CPA@@QAE@XZ@4FA 00553428     PAATL.obj
 0003:00002430       ??_R0P8ASBasisGetFunctionName@?1???0CPA@@QAE@XZ@AEXXZ@8 00553430     PAATL.obj
 0003:00002478       ?__LINE__Var@?1???1CPA@@UAE@XZ@4FA 00553478     PAATL.obj
 0003:00002480       ??_R0P8ASBasisGetFunctionName@?1???1CPA@@UAE@XZ@AEXXZ@8 00553480     PAATL.obj
 0003:000024c8       ?__LINE__Var@?1??HandleMessage@CPA@@MAEJPAVNSubject@@IJI@Z@4FA 005534c8     PAATL.obj
 0003:000024cc       ?__LINE__Var@?1??StartUp@CPA@@UAGJXZ@4FA 005534cc     PAATL.obj
 0003:000024d0       ??_R0P8ASBasisGetFunctionName@?1??StartUp@CPA@@UAGJXZ@AEXXZ@8 005534d0     PAATL.obj
 0003:0000251c       ?__LINE__Var@?1??ShutDown@CPA@@UAGJXZ@4FA 0055351c     PAATL.obj
 0003:00002520       ??_R0P8ASBasisGetFunctionName@?1??ShutDown@CPA@@UAGJXZ@AEXXZ@8 00553520     PAATL.obj
 0003:00002570       ?__LINE__Var@?1??StartUpProc@CPA@@QAEHXZ@4FA 00553570     PAATL.obj
 0003:00002574       ?__LINE__Var@?1??ShutDownProc@CPA@@AAEHXZ@4FA 00553574     PAATL.obj
 0003:00002578       ?__LINE__Var@?1??IsInterfaceValid@CPA@@AAEHXZ@4FA 00553578     PAATL.obj
 0003:0000257c       ?__LINE__Var@?1??IsPrintInterfaceValid@CPA@@AAEHXZ@4FA 0055357c     PAATL.obj
 0003:00002580       ?__LINE__Var@?1??IsBurnInterfaceValid@CPA@@AAEHXZ@4FA 00553580     PAATL.obj
 0003:00002584       ?__LINE__Var@?1??IsTransferInterfaceValid@CPA@@AAEHXZ@4FA 00553584     PAATL.obj
 0003:00002588       ?__LINE__Var@?1??IsDiscImportInterfaceValid@CPA@@AAEHXZ@4FA 00553588     PAATL.obj
 0003:0000258c       ?__LINE__Var@?1??IsWlMppsInterfaceValid@CPA@@AAEHXZ@4FA 0055358c     PAATL.obj
 0003:00002590       ?__LINE__Var@?1??GetStartupResult@CPA@@UAGJPAW4_STARTUPRESULT@@@Z@4FA 00553590     PAATL.obj
 0003:00002598       ??_R0P8ASBasisGetFunctionName@?1??GetStartupResult@CPA@@UAGJPAW4_STARTUPRESULT@@@Z@AEXXZ@8 00553598     PAATL.obj
 0003:00002608       ?__LINE__Var@?1??GetWorkState@CPA@@UAGJPAW4_WORKSTATE@@@Z@4FA 00553608     PAATL.obj
 0003:00002610       ??_R0P8ASBasisGetFunctionName@?1??GetWorkState@CPA@@UAGJPAW4_WORKSTATE@@@Z@AEXXZ@8 00553610     PAATL.obj
 0003:00002678       ?__LINE__Var@?1??GetError@CPA@@UAGJPAH@Z@4FA 00553678     PAATL.obj
 0003:00002680       ??_R0P8ASBasisGetFunctionName@?1??GetError@CPA@@UAGJPAH@Z@AEXXZ@8 00553680     PAATL.obj
 0003:000026d4       ?__LINE__Var@?1??Logout@CPA@@UAGJXZ@4FA 005536d4     PAATL.obj
 0003:000026d8       ??_R0P8ASBasisGetFunctionName@?1??Logout@CPA@@UAGJXZ@AEXXZ@8 005536d8     PAATL.obj
 0003:00002724       ?__LINE__Var@?1??Login@CPA@@UAGJXZ@4FA 00553724     PAATL.obj
 0003:00002728       ??_R0P8ASBasisGetFunctionName@?1??Login@CPA@@UAGJXZ@AEXXZ@8 00553728     PAATL.obj
 0003:00002774       ?__LINE__Var@?1??GetPatientStudySeriesImageOccupyState@CPA@@UAGJW4_PatientAdminUIDType@@JPAPAGPAH@Z@4FA 00553774     PAATL.obj
 0003:00002778       ??_R0P8ASBasisGetFunctionName@?1??GetPatientStudySeriesImageOccupyState@CPA@@UAGJW4_PatientAdminUIDType@@JPAPAGPAH@Z@AEXXZ@8 00553778     PAATL.obj
 0003:00002810       ?__LINE__Var@?1??ReportUserGuidance@CPA@@UAGJJW4UserGuidanceType@@W4UserGuidancePriority@@H@Z@4FA 00553810     PAATL.obj
 0003:00002814       ?__LINE__Var@?1??GetJobList@CPA@@UAGJPAPAU_tagJobInfo@@PAJ@Z@4FA 00553814     PAATL.obj
 0003:00002818       ?__LINE__Var@?1??MoveJob@CPA@@UAGJPAGH@Z@4FA 00553818     PAATL.obj
 0003:0000281c       ?__LINE__Var@?1??CancelJobs@CPA@@UAGJPAPAGJ@Z@4FA 0055381c     PAATL.obj
 0003:00002820       ?__LINE__Var@?1??DeleteJobs@CPA@@UAGJPAPAGJ@Z@4FA 00553820     PAATL.obj
 0003:00002824       ?__LINE__Var@?1??GetHistoryJobCount@CPA@@UAGJPAK@Z@4FA 00553824     PAATL.obj
 0003:00002828       ?__LINE__Var@?1??GetHistoryJobs@CPA@@UAGJKPAKPAPAU_tagJobInfo@@@Z@4FA 00553828     PAATL.obj
 0003:0000282c       ?__LINE__Var@?1??GetHistoryJobInfo@CPA@@UAGJPAGPAU_tagJobInfo@@@Z@4FA 0055382c     PAATL.obj
 0003:00002830       ?__LINE__Var@?1??GetHistoryJobPSSIInfo@CPA@@UAGJPAGPAJPAPAU_tagPSSIInfo@@@Z@4FA 00553830     PAATL.obj
 0003:00002834       ?__LINE__Var@?1??GetHistoryJobNetworkNodeInfo@CPA@@UAGJPAGPAJPAPAU_tagNetworkNode@@@Z@4FA 00553834     PAATL.obj
 0003:00002838       ?__LINE__Var@?1??GetHistoryJobDetailInfo@CPA@@UAGJPAGPAJPAPAU_tagJobDetailStruct@@@Z@4FA 00553838     PAATL.obj
 0003:0000283c       ?__LINE__Var@?1??GetHistoryJobDiscImportImageInfo@CPA@@UAGJPAGPAJPAPAU_tagDiscImport_SeriesStruct@@@Z@4FA 0055383c     PAATL.obj
 0003:00002840       ?__LINE__Var@?1??DeleteHistoryJobs@CPA@@UAGJJPAPAG@Z@4FA 00553840     PAATL.obj
 0003:00002844       ?__LINE__Var@?1??DeleteAllHistoryJobs@CPA@@UAGJXZ@4FA 00553844     PAATL.obj
 0003:00002848       ?__LINE__Var@?1??CompactDB@CPA@@UAGJH@Z@4FA 00553848     PAATL.obj
 0003:0000284c       ?__LINE__Var@?1??Print@CPA@@UAGJJPAPAG@Z@4FA 0055384c     PAATL.obj
 0003:00002850       ??_R0P8ASBasisGetFunctionName@?1??Print@CPA@@UAGJJPAPAG@Z@AEXXZ@8 00553850     PAATL.obj
 0003:000028a4       ?__LINE__Var@?1??GetPrintJobList@CPA@@UAGJPAPAU_tagJobInfo@@PAJ@Z@4FA 005538a4     PAATL.obj
 0003:000028a8       ??_R0P8ASBasisGetFunctionName@?1??GetPrintJobList@CPA@@UAGJPAPAU_tagJobInfo@@PAJ@Z@AEXXZ@8 005538a8     PAATL.obj
 0003:00002918       ?__LINE__Var@?1??ShowFCProgressBar@CPA@@UAGJH@Z@4FA 00553918     PAATL.obj
 0003:00002920       ??_R0P8ASBasisGetFunctionName@?1??ShowFCProgressBar@CPA@@UAGJH@Z@AEXXZ@8 00553920     PAATL.obj
 0003:0000297c       ?__LINE__Var@?1??GetPrintNetworkNodes@CPA@@UAGJPAPAU_tagNetworkNode@@PAJ@Z@4FA 0055397c     PAATL.obj
 0003:00002980       ??_R0P8ASBasisGetFunctionName@?1??GetPrintNetworkNodes@CPA@@UAGJPAPAU_tagNetworkNode@@PAJ@Z@AEXXZ@8 00553980     PAATL.obj
 0003:000029fc       ?__LINE__Var@?1??GetPrintErrorMsg@CPA@@UAGJHPAPAG@Z@4FA 005539fc     PAATL.obj
 0003:00002a00       ??_R0P8ASBasisGetFunctionName@?1??GetPrintErrorMsg@CPA@@UAGJHPAPAG@Z@AEXXZ@8 00553a00     PAATL.obj
 0003:00002a60       ?__LINE__Var@?1??SetWorkState@CPA@@AAEHW4_WORKSTATE@@@Z@4FA 00553a60     PAATL.obj
 0003:00002a64       ?__LINE__Var@?1??HandleBackGroundJobAcq@CPA@@QAEHXZ@4FA 00553a64     PAATL.obj
 0003:00002a68       ?__LINE__Var@?1??SetBurnDevice@CPA@@UAGJPAG@Z@4FA 00553a68     PAATL.obj
 0003:00002a70       ??_R0P8ASBasisGetFunctionName@?1??SetBurnDevice@CPA@@UAGJPAG@Z@AEXXZ@8 00553a70     PAATL.obj
 0003:00002ac8       ?__LINE__Var@?1??GetDevices@CPA@@UAGJPAPAPAGPAJ@Z@4FA 00553ac8     PAATL.obj
 0003:00002ad0       ??_R0P8ASBasisGetFunctionName@?1??GetDevices@CPA@@UAGJPAPAPAGPAJ@Z@AEXXZ@8 00553ad0     PAATL.obj
 0003:00002b2c       ?__LINE__Var@?1??GetCurrentDeviceMediaInfo@CPA@@UAGJXZ@4FA 00553b2c     PAATL.obj
 0003:00002b30       ??_R0P8ASBasisGetFunctionName@?1??GetCurrentDeviceMediaInfo@CPA@@UAGJXZ@AEXXZ@8 00553b30     PAATL.obj
 0003:00002b94       ?__LINE__Var@?1??GetEstimatedSize@CPA@@UAGJHHPAK@Z@4FA 00553b94     PAATL.obj
 0003:00002b98       ??_R0P8ASBasisGetFunctionName@?1??GetEstimatedSize@CPA@@UAGJHHPAK@Z@AEXXZ@8 00553b98     PAATL.obj
 0003:00002bf8       ?__LINE__Var@?1??BurnPrepare@CPA@@UAGJJPAPAGW4_PatientAdminUIDType@@@Z@4FA 00553bf8     PAATL.obj
 0003:00002c00       ??_R0P8ASBasisGetFunctionName@?1??BurnPrepare@CPA@@UAGJJPAPAGW4_PatientAdminUIDType@@@Z@AEXXZ@8 00553c00     PAATL.obj
 0003:00002c78       ?__LINE__Var@?1??CancelBurnPrepare@CPA@@UAGJXZ@4FA 00553c78     PAATL.obj
 0003:00002c80       ??_R0P8ASBasisGetFunctionName@?1??CancelBurnPrepare@CPA@@UAGJXZ@AEXXZ@8 00553c80     PAATL.obj
 0003:00002cd8       ?__LINE__Var@?1??BurnByPA@CPA@@UAGJPAU_tagBurnJobSettingsByPA@@@Z@4FA 00553cd8     PAATL.obj
 0003:00002ce0       ??_R0P8ASBasisGetFunctionName@?1??BurnByPA@CPA@@UAGJPAU_tagBurnJobSettingsByPA@@@Z@AEXXZ@8 00553ce0     PAATL.obj
 0003:00002d50       ?__LINE__Var@?1??GetBurnJobInfo@CPA@@UAGJPAGPAU_tagJobInfo@@PAPAU_tagPSSIInfo@@PAJPAPAU_tagJobDetailStruct@@3@Z@4FA 00553d50     PAATL.obj
 0003:00002d58       ??_R0P8ASBasisGetFunctionName@?1??GetBurnJobInfo@CPA@@UAGJPAGPAU_tagJobInfo@@PAPAU_tagPSSIInfo@@PAJPAPAU_tagJobDetailStruct@@3@Z@AEXXZ@8 00553d58     PAATL.obj
 0003:00002e00       ?__LINE__Var@?1??EnableCheckDevice@CPA@@UAGJH@Z@4FA 00553e00     PAATL.obj
 0003:00002e08       ??_R0P8ASBasisGetFunctionName@?1??EnableCheckDevice@CPA@@UAGJH@Z@AEXXZ@8 00553e08     PAATL.obj
 0003:00002e64       ?__LINE__Var@?1??SetBurnMediaCheckRetry@CPA@@UAGJH@Z@4FA 00553e64     PAATL.obj
 0003:00002e68       ??_R0P8ASBasisGetFunctionName@?1??SetBurnMediaCheckRetry@CPA@@UAGJH@Z@AEXXZ@8 00553e68     PAATL.obj
 0003:00002ec8       ?__LINE__Var@?1??IsUnfinishedBurnJobExist@CPA@@UAGJPAH@Z@4FA 00553ec8     PAATL.obj
 0003:00002ed0       ??_R0P8ASBasisGetFunctionName@?1??IsUnfinishedBurnJobExist@CPA@@UAGJPAH@Z@AEXXZ@8 00553ed0     PAATL.obj
 0003:00002f34       ?__LINE__Var@?1??GetBurnErrorMsg@CPA@@UAGJHPAPAG@Z@4FA 00553f34     PAATL.obj
 0003:00002f38       ??_R0P8ASBasisGetFunctionName@?1??GetBurnErrorMsg@CPA@@UAGJHPAPAG@Z@AEXXZ@8 00553f38     PAATL.obj
 0003:00002f98       ?__LINE__Var@?1??GetBurnSubModuleState@CPA@@UAGJPAW4_SubModuleState@@@Z@4FA 00553f98     PAATL.obj
 0003:00002fa0       ??_R0P8ASBasisGetFunctionName@?1??GetBurnSubModuleState@CPA@@UAGJPAW4_SubModuleState@@@Z@AEXXZ@8 00553fa0     PAATL.obj
 0003:00003018       ?__LINE__Var@?1??AutoTransfer@CPA@@UAGJPAGW4_PatientAdminUIDType@@@Z@4FA 00554018     PAATL.obj
 0003:00003020       ??_R0P8ASBasisGetFunctionName@?1??AutoTransfer@CPA@@UAGJPAGW4_PatientAdminUIDType@@@Z@AEXXZ@8 00554020     PAATL.obj
 0003:00003094       ?__LINE__Var@?1??ManualTransfer@CPA@@UAGJJPAPAGW4_PatientAdminUIDType@@PAU_tagTransferJobSettingsByUID@@@Z@4FA 00554094     PAATL.obj
 0003:00003098       ??_R0P8ASBasisGetFunctionName@?1??ManualTransfer@CPA@@UAGJJPAPAGW4_PatientAdminUIDType@@PAU_tagTransferJobSettingsByUID@@@Z@AEXXZ@8 00554098     PAATL.obj
 0003:00003138       ?__LINE__Var@?1??ManualTransferWithMultiServers@CPA@@UAGJJPAPAGW4_PatientAdminUIDType@@JPAU_tagTransferJobSettingsByUID@@@Z@4FA 00554138     PAATL.obj
 0003:00003140       ??_R0P8ASBasisGetFunctionName@?1??ManualTransferWithMultiServers@CPA@@UAGJJPAPAGW4_PatientAdminUIDType@@JPAU_tagTransferJobSettingsByUID@@@Z@AEXXZ@8 00554140     PAATL.obj
 0003:000031f8       ?__LINE__Var@?1??GetSendJobInfo@CPA@@UAGJPAGPAU_tagJobInfo@@PAPAU_tagPSSIInfo@@PAJPAPAU_tagNetworkNode@@3PAPAU_tagJobDetailStruct@@3@Z@4FA 005541f8     PAATL.obj
 0003:00003200       ??_R0P8ASBasisGetFunctionName@?1??GetSendJobInfo@CPA@@UAGJPAGPAU_tagJobInfo@@PAPAU_tagPSSIInfo@@PAJPAPAU_tagNetworkNode@@3PAPAU_tagJobDetailStruct@@3@Z@AEXXZ@8 00554200     PAATL.obj
 0003:000032c4       ?__LINE__Var@?1??GetTransferSubModuleState@CPA@@UAGJPAW4_SubModuleState@@@Z@4FA 005542c4     PAATL.obj
 0003:000032c8       ??_R0P8ASBasisGetFunctionName@?1??GetTransferSubModuleState@CPA@@UAGJPAW4_SubModuleState@@@Z@AEXXZ@8 005542c8     PAATL.obj
 0003:00003344       ?__LINE__Var@?1??IsUnfinishedTrnasferJobExist@CPA@@UAGJPAH@Z@4FA 00554344     PAATL.obj
 0003:00003348       ??_R0P8ASBasisGetFunctionName@?1??IsUnfinishedTrnasferJobExist@CPA@@UAGJPAH@Z@AEXXZ@8 00554348     PAATL.obj
 0003:000033b4       ?__LINE__Var@?1??GetAutoServers@CPA@@UAGJPAPAU_tagNetworkNode@@PAJ@Z@4FA 005543b4     PAATL.obj
 0003:000033b8       ??_R0P8ASBasisGetFunctionName@?1??GetAutoServers@CPA@@UAGJPAPAU_tagNetworkNode@@PAJ@Z@AEXXZ@8 005543b8     PAATL.obj
 0003:0000342c       ?__LINE__Var@?1??IsAutoSendValid@CPA@@UAGJPAH@Z@4FA 0055442c     PAATL.obj
 0003:00003430       ??_R0P8ASBasisGetFunctionName@?1??IsAutoSendValid@CPA@@UAGJPAH@Z@AEXXZ@8 00554430     PAATL.obj
 0003:0000348c       ?__LINE__Var@?1??SetAutoServers@CPA@@UAGJPAU_tagNetworkNode@@J@Z@4FA 0055448c     PAATL.obj
 0003:00003490       ??_R0P8ASBasisGetFunctionName@?1??SetAutoServers@CPA@@UAGJPAU_tagNetworkNode@@J@Z@AEXXZ@8 00554490     PAATL.obj
 0003:00003500       ?__LINE__Var@?1??GetManualServers@CPA@@UAGJPAPAU_tagNetworkNode@@PAJ@Z@4FA 00554500     PAATL.obj
 0003:00003508       ??_R0P8ASBasisGetFunctionName@?1??GetManualServers@CPA@@UAGJPAPAU_tagNetworkNode@@PAJ@Z@AEXXZ@8 00554508     PAATL.obj
 0003:00003580       ?__LINE__Var@?1??SetManualServers@CPA@@UAGJPAU_tagNetworkNode@@J@Z@4FA 00554580     PAATL.obj
 0003:00003588       ??_R0P8ASBasisGetFunctionName@?1??SetManualServers@CPA@@UAGJPAU_tagNetworkNode@@J@Z@AEXXZ@8 00554588     PAATL.obj
 0003:000035f8       ?__LINE__Var@?1??ConnectTest@CPA@@UAGJPAU_tagNetworkNode@@PAH@Z@4FA 005545f8     PAATL.obj
 0003:00003600       ??_R0P8ASBasisGetFunctionName@?1??ConnectTest@CPA@@UAGJPAU_tagNetworkNode@@PAH@Z@AEXXZ@8 00554600     PAATL.obj
 0003:00003670       ?__LINE__Var@?1??GetDiscImportDevices@CPA@@UAGJPAPAPAGPAJ@Z@4FA 00554670     PAATL.obj
 0003:00003678       ??_R0P8ASBasisGetFunctionName@?1??GetDiscImportDevices@CPA@@UAGJPAPAPAGPAJ@Z@AEXXZ@8 00554678     PAATL.obj
 0003:000036e0       ?__LINE__Var@?1??GetImportDiscInfoNotify@CPA@@UAGJPAG@Z@4FA 005546e0     PAATL.obj
 0003:000036e8       ??_R0P8ASBasisGetFunctionName@?1??GetImportDiscInfoNotify@CPA@@UAGJPAG@Z@AEXXZ@8 005546e8     PAATL.obj
 0003:0000374c       ?__LINE__Var@?1??GetImportDiscInfo@CPA@@UAGJPAPAU_tagDiscImportPatientInfo@@PAJPAPAU_tagDiscImportStudyInfo@@1PAPAU_tagDiscImportSeriesInfo@@1PAPAU_tagDiscImporImageInfo@@1@Z@4FA 0055474c     PAATL.obj
 0003:00003750       ??_R0P8ASBasisGetFunctionName@?1??GetImportDiscInfo@CPA@@UAGJPAPAU_tagDiscImportPatientInfo@@PAJPAPAU_tagDiscImportStudyInfo@@1PAPAU_tagDiscImportSeriesInfo@@1PAPAU_tagDiscImporImageInfo@@1@Z@AEXXZ@8 00554750     PAATL.obj
 0003:00003844       ?__LINE__Var@?1??CancelGetImportDiscInfo@CPA@@UAGJXZ@4FA 00554844     PAATL.obj
 0003:00003848       ??_R0P8ASBasisGetFunctionName@?1??CancelGetImportDiscInfo@CPA@@UAGJXZ@AEXXZ@8 00554848     PAATL.obj
 0003:000038a8       ?__LINE__Var@?1??DiscImport@CPA@@UAGJJPAPAGW4_PatientAdminUIDType@@@Z@4FA 005548a8     PAATL.obj
 0003:000038b0       ??_R0P8ASBasisGetFunctionName@?1??DiscImport@CPA@@UAGJJPAPAGW4_PatientAdminUIDType@@@Z@AEXXZ@8 005548b0     PAATL.obj
 0003:00003924       ?__LINE__Var@?1??GetDiscImportJobInfo@CPA@@UAGJPAGPAPAU_tagDiscImport_SeriesStruct@@PAJ@Z@4FA 00554924     PAATL.obj
 0003:00003928       ??_R0P8ASBasisGetFunctionName@?1??GetDiscImportJobInfo@CPA@@UAGJPAGPAPAU_tagDiscImport_SeriesStruct@@PAJ@Z@AEXXZ@8 00554928     PAATL.obj
 0003:000039b4       ?__LINE__Var@?1??IsUnfinishedDiscImportJobExist@CPA@@UAGJPAH@Z@4FA 005549b4     PAATL.obj
 0003:000039b8       ??_R0P8ASBasisGetFunctionName@?1??IsUnfinishedDiscImportJobExist@CPA@@UAGJPAH@Z@AEXXZ@8 005549b8     PAATL.obj
 0003:00003a24       ?__LINE__Var@?1??GetWorkList@CPA@@UAGJXZ@4FA 00554a24     PAATL.obj
 0003:00003a28       ??_R0P8ASBasisGetFunctionName@?1??GetWorkList@CPA@@UAGJXZ@AEXXZ@8 00554a28     PAATL.obj
 0003:00003a7c       ?__LINE__Var@?1??RefreshWorkList@CPA@@UAGJPAU_WorkListQueryCond@@@Z@4FA 00554a7c     PAATL.obj
 0003:00003a80       ??_R0P8ASBasisGetFunctionName@?1??RefreshWorkList@CPA@@UAGJPAU_WorkListQueryCond@@@Z@AEXXZ@8 00554a80     PAATL.obj
 0003:00003af4       ?__LINE__Var@?1??GetImportPatientStudyInfo@CPA@@UAGJPAGPAU_tagWLPatientStudyStruct@@@Z@4FA 00554af4     PAATL.obj
 0003:00003af8       ??_R0P8ASBasisGetFunctionName@?1??GetImportPatientStudyInfo@CPA@@UAGJPAGPAU_tagWLPatientStudyStruct@@@Z@AEXXZ@8 00554af8     PAATL.obj
 0003:00003b80       ?__LINE__Var@?1??IsStudyImported@CPA@@UAGJPAGPAU_WLPatientStudyStatusInDB@@@Z@4FA 00554b80     PAATL.obj
 0003:00003b88       ??_R0P8ASBasisGetFunctionName@?1??IsStudyImported@CPA@@UAGJPAGPAU_WLPatientStudyStatusInDB@@@Z@AEXXZ@8 00554b88     PAATL.obj
 0003:00003c08       ?__LINE__Var@?1??StudyImported@CPA@@UAGJPAG@Z@4FA 00554c08     PAATL.obj
 0003:00003c10       ??_R0P8ASBasisGetFunctionName@?1??StudyImported@CPA@@UAGJPAG@Z@AEXXZ@8 00554c10     PAATL.obj
 0003:00003c68       ?__LINE__Var@?1??DeleteAllImportedStudyRecords@CPA@@UAGJXZ@4FA 00554c68     PAATL.obj
 0003:00003c70       ??_R0P8ASBasisGetFunctionName@?1??DeleteAllImportedStudyRecords@CPA@@UAGJXZ@AEXXZ@8 00554c70     PAATL.obj
 0003:00003cd8       ?__LINE__Var@?1??IsMPPSValid@CPA@@UAGJPAH@Z@4FA 00554cd8     PAATL.obj
 0003:00003ce0       ??_R0P8ASBasisGetFunctionName@?1??IsMPPSValid@CPA@@UAGJPAH@Z@AEXXZ@8 00554ce0     PAATL.obj
 0003:00003d38       ?__LINE__Var@?1??IsSetMPPSStatusEnabled@CPA@@UAGJPAGPAH@Z@4FA 00554d38     PAATL.obj
 0003:00003d40       ??_R0P8ASBasisGetFunctionName@?1??IsSetMPPSStatusEnabled@CPA@@UAGJPAGPAH@Z@AEXXZ@8 00554d40     PAATL.obj
 0003:00003da8       ?__LINE__Var@?1??GetStudyMPPSStatus@CPA@@UAGJPAGPAW4_WorkListStatus@@@Z@4FA 00554da8     PAATL.obj
 0003:00003db0       ??_R0P8ASBasisGetFunctionName@?1??GetStudyMPPSStatus@CPA@@UAGJPAGPAW4_WorkListStatus@@@Z@AEXXZ@8 00554db0     PAATL.obj
 0003:00003e28       ?__LINE__Var@?1??SetMPPSStatus@CPA@@UAGJPAGW4_WorkListStatus@@@Z@4FA 00554e28     PAATL.obj
 0003:00003e30       ??_R0P8ASBasisGetFunctionName@?1??SetMPPSStatus@CPA@@UAGJPAGW4_WorkListStatus@@@Z@AEXXZ@8 00554e30     PAATL.obj
 0003:00003ea0       ?__LINE__Var@?1??IsWorkListWorking@CPA@@UAGJPAH@Z@4FA 00554ea0     PAATL.obj
 0003:00003ea4       ?__LINE__Var@?1??IsMppsWorking@CPA@@UAGJPAH@Z@4FA 00554ea4     PAATL.obj
 0003:00003ea8       ?__LINE__Var@?1??IsClosingStudyMPPS@CPA@@UAGJPAGPAH@Z@4FA 00554ea8     PAATL.obj
 0003:00003eac       ?__LINE__Var@?1??IsSettingPatientOrStudyMPPS@CPA@@UAGJJPAPAGW4_PatientAdminUIDType@@PAH@Z@4FA 00554eac     PAATL.obj
 0003:00003eb0       ?__LINE__Var@?1??GetWlServers@CPA@@UAGJPAPAU_tagNetworkNode@@PAJ@Z@4FA 00554eb0     PAATL.obj
 0003:00003eb8       ??_R0P8ASBasisGetFunctionName@?1??GetWlServers@CPA@@UAGJPAPAU_tagNetworkNode@@PAJ@Z@AEXXZ@8 00554eb8     PAATL.obj
 0003:00003f28       ?__LINE__Var@?1??SetWlServers@CPA@@UAGJPAU_tagNetworkNode@@J@Z@4FA 00554f28     PAATL.obj
 0003:00003f30       ??_R0P8ASBasisGetFunctionName@?1??SetWlServers@CPA@@UAGJPAU_tagNetworkNode@@J@Z@AEXXZ@8 00554f30     PAATL.obj
 0003:00003f9c       ?__LINE__Var@?1??WlServerConnectTest@CPA@@UAGJPAU_tagNetworkNode@@PAH@Z@4FA 00554f9c     PAATL.obj
 0003:00003fa0       ??_R0P8ASBasisGetFunctionName@?1??WlServerConnectTest@CPA@@UAGJPAU_tagNetworkNode@@PAH@Z@AEXXZ@8 00554fa0     PAATL.obj
 0003:00004018       ?__LINE__Var@?1??GetMppsServers@CPA@@UAGJPAPAU_tagNetworkNode@@PAJ@Z@4FA 00555018     PAATL.obj
 0003:00004020       ??_R0P8ASBasisGetFunctionName@?1??GetMppsServers@CPA@@UAGJPAPAU_tagNetworkNode@@PAJ@Z@AEXXZ@8 00555020     PAATL.obj
 0003:00004094       ?__LINE__Var@?1??SetMppsServers@CPA@@UAGJPAU_tagNetworkNode@@J@Z@4FA 00555094     PAATL.obj
 0003:00004098       ??_R0P8ASBasisGetFunctionName@?1??SetMppsServers@CPA@@UAGJPAU_tagNetworkNode@@J@Z@AEXXZ@8 00555098     PAATL.obj
 0003:00004108       ?__LINE__Var@?1??MppsServerConnectTest@CPA@@UAGJPAU_tagNetworkNode@@PAH@Z@4FA 00555108     PAATL.obj
 0003:00004110       ??_R0P8ASBasisGetFunctionName@?1??MppsServerConnectTest@CPA@@UAGJPAU_tagNetworkNode@@PAH@Z@AEXXZ@8 00555110     PAATL.obj
 0003:0000418c       ?__LINE__Var@?1??SetEnableAutoTransferStatus@CPA@@UAGJH@Z@4FA 0055518c     PAATL.obj
 0003:00004190       ??_R0P8ASBasisGetFunctionName@?1??SetEnableAutoTransferStatus@CPA@@UAGJH@Z@AEXXZ@8 00555190     PAATL.obj
 0003:000041f8       ?__LINE__Var@?1??GetEnableAutoTransferStatus@CPA@@UAGJPAH@Z@4FA 005551f8     PAATL.obj
 0003:00004200       ??_R0P8ASBasisGetFunctionName@?1??GetEnableAutoTransferStatus@CPA@@UAGJPAH@Z@AEXXZ@8 00555200     PAATL.obj
 0003:00004268       ?__LINE__Var@?1??SetAskforAutoTransfer@CPA@@UAGJH@Z@4FA 00555268     PAATL.obj
 0003:00004270       ??_R0P8ASBasisGetFunctionName@?1??SetAskforAutoTransfer@CPA@@UAGJH@Z@AEXXZ@8 00555270     PAATL.obj
 0003:000042d0       ?__LINE__Var@?1??GetAskforAutoTransfer@CPA@@UAGJPAH@Z@4FA 005552d0     PAATL.obj
 0003:000042d8       ??_R0P8ASBasisGetFunctionName@?1??GetAskforAutoTransfer@CPA@@UAGJPAH@Z@AEXXZ@8 005552d8     PAATL.obj
 0003:00004340       __GUID_1019464e_a497_4b97_8943_f943791eb196 00555340     PAATL.obj
 0003:00004358       __GUID_8d9f4b93_d28f_40f1_9b34_870f78894e17 00555358     PAATL.obj
 0003:00004370       ??_R0P8ASBasisGetFunctionName@?1??Initialize@?$CProxyBase@UIStatisticsWorkflowLevel@@VCoSystemEventDB@@@@QAE_NXZ@AEXXZ@8 00555370     PAATL.obj
 0003:00004408       ??_R0?AVCPADataBaseOpt@@@8 00555408     PADataBaseOpt.obj
 0003:0000442c       ?__LINE__Var@?1??Init@CPADataBaseOpt@@QAEHXZ@4FA 0055542c     PADataBaseOpt.obj
 0003:00004430       ?__LINE__Var@?1??UnInit@CPADataBaseOpt@@QAEHXZ@4FA 00555430     PADataBaseOpt.obj
 0003:00004434       ?__LINE__Var@?1??AddJob@CPADataBaseOpt@@QAEHPAVPAJob@@@Z@4FA 00555434     PADataBaseOpt.obj
 0003:00004438       ?__LINE__Var@?1??SetJob@CPADataBaseOpt@@QAEHPAVPAJob@@@Z@4FA 00555438     PADataBaseOpt.obj
 0003:0000443c       ?__LINE__Var@?1??GetJobCount@CPADataBaseOpt@@QAEHPAK@Z@4FA 0055543c     PADataBaseOpt.obj
 0003:00004440       ?__LINE__Var@?1??GetJobs@CPADataBaseOpt@@QAEHKPAKPAPAU_tagJobInfo@@@Z@4FA 00555440     PADataBaseOpt.obj
 0003:00004444       ?__LINE__Var@?1??GetJobInfo@CPADataBaseOpt@@QAEHPBGPAU_tagJobInfo@@@Z@4FA 00555444     PADataBaseOpt.obj
 0003:00004448       ?__LINE__Var@?1??GetJobPSSIInfo@CPADataBaseOpt@@QAEHPBGPAJPAPAU_tagPSSIInfo@@@Z@4FA 00555448     PADataBaseOpt.obj
 0003:0000444c       ?__LINE__Var@?1??GetJobNetworkNodeInfo@CPADataBaseOpt@@QAEHPBGPAJPAPAU_tagNetworkNode@@@Z@4FA 0055544c     PADataBaseOpt.obj
 0003:00004450       ?__LINE__Var@?1??GetJobDetailInfo@CPADataBaseOpt@@QAEHPBGPAJPAPAU_tagJobDetailStruct@@@Z@4FA 00555450     PADataBaseOpt.obj
 0003:00004454       ?__LINE__Var@?1??GetJobDiscImportImageInfo@CPADataBaseOpt@@QAEHPBGPAJPAPAU_tagDiscImport_SeriesStruct@@@Z@4FA 00555454     PADataBaseOpt.obj
 0003:00004458       ?__LINE__Var@?1??DeleteJobs@CPADataBaseOpt@@QAEHAAV?$vector@VCString@@V?$allocator@VCString@@@std@@@std@@@Z@4FA 00555458     PADataBaseOpt.obj
 0003:0000445c       ?__LINE__Var@?1??DeleteAllJobs@CPADataBaseOpt@@QAEHXZ@4FA 0055545c     PADataBaseOpt.obj
 0003:00004460       ?__LINE__Var@?1??AddWorklistImportedStudy@CPADataBaseOpt@@QAEHPBG@Z@4FA 00555460     PADataBaseOpt.obj
 0003:00004464       ?__LINE__Var@?1??IsStudyInstanceUIDExist@CPADataBaseOpt@@QAEHPBGPAH@Z@4FA 00555464     PADataBaseOpt.obj
 0003:00004468       ?__LINE__Var@?1??DeleteAllImportedStudyRecords@CPADataBaseOpt@@QAEHXZ@4FA 00555468     PADataBaseOpt.obj
 0003:0000446c       ?__LINE__Var@?1??CompactDabaBase@CPADataBaseOpt@@QAEHH@Z@4FA 0055546c     PADataBaseOpt.obj
 0003:00004470       ?__LINE__Var@?1??AddJobUIDInfo@CPADataBaseOpt@@AAEHPAVPAJob@@@Z@4FA 00555470     PADataBaseOpt.obj
 0003:00004474       ?__LINE__Var@?1??AddJobPssiInfo@CPADataBaseOpt@@AAEHPAVPAJob@@@Z@4FA 00555474     PADataBaseOpt.obj
 0003:00004478       ?__LINE__Var@?1??AddJobNetworkNodeInfo@CPADataBaseOpt@@AAEHPAVPAJob@@@Z@4FA 00555478     PADataBaseOpt.obj
 0003:0000447c       ?__LINE__Var@?1??AddJobDetailInfo@CPADataBaseOpt@@AAEHPAVPAJob@@@Z@4FA 0055547c     PADataBaseOpt.obj
 0003:00004480       ?__LINE__Var@?1??AddJobDiscImportImageInfo@CPADataBaseOpt@@AAEHPAVPAJob@@@Z@4FA 00555480     PADataBaseOpt.obj
 0003:00004488       __GUID_de88c160_ff2c_11d1_bb6f_00c04fae22da 00555488     PADataBaseOpt.obj
 0003:0000449c       ?__LINE__Var@?1??CompactDB@CPADataBaseOpt@@AAEHPBG0H@Z@4FA 0055549c     PADataBaseOpt.obj
 0003:000044a0       __GUID_9f63d980_ff25_11d1_bb6f_00c04fae22da 005554a0     PADataBaseOpt.obj
 0003:000044b8       ??_R0?AVPAJob@@@8          005554b8     PAJob.obj
 0003:000044d0       ?__LINE__Var@?1??SetState@PAJob@@QAEXW4_JobState@@@Z@4FA 005554d0     PAJob.obj
 0003:000044d8       ??_R0?AUIDispatch@@@8      005554d8     PQSink.obj
 0003:000044f8       ??_R0?AU_IPrintQueueChangeEvents@@@8 005554f8     PQSink.obj
 0003:00004528       ??_R0?AVCPQSink@@@8        00555528     PQSink.obj
 0003:00004544       ?__LINE__Var@?1??ErrorOutput@CPQSink@@UAGJPAG0@Z@4FA 00555544     PQSink.obj
 0003:00004548       ??_R0?AVCPrinting@@@8      00555548     Printing.obj
 0003:00004564       ?__LINE__Var@?1??Init@CPrinting@@QAEHXZ@4FA 00555564     Printing.obj
 0003:00004568       ?__LINE__Var@?1??CreateJob@CPrinting@@QAEHPAU_tagPrintJobSettings@@@Z@4FA 00555568     Printing.obj
 0003:0000456c       ?__LINE__Var@?1??LoadToFC@CPrinting@@QAEHPAV?$vector@VCString@@V?$allocator@VCString@@@std@@@std@@@Z@4FA 0055556c     Printing.obj
 0003:00004570       ?__LINE__Var@?1??UnInit@CPrinting@@QAEHXZ@4FA 00555570     Printing.obj
 0003:00004578       ??_R0P8ASBasisGetFunctionName@?1??UnInit@CPrinting@@QAEHXZ@AEXXZ@8 00555578     Printing.obj
 0003:000045cc       ?__LINE__Var@?1??SetSubModuleState@CPrinting@@QAEXW4_SubModuleState@@@Z@4FA 005555cc     Printing.obj
 0003:000045d0       ?__LINE__Var@?1??CancelFCPrinting@CPrinting@@QAEHXZ@4FA 005555d0     Printing.obj
 0003:000045d4       ?__LINE__Var@?1??HandlePrintBeforeAcq@CPrinting@@QAEHXZ@4FA 005555d4     Printing.obj
 0003:000045d8       ?__LINE__Var@?1??SetPrintWorkingState@CPrinting@@AAEXW4_TagPrintWorkingState@@@Z@4FA 005555d8     Printing.obj
 0003:000045e0       ??_R0?AVCSpaceEstimator@@@8 005555e0     SpaceEstimator.obj
 0003:00004608       ??_R0?AV?$CProxyBase@UIStatisticsWorkflowLevel@@VCoSystemEventDB@@@@@8 00555608     SystemEventProxy.obj
 0003:00004660       ??_R0?AVCSystemEventProxy@@@8 00555660     SystemEventProxy.obj
 0003:00004688       ?__LINE__Var@?1???0CSystemEventProxy@@AAE@XZ@4FA 00555688     SystemEventProxy.obj
 0003:00004690       ??_R0P8ASBasisGetFunctionName@?1???0CSystemEventProxy@@AAE@XZ@AEXXZ@8 00555690     SystemEventProxy.obj
 0003:000046e8       ?__LINE__Var@?1???1CSystemEventProxy@@UAE@XZ@4FA 005556e8     SystemEventProxy.obj
 0003:000046f0       ??_R0P8ASBasisGetFunctionName@?1???1CSystemEventProxy@@UAE@XZ@AEXXZ@8 005556f0     SystemEventProxy.obj
 0003:00004748       ??_R0?AVCTransfer@@@8      00555748     Transfer.obj
 0003:00004764       ?__LINE__Var@?1??Init@CTransfer@@QAEHXZ@4FA 00555764     Transfer.obj
 0003:00004768       ??_R0P8ASBasisGetFunctionName@?1??Init@CTransfer@@QAEHXZ@AEXXZ@8 00555768     Transfer.obj
 0003:000047b8       ?__LINE__Var@?1??CreateJobAutoSend@CTransfer@@QAEHPBGW4_PatientAdminUIDType@@@Z@4FA 005557b8     Transfer.obj
 0003:000047bc       ?__LINE__Var@?1??CreateJobManualSend@CTransfer@@QAEHPAV?$vector@VCString@@V?$allocator@VCString@@@std@@@std@@W4_PatientAdminUIDType@@AAV?$vector@U_TagNetworkNodeStruct@@V?$allocator@U_TagNetworkNodeStruct@@@std@@@4@@Z@4FA 005557bc     Transfer.obj
 0003:000047c0       ?__LINE__Var@?1??UnInit@CTransfer@@QAEHXZ@4FA 005557c0     Transfer.obj
 0003:000047c4       ?__LINE__Var@?1??HandleJob@CTransfer@@QAEHPAVPAJob@@@Z@4FA 005557c4     Transfer.obj
 0003:000047c8       ??_R0P8ASBasisGetFunctionName@?1??HandleJob@CTransfer@@QAEHPAVPAJob@@@Z@AEXXZ@8 005557c8     Transfer.obj
 0003:0000482c       ?__LINE__Var@?1??GetAutoServers@CTransfer@@QAEHPAPAU_tagNetworkNode@@PAJ@Z@4FA 0055582c     Transfer.obj
 0003:00004830       ?__LINE__Var@?1??SetSubModuleState@CTransfer@@QAEXW4_SubModuleState@@@Z@4FA 00555830     Transfer.obj
 0003:00004834       ?__LINE__Var@?1??GetJobManualSendServers@CTransfer@@AAEHPAU_TagTransferJobSettingsStruct@@AAV?$vector@U_TagNetworkNodeStruct@@V?$allocator@U_TagNetworkNodeStruct@@@std@@@std@@@Z@4FA 00555834     Transfer.obj
 0003:00004838       ?__LINE__Var@?1??NotifyUIModifyDB@CTransfer@@AAEHPAVPAJob@@@Z@4FA 00555838     Transfer.obj
 0003:00004840       ??_R0?AVCTransferXMLParser@@@8 00555840     TransferXMLParser.obj
 0003:00004868       ?__LINE__Var@?1??Init@CTransferXMLParser@@QAEHXZ@4FA 00555868     TransferXMLParser.obj
 0003:0000486c       ?__LINE__Var@?1??GetDefaultAutoServers@CTransferXMLParser@@QAEHPAV?$vector@U_TagNetworkNodeStruct@@V?$allocator@U_TagNetworkNodeStruct@@@std@@@std@@@Z@4FA 0055586c     TransferXMLParser.obj
 0003:00004870       ?__LINE__Var@?1??GetManualServer@CTransferXMLParser@@QAEHPBGPAU_TagNetworkNodeStruct@@@Z@4FA 00555870     TransferXMLParser.obj
 0003:00004874       ?__LINE__Var@?1??SetManualServerState@CTransferXMLParser@@QAEHPAU_TagNetworkNodeStruct@@@Z@4FA 00555874     TransferXMLParser.obj
 0003:00004878       ?__LINE__Var@?1??GetServers@CTransferXMLParser@@AAEHHPAV?$vector@U_TagNetworkNodeStruct@@V?$allocator@U_TagNetworkNodeStruct@@@std@@@std@@@Z@4FA 00555878     TransferXMLParser.obj
 0003:0000487c       ?__LINE__Var@?1??SetServers@CTransferXMLParser@@AAEHHPAV?$vector@U_TagNetworkNodeStruct@@V?$allocator@U_TagNetworkNodeStruct@@@std@@@std@@@Z@4FA 0055587c     TransferXMLParser.obj
 0003:00004880       ?__LINE__Var@?1??SetDefaultServer@CTransferXMLParser@@AAEHHPBGH@Z@4FA 00555880     TransferXMLParser.obj
 0003:00004884       ?__LINE__Var@?1??AddServer@CTransferXMLParser@@AAEHHPAU_TagNetworkNodeStruct@@@Z@4FA 00555884     TransferXMLParser.obj
 0003:00004888       ?__LINE__Var@?1??ModifyServer@CTransferXMLParser@@AAEHHPBGPAU_TagNetworkNodeStruct@@@Z@4FA 00555888     TransferXMLParser.obj
 0003:0000488c       ?__LINE__Var@?1??RemoveServer@CTransferXMLParser@@AAEHHPBG@Z@4FA 0055588c     TransferXMLParser.obj
 0003:00004890       ?__LINE__Var@?1??RemoveAllServers@CTransferXMLParser@@AAEHH@Z@4FA 00555890     TransferXMLParser.obj
 0003:00004894       ?__LINE__Var@?1??IsFileExist@CTransferXMLParser@@AAEHPBG@Z@4FA 00555894     TransferXMLParser.obj
 0003:00004898       ?__LINE__Var@?1??InitXmlFile@CTransferXMLParser@@AAEHPAVCGenXml@@@Z@4FA 00555898     TransferXMLParser.obj
 0003:0000489c       ?__LINE__Var@?1??SetEnableAutoTransferStatus@CTransferXMLParser@@QAEHH@Z@4FA 0055589c     TransferXMLParser.obj
 0003:000048a0       ?__LINE__Var@?1??GetEnableAutoTransferStatus@CTransferXMLParser@@QAEHPAH@Z@4FA 005558a0     TransferXMLParser.obj
 0003:000048a4       ?__LINE__Var@?1??SetAskforAutoTransfer@CTransferXMLParser@@QAEHH@Z@4FA 005558a4     TransferXMLParser.obj
 0003:000048a8       ?__LINE__Var@?1??GetAskforAutoTransfer@CTransferXMLParser@@QAEHPAH@Z@4FA 005558a8     TransferXMLParser.obj
 0003:000048b0       ??_R0?AVCUserGuidanceOpt@@@8 005558b0     UserGuidanceOpt.obj
 0003:000048d8       ?__LINE__Var@?1??Init@CUserGuidanceOpt@@QAEHXZ@4FA 005558d8     UserGuidanceOpt.obj
 0003:000048e0       ??_R0P8ASBasisGetFunctionName@?1??Init@CUserGuidanceOpt@@QAEHXZ@AEXXZ@8 005558e0     UserGuidanceOpt.obj
 0003:00004938       ?__LINE__Var@?1??WorkListQueryThreadProc@@YGKPAX@Z@4FA 00555938     WlMpps.obj
 0003:0000493c       ?__LINE__Var@?1??SetMppsStatusThreadProc@@YGKPAX@Z@4FA 0055593c     WlMpps.obj
 0003:00004940       ??_R0?AVCWlMpps@@@8        00555940     WlMpps.obj
 0003:0000495c       ?__LINE__Var@?1??Init@CWlMpps@@QAEHXZ@4FA 0055595c     WlMpps.obj
 0003:00004960       ?__LINE__Var@?1??UnInit@CWlMpps@@QAEHXZ@4FA 00555960     WlMpps.obj
 0003:00004964       ?__LINE__Var@?1??GetWorkList@CWlMpps@@QAEHXZ@4FA 00555964     WlMpps.obj
 0003:00004968       ?__LINE__Var@?1??RefreshWorkList@CWlMpps@@QAEHPAU_WorkListQueryCond@@@Z@4FA 00555968     WlMpps.obj
 0003:0000496c       ?__LINE__Var@?1??GetPatientStudyStruct@CWlMpps@@QAEHPBGPAU_tagWLPatientStudyStruct@@@Z@4FA 0055596c     WlMpps.obj
 0003:00004970       ?__LINE__Var@?1??IsStudyImported@CWlMpps@@QAEHPBGPAU_WLPatientStudyStatusInDB@@@Z@4FA 00555970     WlMpps.obj
 0003:00004974       ?__LINE__Var@?1??StudyImported@CWlMpps@@QAEHPBG@Z@4FA 00555974     WlMpps.obj
 0003:00004978       ?__LINE__Var@?1??QueryProc@CWlMpps@@QAEHXZ@4FA 00555978     WlMpps.obj
 0003:0000497c       ?__LINE__Var@?1??CancelQuery@CWlMpps@@QAEHXZ@4FA 0055597c     WlMpps.obj
 0003:00004980       ?__LINE__Var@?1??ReportWorkList@CWlMpps@@AAEHXZ@4FA 00555980     WlMpps.obj
 0003:00004984       ?__LINE__Var@?1??IsSetMPPSStatusEnabled@CWlMpps@@QAEHPBGPAH@Z@4FA 00555984     WlMpps.obj
 0003:00004988       ?__LINE__Var@?1??GetStudyMppsStatus@CWlMpps@@QAEHPBGPAW4_WorkListStatus@@@Z@4FA 00555988     WlMpps.obj
 0003:0000498c       ?__LINE__Var@?1??SetMppsStatus@CWlMpps@@QAEHPBGW4_WorkListStatus@@@Z@4FA 0055598c     WlMpps.obj
 0003:00004990       ??_R0?AVCMppsOpt@@@8       00555990     WlMpps.obj
 0003:000049ac       ?__LINE__Var@?1??SetMppsStatusProc@CWlMpps@@QAEHPAU_tagMppsStatusStruct@@@Z@4FA 005559ac     WlMpps.obj
 0003:000049b0       ?__LINE__Var@?1??CancelMppsNProc@CWlMpps@@AAEHXZ@4FA 005559b0     WlMpps.obj
 0003:000049b4       ?__LINE__Var@?1??UpdateNCreateItems@CWlMpps@@AAEHAAV?$vector@UWLQueryItem@@V?$allocator@UWLQueryItem@@@std@@@std@@PBG@Z@4FA 005559b4     WlMpps.obj
 0003:000049b8       ?__LINE__Var@?1??UpdateNSetItems@CWlMpps@@AAEHAAV?$vector@UWLQueryItem@@V?$allocator@UWLQueryItem@@@std@@@std@@W4_WorkListStatus@@PBG@Z@4FA 005559b8     WlMpps.obj
